
usb-i2s-3WORK_USB.elf:     file format elf32-littlearm

Sections:
Idx Name          Size      VMA       LMA       File off  Algn
  0 .isr_vector   00000194  08000000  08000000  00010000  2**0
                  CONTENTS, ALLOC, LOAD, READONLY, DATA
  1 .text         0000a76c  08000198  08000198  00010198  2**3
                  CONTENTS, ALLOC, LOAD, READONLY, CODE
  2 .rodata       00000310  0800a908  0800a908  0001a908  2**3
                  CONTENTS, ALLOC, LOAD, READONLY, DATA
  3 .ARM.extab    00000000  0800ac18  0800ac18  00020368  2**0
                  CONTENTS
  4 .ARM          00000008  0800ac18  0800ac18  0001ac18  2**2
                  CONTENTS, ALLOC, LOAD, READONLY, DATA
  5 .preinit_array 00000000  0800ac20  0800ac20  00020368  2**0
                  CONTENTS, ALLOC, LOAD, DATA
  6 .init_array   00000004  0800ac20  0800ac20  0001ac20  2**2
                  CONTENTS, ALLOC, LOAD, DATA
  7 .fini_array   00000004  0800ac24  0800ac24  0001ac24  2**2
                  CONTENTS, ALLOC, LOAD, DATA
  8 .data         00000368  20000000  0800ac28  00020000  2**2
                  CONTENTS, ALLOC, LOAD, DATA
  9 .bss          00000f80  20000368  0800af90  00020368  2**2
                  ALLOC
 10 ._user_heap_stack 00009000  200012e8  0800af90  000212e8  2**0
                  ALLOC
 11 .ARM.attributes 00000030  00000000  00000000  00020368  2**0
                  CONTENTS, READONLY
 12 .comment      0000007b  00000000  00000000  00020398  2**0
                  CONTENTS, READONLY
 13 .debug_frame  00000dc8  00000000  00000000  00020414  2**2
                  CONTENTS, READONLY, DEBUGGING

Disassembly of section .text:

08000198 <__do_global_dtors_aux>:
 8000198:	b510      	push	{r4, lr}
 800019a:	4c05      	ldr	r4, [pc, #20]	; (80001b0 <__do_global_dtors_aux+0x18>)
 800019c:	7823      	ldrb	r3, [r4, #0]
 800019e:	b933      	cbnz	r3, 80001ae <__do_global_dtors_aux+0x16>
 80001a0:	4b04      	ldr	r3, [pc, #16]	; (80001b4 <__do_global_dtors_aux+0x1c>)
 80001a2:	b113      	cbz	r3, 80001aa <__do_global_dtors_aux+0x12>
 80001a4:	4804      	ldr	r0, [pc, #16]	; (80001b8 <__do_global_dtors_aux+0x20>)
 80001a6:	f3af 8000 	nop.w
 80001aa:	2301      	movs	r3, #1
 80001ac:	7023      	strb	r3, [r4, #0]
 80001ae:	bd10      	pop	{r4, pc}
 80001b0:	20000368 	.word	0x20000368
 80001b4:	00000000 	.word	0x00000000
 80001b8:	0800a8ec 	.word	0x0800a8ec

080001bc <frame_dummy>:
 80001bc:	b508      	push	{r3, lr}
 80001be:	4b03      	ldr	r3, [pc, #12]	; (80001cc <frame_dummy+0x10>)
 80001c0:	b11b      	cbz	r3, 80001ca <frame_dummy+0xe>
 80001c2:	4903      	ldr	r1, [pc, #12]	; (80001d0 <frame_dummy+0x14>)
 80001c4:	4803      	ldr	r0, [pc, #12]	; (80001d4 <frame_dummy+0x18>)
 80001c6:	f3af 8000 	nop.w
 80001ca:	bd08      	pop	{r3, pc}
 80001cc:	00000000 	.word	0x00000000
 80001d0:	2000036c 	.word	0x2000036c
 80001d4:	0800a8ec 	.word	0x0800a8ec

080001d8 <strlen>:
 80001d8:	4603      	mov	r3, r0
 80001da:	f813 2b01 	ldrb.w	r2, [r3], #1
 80001de:	2a00      	cmp	r2, #0
 80001e0:	d1fb      	bne.n	80001da <strlen+0x2>
 80001e2:	1a18      	subs	r0, r3, r0
 80001e4:	3801      	subs	r0, #1
 80001e6:	4770      	bx	lr

080001e8 <__aeabi_drsub>:
 80001e8:	f081 4100 	eor.w	r1, r1, #2147483648	; 0x80000000
 80001ec:	e002      	b.n	80001f4 <__adddf3>
 80001ee:	bf00      	nop

080001f0 <__aeabi_dsub>:
 80001f0:	f083 4300 	eor.w	r3, r3, #2147483648	; 0x80000000

080001f4 <__adddf3>:
 80001f4:	b530      	push	{r4, r5, lr}
 80001f6:	ea4f 0441 	mov.w	r4, r1, lsl #1
 80001fa:	ea4f 0543 	mov.w	r5, r3, lsl #1
 80001fe:	ea94 0f05 	teq	r4, r5
 8000202:	bf08      	it	eq
 8000204:	ea90 0f02 	teqeq	r0, r2
 8000208:	bf1f      	itttt	ne
 800020a:	ea54 0c00 	orrsne.w	ip, r4, r0
 800020e:	ea55 0c02 	orrsne.w	ip, r5, r2
 8000212:	ea7f 5c64 	mvnsne.w	ip, r4, asr #21
 8000216:	ea7f 5c65 	mvnsne.w	ip, r5, asr #21
 800021a:	f000 80e2 	beq.w	80003e2 <__adddf3+0x1ee>
 800021e:	ea4f 5454 	mov.w	r4, r4, lsr #21
 8000222:	ebd4 5555 	rsbs	r5, r4, r5, lsr #21
 8000226:	bfb8      	it	lt
 8000228:	426d      	neglt	r5, r5
 800022a:	dd0c      	ble.n	8000246 <__adddf3+0x52>
 800022c:	442c      	add	r4, r5
 800022e:	ea80 0202 	eor.w	r2, r0, r2
 8000232:	ea81 0303 	eor.w	r3, r1, r3
 8000236:	ea82 0000 	eor.w	r0, r2, r0
 800023a:	ea83 0101 	eor.w	r1, r3, r1
 800023e:	ea80 0202 	eor.w	r2, r0, r2
 8000242:	ea81 0303 	eor.w	r3, r1, r3
 8000246:	2d36      	cmp	r5, #54	; 0x36
 8000248:	bf88      	it	hi
 800024a:	bd30      	pophi	{r4, r5, pc}
 800024c:	f011 4f00 	tst.w	r1, #2147483648	; 0x80000000
 8000250:	ea4f 3101 	mov.w	r1, r1, lsl #12
 8000254:	f44f 1c80 	mov.w	ip, #1048576	; 0x100000
 8000258:	ea4c 3111 	orr.w	r1, ip, r1, lsr #12
 800025c:	d002      	beq.n	8000264 <__adddf3+0x70>
 800025e:	4240      	negs	r0, r0
 8000260:	eb61 0141 	sbc.w	r1, r1, r1, lsl #1
 8000264:	f013 4f00 	tst.w	r3, #2147483648	; 0x80000000
 8000268:	ea4f 3303 	mov.w	r3, r3, lsl #12
 800026c:	ea4c 3313 	orr.w	r3, ip, r3, lsr #12
 8000270:	d002      	beq.n	8000278 <__adddf3+0x84>
 8000272:	4252      	negs	r2, r2
 8000274:	eb63 0343 	sbc.w	r3, r3, r3, lsl #1
 8000278:	ea94 0f05 	teq	r4, r5
 800027c:	f000 80a7 	beq.w	80003ce <__adddf3+0x1da>
 8000280:	f1a4 0401 	sub.w	r4, r4, #1
 8000284:	f1d5 0e20 	rsbs	lr, r5, #32
 8000288:	db0d      	blt.n	80002a6 <__adddf3+0xb2>
 800028a:	fa02 fc0e 	lsl.w	ip, r2, lr
 800028e:	fa22 f205 	lsr.w	r2, r2, r5
 8000292:	1880      	adds	r0, r0, r2
 8000294:	f141 0100 	adc.w	r1, r1, #0
 8000298:	fa03 f20e 	lsl.w	r2, r3, lr
 800029c:	1880      	adds	r0, r0, r2
 800029e:	fa43 f305 	asr.w	r3, r3, r5
 80002a2:	4159      	adcs	r1, r3
 80002a4:	e00e      	b.n	80002c4 <__adddf3+0xd0>
 80002a6:	f1a5 0520 	sub.w	r5, r5, #32
 80002aa:	f10e 0e20 	add.w	lr, lr, #32
 80002ae:	2a01      	cmp	r2, #1
 80002b0:	fa03 fc0e 	lsl.w	ip, r3, lr
 80002b4:	bf28      	it	cs
 80002b6:	f04c 0c02 	orrcs.w	ip, ip, #2
 80002ba:	fa43 f305 	asr.w	r3, r3, r5
 80002be:	18c0      	adds	r0, r0, r3
 80002c0:	eb51 71e3 	adcs.w	r1, r1, r3, asr #31
 80002c4:	f001 4500 	and.w	r5, r1, #2147483648	; 0x80000000
 80002c8:	d507      	bpl.n	80002da <__adddf3+0xe6>
 80002ca:	f04f 0e00 	mov.w	lr, #0
 80002ce:	f1dc 0c00 	rsbs	ip, ip, #0
 80002d2:	eb7e 0000 	sbcs.w	r0, lr, r0
 80002d6:	eb6e 0101 	sbc.w	r1, lr, r1
 80002da:	f5b1 1f80 	cmp.w	r1, #1048576	; 0x100000
 80002de:	d31b      	bcc.n	8000318 <__adddf3+0x124>
 80002e0:	f5b1 1f00 	cmp.w	r1, #2097152	; 0x200000
 80002e4:	d30c      	bcc.n	8000300 <__adddf3+0x10c>
 80002e6:	0849      	lsrs	r1, r1, #1
 80002e8:	ea5f 0030 	movs.w	r0, r0, rrx
 80002ec:	ea4f 0c3c 	mov.w	ip, ip, rrx
 80002f0:	f104 0401 	add.w	r4, r4, #1
 80002f4:	ea4f 5244 	mov.w	r2, r4, lsl #21
 80002f8:	f512 0f80 	cmn.w	r2, #4194304	; 0x400000
 80002fc:	f080 809a 	bcs.w	8000434 <__adddf3+0x240>
 8000300:	f1bc 4f00 	cmp.w	ip, #2147483648	; 0x80000000
 8000304:	bf08      	it	eq
 8000306:	ea5f 0c50 	movseq.w	ip, r0, lsr #1
 800030a:	f150 0000 	adcs.w	r0, r0, #0
 800030e:	eb41 5104 	adc.w	r1, r1, r4, lsl #20
 8000312:	ea41 0105 	orr.w	r1, r1, r5
 8000316:	bd30      	pop	{r4, r5, pc}
 8000318:	ea5f 0c4c 	movs.w	ip, ip, lsl #1
 800031c:	4140      	adcs	r0, r0
 800031e:	eb41 0101 	adc.w	r1, r1, r1
 8000322:	f411 1f80 	tst.w	r1, #1048576	; 0x100000
 8000326:	f1a4 0401 	sub.w	r4, r4, #1
 800032a:	d1e9      	bne.n	8000300 <__adddf3+0x10c>
 800032c:	f091 0f00 	teq	r1, #0
 8000330:	bf04      	itt	eq
 8000332:	4601      	moveq	r1, r0
 8000334:	2000      	moveq	r0, #0
 8000336:	fab1 f381 	clz	r3, r1
 800033a:	bf08      	it	eq
 800033c:	3320      	addeq	r3, #32
 800033e:	f1a3 030b 	sub.w	r3, r3, #11
 8000342:	f1b3 0220 	subs.w	r2, r3, #32
 8000346:	da0c      	bge.n	8000362 <__adddf3+0x16e>
 8000348:	320c      	adds	r2, #12
 800034a:	dd08      	ble.n	800035e <__adddf3+0x16a>
 800034c:	f102 0c14 	add.w	ip, r2, #20
 8000350:	f1c2 020c 	rsb	r2, r2, #12
 8000354:	fa01 f00c 	lsl.w	r0, r1, ip
 8000358:	fa21 f102 	lsr.w	r1, r1, r2
 800035c:	e00c      	b.n	8000378 <__adddf3+0x184>
 800035e:	f102 0214 	add.w	r2, r2, #20
 8000362:	bfd8      	it	le
 8000364:	f1c2 0c20 	rsble	ip, r2, #32
 8000368:	fa01 f102 	lsl.w	r1, r1, r2
 800036c:	fa20 fc0c 	lsr.w	ip, r0, ip
 8000370:	bfdc      	itt	le
 8000372:	ea41 010c 	orrle.w	r1, r1, ip
 8000376:	4090      	lslle	r0, r2
 8000378:	1ae4      	subs	r4, r4, r3
 800037a:	bfa2      	ittt	ge
 800037c:	eb01 5104 	addge.w	r1, r1, r4, lsl #20
 8000380:	4329      	orrge	r1, r5
 8000382:	bd30      	popge	{r4, r5, pc}
 8000384:	ea6f 0404 	mvn.w	r4, r4
 8000388:	3c1f      	subs	r4, #31
 800038a:	da1c      	bge.n	80003c6 <__adddf3+0x1d2>
 800038c:	340c      	adds	r4, #12
 800038e:	dc0e      	bgt.n	80003ae <__adddf3+0x1ba>
 8000390:	f104 0414 	add.w	r4, r4, #20
 8000394:	f1c4 0220 	rsb	r2, r4, #32
 8000398:	fa20 f004 	lsr.w	r0, r0, r4
 800039c:	fa01 f302 	lsl.w	r3, r1, r2
 80003a0:	ea40 0003 	orr.w	r0, r0, r3
 80003a4:	fa21 f304 	lsr.w	r3, r1, r4
 80003a8:	ea45 0103 	orr.w	r1, r5, r3
 80003ac:	bd30      	pop	{r4, r5, pc}
 80003ae:	f1c4 040c 	rsb	r4, r4, #12
 80003b2:	f1c4 0220 	rsb	r2, r4, #32
 80003b6:	fa20 f002 	lsr.w	r0, r0, r2
 80003ba:	fa01 f304 	lsl.w	r3, r1, r4
 80003be:	ea40 0003 	orr.w	r0, r0, r3
 80003c2:	4629      	mov	r1, r5
 80003c4:	bd30      	pop	{r4, r5, pc}
 80003c6:	fa21 f004 	lsr.w	r0, r1, r4
 80003ca:	4629      	mov	r1, r5
 80003cc:	bd30      	pop	{r4, r5, pc}
 80003ce:	f094 0f00 	teq	r4, #0
 80003d2:	f483 1380 	eor.w	r3, r3, #1048576	; 0x100000
 80003d6:	bf06      	itte	eq
 80003d8:	f481 1180 	eoreq.w	r1, r1, #1048576	; 0x100000
 80003dc:	3401      	addeq	r4, #1
 80003de:	3d01      	subne	r5, #1
 80003e0:	e74e      	b.n	8000280 <__adddf3+0x8c>
 80003e2:	ea7f 5c64 	mvns.w	ip, r4, asr #21
 80003e6:	bf18      	it	ne
 80003e8:	ea7f 5c65 	mvnsne.w	ip, r5, asr #21
 80003ec:	d029      	beq.n	8000442 <__adddf3+0x24e>
 80003ee:	ea94 0f05 	teq	r4, r5
 80003f2:	bf08      	it	eq
 80003f4:	ea90 0f02 	teqeq	r0, r2
 80003f8:	d005      	beq.n	8000406 <__adddf3+0x212>
 80003fa:	ea54 0c00 	orrs.w	ip, r4, r0
 80003fe:	bf04      	itt	eq
 8000400:	4619      	moveq	r1, r3
 8000402:	4610      	moveq	r0, r2
 8000404:	bd30      	pop	{r4, r5, pc}
 8000406:	ea91 0f03 	teq	r1, r3
 800040a:	bf1e      	ittt	ne
 800040c:	2100      	movne	r1, #0
 800040e:	2000      	movne	r0, #0
 8000410:	bd30      	popne	{r4, r5, pc}
 8000412:	ea5f 5c54 	movs.w	ip, r4, lsr #21
 8000416:	d105      	bne.n	8000424 <__adddf3+0x230>
 8000418:	0040      	lsls	r0, r0, #1
 800041a:	4149      	adcs	r1, r1
 800041c:	bf28      	it	cs
 800041e:	f041 4100 	orrcs.w	r1, r1, #2147483648	; 0x80000000
 8000422:	bd30      	pop	{r4, r5, pc}
 8000424:	f514 0480 	adds.w	r4, r4, #4194304	; 0x400000
 8000428:	bf3c      	itt	cc
 800042a:	f501 1180 	addcc.w	r1, r1, #1048576	; 0x100000
 800042e:	bd30      	popcc	{r4, r5, pc}
 8000430:	f001 4500 	and.w	r5, r1, #2147483648	; 0x80000000
 8000434:	f045 41fe 	orr.w	r1, r5, #2130706432	; 0x7f000000
 8000438:	f441 0170 	orr.w	r1, r1, #15728640	; 0xf00000
 800043c:	f04f 0000 	mov.w	r0, #0
 8000440:	bd30      	pop	{r4, r5, pc}
 8000442:	ea7f 5c64 	mvns.w	ip, r4, asr #21
 8000446:	bf1a      	itte	ne
 8000448:	4619      	movne	r1, r3
 800044a:	4610      	movne	r0, r2
 800044c:	ea7f 5c65 	mvnseq.w	ip, r5, asr #21
 8000450:	bf1c      	itt	ne
 8000452:	460b      	movne	r3, r1
 8000454:	4602      	movne	r2, r0
 8000456:	ea50 3401 	orrs.w	r4, r0, r1, lsl #12
 800045a:	bf06      	itte	eq
 800045c:	ea52 3503 	orrseq.w	r5, r2, r3, lsl #12
 8000460:	ea91 0f03 	teqeq	r1, r3
 8000464:	f441 2100 	orrne.w	r1, r1, #524288	; 0x80000
 8000468:	bd30      	pop	{r4, r5, pc}
 800046a:	bf00      	nop

0800046c <__aeabi_ui2d>:
 800046c:	f090 0f00 	teq	r0, #0
 8000470:	bf04      	itt	eq
 8000472:	2100      	moveq	r1, #0
 8000474:	4770      	bxeq	lr
 8000476:	b530      	push	{r4, r5, lr}
 8000478:	f44f 6480 	mov.w	r4, #1024	; 0x400
 800047c:	f104 0432 	add.w	r4, r4, #50	; 0x32
 8000480:	f04f 0500 	mov.w	r5, #0
 8000484:	f04f 0100 	mov.w	r1, #0
 8000488:	e750      	b.n	800032c <__adddf3+0x138>
 800048a:	bf00      	nop

0800048c <__aeabi_i2d>:
 800048c:	f090 0f00 	teq	r0, #0
 8000490:	bf04      	itt	eq
 8000492:	2100      	moveq	r1, #0
 8000494:	4770      	bxeq	lr
 8000496:	b530      	push	{r4, r5, lr}
 8000498:	f44f 6480 	mov.w	r4, #1024	; 0x400
 800049c:	f104 0432 	add.w	r4, r4, #50	; 0x32
 80004a0:	f010 4500 	ands.w	r5, r0, #2147483648	; 0x80000000
 80004a4:	bf48      	it	mi
 80004a6:	4240      	negmi	r0, r0
 80004a8:	f04f 0100 	mov.w	r1, #0
 80004ac:	e73e      	b.n	800032c <__adddf3+0x138>
 80004ae:	bf00      	nop

080004b0 <__aeabi_f2d>:
 80004b0:	0042      	lsls	r2, r0, #1
 80004b2:	ea4f 01e2 	mov.w	r1, r2, asr #3
 80004b6:	ea4f 0131 	mov.w	r1, r1, rrx
 80004ba:	ea4f 7002 	mov.w	r0, r2, lsl #28
 80004be:	bf1f      	itttt	ne
 80004c0:	f012 437f 	andsne.w	r3, r2, #4278190080	; 0xff000000
 80004c4:	f093 4f7f 	teqne	r3, #4278190080	; 0xff000000
 80004c8:	f081 5160 	eorne.w	r1, r1, #939524096	; 0x38000000
 80004cc:	4770      	bxne	lr
 80004ce:	f032 427f 	bics.w	r2, r2, #4278190080	; 0xff000000
 80004d2:	bf08      	it	eq
 80004d4:	4770      	bxeq	lr
 80004d6:	f093 4f7f 	teq	r3, #4278190080	; 0xff000000
 80004da:	bf04      	itt	eq
 80004dc:	f441 2100 	orreq.w	r1, r1, #524288	; 0x80000
 80004e0:	4770      	bxeq	lr
 80004e2:	b530      	push	{r4, r5, lr}
 80004e4:	f44f 7460 	mov.w	r4, #896	; 0x380
 80004e8:	f001 4500 	and.w	r5, r1, #2147483648	; 0x80000000
 80004ec:	f021 4100 	bic.w	r1, r1, #2147483648	; 0x80000000
 80004f0:	e71c      	b.n	800032c <__adddf3+0x138>
 80004f2:	bf00      	nop

080004f4 <__aeabi_ul2d>:
 80004f4:	ea50 0201 	orrs.w	r2, r0, r1
 80004f8:	bf08      	it	eq
 80004fa:	4770      	bxeq	lr
 80004fc:	b530      	push	{r4, r5, lr}
 80004fe:	f04f 0500 	mov.w	r5, #0
 8000502:	e00a      	b.n	800051a <__aeabi_l2d+0x16>

08000504 <__aeabi_l2d>:
 8000504:	ea50 0201 	orrs.w	r2, r0, r1
 8000508:	bf08      	it	eq
 800050a:	4770      	bxeq	lr
 800050c:	b530      	push	{r4, r5, lr}
 800050e:	f011 4500 	ands.w	r5, r1, #2147483648	; 0x80000000
 8000512:	d502      	bpl.n	800051a <__aeabi_l2d+0x16>
 8000514:	4240      	negs	r0, r0
 8000516:	eb61 0141 	sbc.w	r1, r1, r1, lsl #1
 800051a:	f44f 6480 	mov.w	r4, #1024	; 0x400
 800051e:	f104 0432 	add.w	r4, r4, #50	; 0x32
 8000522:	ea5f 5c91 	movs.w	ip, r1, lsr #22
 8000526:	f43f aed8 	beq.w	80002da <__adddf3+0xe6>
 800052a:	f04f 0203 	mov.w	r2, #3
 800052e:	ea5f 0cdc 	movs.w	ip, ip, lsr #3
 8000532:	bf18      	it	ne
 8000534:	3203      	addne	r2, #3
 8000536:	ea5f 0cdc 	movs.w	ip, ip, lsr #3
 800053a:	bf18      	it	ne
 800053c:	3203      	addne	r2, #3
 800053e:	eb02 02dc 	add.w	r2, r2, ip, lsr #3
 8000542:	f1c2 0320 	rsb	r3, r2, #32
 8000546:	fa00 fc03 	lsl.w	ip, r0, r3
 800054a:	fa20 f002 	lsr.w	r0, r0, r2
 800054e:	fa01 fe03 	lsl.w	lr, r1, r3
 8000552:	ea40 000e 	orr.w	r0, r0, lr
 8000556:	fa21 f102 	lsr.w	r1, r1, r2
 800055a:	4414      	add	r4, r2
 800055c:	e6bd      	b.n	80002da <__adddf3+0xe6>
 800055e:	bf00      	nop

08000560 <__aeabi_dmul>:
 8000560:	b570      	push	{r4, r5, r6, lr}
 8000562:	f04f 0cff 	mov.w	ip, #255	; 0xff
 8000566:	f44c 6ce0 	orr.w	ip, ip, #1792	; 0x700
 800056a:	ea1c 5411 	ands.w	r4, ip, r1, lsr #20
 800056e:	bf1d      	ittte	ne
 8000570:	ea1c 5513 	andsne.w	r5, ip, r3, lsr #20
 8000574:	ea94 0f0c 	teqne	r4, ip
 8000578:	ea95 0f0c 	teqne	r5, ip
 800057c:	f000 f8de 	bleq	800073c <__aeabi_dmul+0x1dc>
 8000580:	442c      	add	r4, r5
 8000582:	ea81 0603 	eor.w	r6, r1, r3
 8000586:	ea21 514c 	bic.w	r1, r1, ip, lsl #21
 800058a:	ea23 534c 	bic.w	r3, r3, ip, lsl #21
 800058e:	ea50 3501 	orrs.w	r5, r0, r1, lsl #12
 8000592:	bf18      	it	ne
 8000594:	ea52 3503 	orrsne.w	r5, r2, r3, lsl #12
 8000598:	f441 1180 	orr.w	r1, r1, #1048576	; 0x100000
 800059c:	f443 1380 	orr.w	r3, r3, #1048576	; 0x100000
 80005a0:	d038      	beq.n	8000614 <__aeabi_dmul+0xb4>
 80005a2:	fba0 ce02 	umull	ip, lr, r0, r2
 80005a6:	f04f 0500 	mov.w	r5, #0
 80005aa:	fbe1 e502 	umlal	lr, r5, r1, r2
 80005ae:	f006 4200 	and.w	r2, r6, #2147483648	; 0x80000000
 80005b2:	fbe0 e503 	umlal	lr, r5, r0, r3
 80005b6:	f04f 0600 	mov.w	r6, #0
 80005ba:	fbe1 5603 	umlal	r5, r6, r1, r3
 80005be:	f09c 0f00 	teq	ip, #0
 80005c2:	bf18      	it	ne
 80005c4:	f04e 0e01 	orrne.w	lr, lr, #1
 80005c8:	f1a4 04ff 	sub.w	r4, r4, #255	; 0xff
 80005cc:	f5b6 7f00 	cmp.w	r6, #512	; 0x200
 80005d0:	f564 7440 	sbc.w	r4, r4, #768	; 0x300
 80005d4:	d204      	bcs.n	80005e0 <__aeabi_dmul+0x80>
 80005d6:	ea5f 0e4e 	movs.w	lr, lr, lsl #1
 80005da:	416d      	adcs	r5, r5
 80005dc:	eb46 0606 	adc.w	r6, r6, r6
 80005e0:	ea42 21c6 	orr.w	r1, r2, r6, lsl #11
 80005e4:	ea41 5155 	orr.w	r1, r1, r5, lsr #21
 80005e8:	ea4f 20c5 	mov.w	r0, r5, lsl #11
 80005ec:	ea40 505e 	orr.w	r0, r0, lr, lsr #21
 80005f0:	ea4f 2ece 	mov.w	lr, lr, lsl #11
 80005f4:	f1b4 0cfd 	subs.w	ip, r4, #253	; 0xfd
 80005f8:	bf88      	it	hi
 80005fa:	f5bc 6fe0 	cmphi.w	ip, #1792	; 0x700
 80005fe:	d81e      	bhi.n	800063e <__aeabi_dmul+0xde>
 8000600:	f1be 4f00 	cmp.w	lr, #2147483648	; 0x80000000
 8000604:	bf08      	it	eq
 8000606:	ea5f 0e50 	movseq.w	lr, r0, lsr #1
 800060a:	f150 0000 	adcs.w	r0, r0, #0
 800060e:	eb41 5104 	adc.w	r1, r1, r4, lsl #20
 8000612:	bd70      	pop	{r4, r5, r6, pc}
 8000614:	f006 4600 	and.w	r6, r6, #2147483648	; 0x80000000
 8000618:	ea46 0101 	orr.w	r1, r6, r1
 800061c:	ea40 0002 	orr.w	r0, r0, r2
 8000620:	ea81 0103 	eor.w	r1, r1, r3
 8000624:	ebb4 045c 	subs.w	r4, r4, ip, lsr #1
 8000628:	bfc2      	ittt	gt
 800062a:	ebd4 050c 	rsbsgt	r5, r4, ip
 800062e:	ea41 5104 	orrgt.w	r1, r1, r4, lsl #20
 8000632:	bd70      	popgt	{r4, r5, r6, pc}
 8000634:	f441 1180 	orr.w	r1, r1, #1048576	; 0x100000
 8000638:	f04f 0e00 	mov.w	lr, #0
 800063c:	3c01      	subs	r4, #1
 800063e:	f300 80ab 	bgt.w	8000798 <__aeabi_dmul+0x238>
 8000642:	f114 0f36 	cmn.w	r4, #54	; 0x36
 8000646:	bfde      	ittt	le
 8000648:	2000      	movle	r0, #0
 800064a:	f001 4100 	andle.w	r1, r1, #2147483648	; 0x80000000
 800064e:	bd70      	pople	{r4, r5, r6, pc}
 8000650:	f1c4 0400 	rsb	r4, r4, #0
 8000654:	3c20      	subs	r4, #32
 8000656:	da35      	bge.n	80006c4 <__aeabi_dmul+0x164>
 8000658:	340c      	adds	r4, #12
 800065a:	dc1b      	bgt.n	8000694 <__aeabi_dmul+0x134>
 800065c:	f104 0414 	add.w	r4, r4, #20
 8000660:	f1c4 0520 	rsb	r5, r4, #32
 8000664:	fa00 f305 	lsl.w	r3, r0, r5
 8000668:	fa20 f004 	lsr.w	r0, r0, r4
 800066c:	fa01 f205 	lsl.w	r2, r1, r5
 8000670:	ea40 0002 	orr.w	r0, r0, r2
 8000674:	f001 4200 	and.w	r2, r1, #2147483648	; 0x80000000
 8000678:	f021 4100 	bic.w	r1, r1, #2147483648	; 0x80000000
 800067c:	eb10 70d3 	adds.w	r0, r0, r3, lsr #31
 8000680:	fa21 f604 	lsr.w	r6, r1, r4
 8000684:	eb42 0106 	adc.w	r1, r2, r6
 8000688:	ea5e 0e43 	orrs.w	lr, lr, r3, lsl #1
 800068c:	bf08      	it	eq
 800068e:	ea20 70d3 	biceq.w	r0, r0, r3, lsr #31
 8000692:	bd70      	pop	{r4, r5, r6, pc}
 8000694:	f1c4 040c 	rsb	r4, r4, #12
 8000698:	f1c4 0520 	rsb	r5, r4, #32
 800069c:	fa00 f304 	lsl.w	r3, r0, r4
 80006a0:	fa20 f005 	lsr.w	r0, r0, r5
 80006a4:	fa01 f204 	lsl.w	r2, r1, r4
 80006a8:	ea40 0002 	orr.w	r0, r0, r2
 80006ac:	f001 4100 	and.w	r1, r1, #2147483648	; 0x80000000
 80006b0:	eb10 70d3 	adds.w	r0, r0, r3, lsr #31
 80006b4:	f141 0100 	adc.w	r1, r1, #0
 80006b8:	ea5e 0e43 	orrs.w	lr, lr, r3, lsl #1
 80006bc:	bf08      	it	eq
 80006be:	ea20 70d3 	biceq.w	r0, r0, r3, lsr #31
 80006c2:	bd70      	pop	{r4, r5, r6, pc}
 80006c4:	f1c4 0520 	rsb	r5, r4, #32
 80006c8:	fa00 f205 	lsl.w	r2, r0, r5
 80006cc:	ea4e 0e02 	orr.w	lr, lr, r2
 80006d0:	fa20 f304 	lsr.w	r3, r0, r4
 80006d4:	fa01 f205 	lsl.w	r2, r1, r5
 80006d8:	ea43 0302 	orr.w	r3, r3, r2
 80006dc:	fa21 f004 	lsr.w	r0, r1, r4
 80006e0:	f001 4100 	and.w	r1, r1, #2147483648	; 0x80000000
 80006e4:	fa21 f204 	lsr.w	r2, r1, r4
 80006e8:	ea20 0002 	bic.w	r0, r0, r2
 80006ec:	eb00 70d3 	add.w	r0, r0, r3, lsr #31
 80006f0:	ea5e 0e43 	orrs.w	lr, lr, r3, lsl #1
 80006f4:	bf08      	it	eq
 80006f6:	ea20 70d3 	biceq.w	r0, r0, r3, lsr #31
 80006fa:	bd70      	pop	{r4, r5, r6, pc}
 80006fc:	f094 0f00 	teq	r4, #0
 8000700:	d10f      	bne.n	8000722 <__aeabi_dmul+0x1c2>
 8000702:	f001 4600 	and.w	r6, r1, #2147483648	; 0x80000000
 8000706:	0040      	lsls	r0, r0, #1
 8000708:	eb41 0101 	adc.w	r1, r1, r1
 800070c:	f411 1f80 	tst.w	r1, #1048576	; 0x100000
 8000710:	bf08      	it	eq
 8000712:	3c01      	subeq	r4, #1
 8000714:	d0f7      	beq.n	8000706 <__aeabi_dmul+0x1a6>
 8000716:	ea41 0106 	orr.w	r1, r1, r6
 800071a:	f095 0f00 	teq	r5, #0
 800071e:	bf18      	it	ne
 8000720:	4770      	bxne	lr
 8000722:	f003 4600 	and.w	r6, r3, #2147483648	; 0x80000000
 8000726:	0052      	lsls	r2, r2, #1
 8000728:	eb43 0303 	adc.w	r3, r3, r3
 800072c:	f413 1f80 	tst.w	r3, #1048576	; 0x100000
 8000730:	bf08      	it	eq
 8000732:	3d01      	subeq	r5, #1
 8000734:	d0f7      	beq.n	8000726 <__aeabi_dmul+0x1c6>
 8000736:	ea43 0306 	orr.w	r3, r3, r6
 800073a:	4770      	bx	lr
 800073c:	ea94 0f0c 	teq	r4, ip
 8000740:	ea0c 5513 	and.w	r5, ip, r3, lsr #20
 8000744:	bf18      	it	ne
 8000746:	ea95 0f0c 	teqne	r5, ip
 800074a:	d00c      	beq.n	8000766 <__aeabi_dmul+0x206>
 800074c:	ea50 0641 	orrs.w	r6, r0, r1, lsl #1
 8000750:	bf18      	it	ne
 8000752:	ea52 0643 	orrsne.w	r6, r2, r3, lsl #1
 8000756:	d1d1      	bne.n	80006fc <__aeabi_dmul+0x19c>
 8000758:	ea81 0103 	eor.w	r1, r1, r3
 800075c:	f001 4100 	and.w	r1, r1, #2147483648	; 0x80000000
 8000760:	f04f 0000 	mov.w	r0, #0
 8000764:	bd70      	pop	{r4, r5, r6, pc}
 8000766:	ea50 0641 	orrs.w	r6, r0, r1, lsl #1
 800076a:	bf06      	itte	eq
 800076c:	4610      	moveq	r0, r2
 800076e:	4619      	moveq	r1, r3
 8000770:	ea52 0643 	orrsne.w	r6, r2, r3, lsl #1
 8000774:	d019      	beq.n	80007aa <__aeabi_dmul+0x24a>
 8000776:	ea94 0f0c 	teq	r4, ip
 800077a:	d102      	bne.n	8000782 <__aeabi_dmul+0x222>
 800077c:	ea50 3601 	orrs.w	r6, r0, r1, lsl #12
 8000780:	d113      	bne.n	80007aa <__aeabi_dmul+0x24a>
 8000782:	ea95 0f0c 	teq	r5, ip
 8000786:	d105      	bne.n	8000794 <__aeabi_dmul+0x234>
 8000788:	ea52 3603 	orrs.w	r6, r2, r3, lsl #12
 800078c:	bf1c      	itt	ne
 800078e:	4610      	movne	r0, r2
 8000790:	4619      	movne	r1, r3
 8000792:	d10a      	bne.n	80007aa <__aeabi_dmul+0x24a>
 8000794:	ea81 0103 	eor.w	r1, r1, r3
 8000798:	f001 4100 	and.w	r1, r1, #2147483648	; 0x80000000
 800079c:	f041 41fe 	orr.w	r1, r1, #2130706432	; 0x7f000000
 80007a0:	f441 0170 	orr.w	r1, r1, #15728640	; 0xf00000
 80007a4:	f04f 0000 	mov.w	r0, #0
 80007a8:	bd70      	pop	{r4, r5, r6, pc}
 80007aa:	f041 41fe 	orr.w	r1, r1, #2130706432	; 0x7f000000
 80007ae:	f441 0178 	orr.w	r1, r1, #16252928	; 0xf80000
 80007b2:	bd70      	pop	{r4, r5, r6, pc}

080007b4 <__aeabi_ddiv>:
 80007b4:	b570      	push	{r4, r5, r6, lr}
 80007b6:	f04f 0cff 	mov.w	ip, #255	; 0xff
 80007ba:	f44c 6ce0 	orr.w	ip, ip, #1792	; 0x700
 80007be:	ea1c 5411 	ands.w	r4, ip, r1, lsr #20
 80007c2:	bf1d      	ittte	ne
 80007c4:	ea1c 5513 	andsne.w	r5, ip, r3, lsr #20
 80007c8:	ea94 0f0c 	teqne	r4, ip
 80007cc:	ea95 0f0c 	teqne	r5, ip
 80007d0:	f000 f8a7 	bleq	8000922 <__aeabi_ddiv+0x16e>
 80007d4:	eba4 0405 	sub.w	r4, r4, r5
 80007d8:	ea81 0e03 	eor.w	lr, r1, r3
 80007dc:	ea52 3503 	orrs.w	r5, r2, r3, lsl #12
 80007e0:	ea4f 3101 	mov.w	r1, r1, lsl #12
 80007e4:	f000 8088 	beq.w	80008f8 <__aeabi_ddiv+0x144>
 80007e8:	ea4f 3303 	mov.w	r3, r3, lsl #12
 80007ec:	f04f 5580 	mov.w	r5, #268435456	; 0x10000000
 80007f0:	ea45 1313 	orr.w	r3, r5, r3, lsr #4
 80007f4:	ea43 6312 	orr.w	r3, r3, r2, lsr #24
 80007f8:	ea4f 2202 	mov.w	r2, r2, lsl #8
 80007fc:	ea45 1511 	orr.w	r5, r5, r1, lsr #4
 8000800:	ea45 6510 	orr.w	r5, r5, r0, lsr #24
 8000804:	ea4f 2600 	mov.w	r6, r0, lsl #8
 8000808:	f00e 4100 	and.w	r1, lr, #2147483648	; 0x80000000
 800080c:	429d      	cmp	r5, r3
 800080e:	bf08      	it	eq
 8000810:	4296      	cmpeq	r6, r2
 8000812:	f144 04fd 	adc.w	r4, r4, #253	; 0xfd
 8000816:	f504 7440 	add.w	r4, r4, #768	; 0x300
 800081a:	d202      	bcs.n	8000822 <__aeabi_ddiv+0x6e>
 800081c:	085b      	lsrs	r3, r3, #1
 800081e:	ea4f 0232 	mov.w	r2, r2, rrx
 8000822:	1ab6      	subs	r6, r6, r2
 8000824:	eb65 0503 	sbc.w	r5, r5, r3
 8000828:	085b      	lsrs	r3, r3, #1
 800082a:	ea4f 0232 	mov.w	r2, r2, rrx
 800082e:	f44f 1080 	mov.w	r0, #1048576	; 0x100000
 8000832:	f44f 2c00 	mov.w	ip, #524288	; 0x80000
 8000836:	ebb6 0e02 	subs.w	lr, r6, r2
 800083a:	eb75 0e03 	sbcs.w	lr, r5, r3
 800083e:	bf22      	ittt	cs
 8000840:	1ab6      	subcs	r6, r6, r2
 8000842:	4675      	movcs	r5, lr
 8000844:	ea40 000c 	orrcs.w	r0, r0, ip
 8000848:	085b      	lsrs	r3, r3, #1
 800084a:	ea4f 0232 	mov.w	r2, r2, rrx
 800084e:	ebb6 0e02 	subs.w	lr, r6, r2
 8000852:	eb75 0e03 	sbcs.w	lr, r5, r3
 8000856:	bf22      	ittt	cs
 8000858:	1ab6      	subcs	r6, r6, r2
 800085a:	4675      	movcs	r5, lr
 800085c:	ea40 005c 	orrcs.w	r0, r0, ip, lsr #1
 8000860:	085b      	lsrs	r3, r3, #1
 8000862:	ea4f 0232 	mov.w	r2, r2, rrx
 8000866:	ebb6 0e02 	subs.w	lr, r6, r2
 800086a:	eb75 0e03 	sbcs.w	lr, r5, r3
 800086e:	bf22      	ittt	cs
 8000870:	1ab6      	subcs	r6, r6, r2
 8000872:	4675      	movcs	r5, lr
 8000874:	ea40 009c 	orrcs.w	r0, r0, ip, lsr #2
 8000878:	085b      	lsrs	r3, r3, #1
 800087a:	ea4f 0232 	mov.w	r2, r2, rrx
 800087e:	ebb6 0e02 	subs.w	lr, r6, r2
 8000882:	eb75 0e03 	sbcs.w	lr, r5, r3
 8000886:	bf22      	ittt	cs
 8000888:	1ab6      	subcs	r6, r6, r2
 800088a:	4675      	movcs	r5, lr
 800088c:	ea40 00dc 	orrcs.w	r0, r0, ip, lsr #3
 8000890:	ea55 0e06 	orrs.w	lr, r5, r6
 8000894:	d018      	beq.n	80008c8 <__aeabi_ddiv+0x114>
 8000896:	ea4f 1505 	mov.w	r5, r5, lsl #4
 800089a:	ea45 7516 	orr.w	r5, r5, r6, lsr #28
 800089e:	ea4f 1606 	mov.w	r6, r6, lsl #4
 80008a2:	ea4f 03c3 	mov.w	r3, r3, lsl #3
 80008a6:	ea43 7352 	orr.w	r3, r3, r2, lsr #29
 80008aa:	ea4f 02c2 	mov.w	r2, r2, lsl #3
 80008ae:	ea5f 1c1c 	movs.w	ip, ip, lsr #4
 80008b2:	d1c0      	bne.n	8000836 <__aeabi_ddiv+0x82>
 80008b4:	f411 1f80 	tst.w	r1, #1048576	; 0x100000
 80008b8:	d10b      	bne.n	80008d2 <__aeabi_ddiv+0x11e>
 80008ba:	ea41 0100 	orr.w	r1, r1, r0
 80008be:	f04f 0000 	mov.w	r0, #0
 80008c2:	f04f 4c00 	mov.w	ip, #2147483648	; 0x80000000
 80008c6:	e7b6      	b.n	8000836 <__aeabi_ddiv+0x82>
 80008c8:	f411 1f80 	tst.w	r1, #1048576	; 0x100000
 80008cc:	bf04      	itt	eq
 80008ce:	4301      	orreq	r1, r0
 80008d0:	2000      	moveq	r0, #0
 80008d2:	f1b4 0cfd 	subs.w	ip, r4, #253	; 0xfd
 80008d6:	bf88      	it	hi
 80008d8:	f5bc 6fe0 	cmphi.w	ip, #1792	; 0x700
 80008dc:	f63f aeaf 	bhi.w	800063e <__aeabi_dmul+0xde>
 80008e0:	ebb5 0c03 	subs.w	ip, r5, r3
 80008e4:	bf04      	itt	eq
 80008e6:	ebb6 0c02 	subseq.w	ip, r6, r2
 80008ea:	ea5f 0c50 	movseq.w	ip, r0, lsr #1
 80008ee:	f150 0000 	adcs.w	r0, r0, #0
 80008f2:	eb41 5104 	adc.w	r1, r1, r4, lsl #20
 80008f6:	bd70      	pop	{r4, r5, r6, pc}
 80008f8:	f00e 4e00 	and.w	lr, lr, #2147483648	; 0x80000000
 80008fc:	ea4e 3111 	orr.w	r1, lr, r1, lsr #12
 8000900:	eb14 045c 	adds.w	r4, r4, ip, lsr #1
 8000904:	bfc2      	ittt	gt
 8000906:	ebd4 050c 	rsbsgt	r5, r4, ip
 800090a:	ea41 5104 	orrgt.w	r1, r1, r4, lsl #20
 800090e:	bd70      	popgt	{r4, r5, r6, pc}
 8000910:	f441 1180 	orr.w	r1, r1, #1048576	; 0x100000
 8000914:	f04f 0e00 	mov.w	lr, #0
 8000918:	3c01      	subs	r4, #1
 800091a:	e690      	b.n	800063e <__aeabi_dmul+0xde>
 800091c:	ea45 0e06 	orr.w	lr, r5, r6
 8000920:	e68d      	b.n	800063e <__aeabi_dmul+0xde>
 8000922:	ea0c 5513 	and.w	r5, ip, r3, lsr #20
 8000926:	ea94 0f0c 	teq	r4, ip
 800092a:	bf08      	it	eq
 800092c:	ea95 0f0c 	teqeq	r5, ip
 8000930:	f43f af3b 	beq.w	80007aa <__aeabi_dmul+0x24a>
 8000934:	ea94 0f0c 	teq	r4, ip
 8000938:	d10a      	bne.n	8000950 <__aeabi_ddiv+0x19c>
 800093a:	ea50 3401 	orrs.w	r4, r0, r1, lsl #12
 800093e:	f47f af34 	bne.w	80007aa <__aeabi_dmul+0x24a>
 8000942:	ea95 0f0c 	teq	r5, ip
 8000946:	f47f af25 	bne.w	8000794 <__aeabi_dmul+0x234>
 800094a:	4610      	mov	r0, r2
 800094c:	4619      	mov	r1, r3
 800094e:	e72c      	b.n	80007aa <__aeabi_dmul+0x24a>
 8000950:	ea95 0f0c 	teq	r5, ip
 8000954:	d106      	bne.n	8000964 <__aeabi_ddiv+0x1b0>
 8000956:	ea52 3503 	orrs.w	r5, r2, r3, lsl #12
 800095a:	f43f aefd 	beq.w	8000758 <__aeabi_dmul+0x1f8>
 800095e:	4610      	mov	r0, r2
 8000960:	4619      	mov	r1, r3
 8000962:	e722      	b.n	80007aa <__aeabi_dmul+0x24a>
 8000964:	ea50 0641 	orrs.w	r6, r0, r1, lsl #1
 8000968:	bf18      	it	ne
 800096a:	ea52 0643 	orrsne.w	r6, r2, r3, lsl #1
 800096e:	f47f aec5 	bne.w	80006fc <__aeabi_dmul+0x19c>
 8000972:	ea50 0441 	orrs.w	r4, r0, r1, lsl #1
 8000976:	f47f af0d 	bne.w	8000794 <__aeabi_dmul+0x234>
 800097a:	ea52 0543 	orrs.w	r5, r2, r3, lsl #1
 800097e:	f47f aeeb 	bne.w	8000758 <__aeabi_dmul+0x1f8>
 8000982:	e712      	b.n	80007aa <__aeabi_dmul+0x24a>

08000984 <__gedf2>:
 8000984:	f04f 3cff 	mov.w	ip, #4294967295
 8000988:	e006      	b.n	8000998 <__cmpdf2+0x4>
 800098a:	bf00      	nop

0800098c <__ledf2>:
 800098c:	f04f 0c01 	mov.w	ip, #1
 8000990:	e002      	b.n	8000998 <__cmpdf2+0x4>
 8000992:	bf00      	nop

08000994 <__cmpdf2>:
 8000994:	f04f 0c01 	mov.w	ip, #1
 8000998:	f84d cd04 	str.w	ip, [sp, #-4]!
 800099c:	ea4f 0c41 	mov.w	ip, r1, lsl #1
 80009a0:	ea7f 5c6c 	mvns.w	ip, ip, asr #21
 80009a4:	ea4f 0c43 	mov.w	ip, r3, lsl #1
 80009a8:	bf18      	it	ne
 80009aa:	ea7f 5c6c 	mvnsne.w	ip, ip, asr #21
 80009ae:	d01b      	beq.n	80009e8 <__cmpdf2+0x54>
 80009b0:	b001      	add	sp, #4
 80009b2:	ea50 0c41 	orrs.w	ip, r0, r1, lsl #1
 80009b6:	bf0c      	ite	eq
 80009b8:	ea52 0c43 	orrseq.w	ip, r2, r3, lsl #1
 80009bc:	ea91 0f03 	teqne	r1, r3
 80009c0:	bf02      	ittt	eq
 80009c2:	ea90 0f02 	teqeq	r0, r2
 80009c6:	2000      	moveq	r0, #0
 80009c8:	4770      	bxeq	lr
 80009ca:	f110 0f00 	cmn.w	r0, #0
 80009ce:	ea91 0f03 	teq	r1, r3
 80009d2:	bf58      	it	pl
 80009d4:	4299      	cmppl	r1, r3
 80009d6:	bf08      	it	eq
 80009d8:	4290      	cmpeq	r0, r2
 80009da:	bf2c      	ite	cs
 80009dc:	17d8      	asrcs	r0, r3, #31
 80009de:	ea6f 70e3 	mvncc.w	r0, r3, asr #31
 80009e2:	f040 0001 	orr.w	r0, r0, #1
 80009e6:	4770      	bx	lr
 80009e8:	ea4f 0c41 	mov.w	ip, r1, lsl #1
 80009ec:	ea7f 5c6c 	mvns.w	ip, ip, asr #21
 80009f0:	d102      	bne.n	80009f8 <__cmpdf2+0x64>
 80009f2:	ea50 3c01 	orrs.w	ip, r0, r1, lsl #12
 80009f6:	d107      	bne.n	8000a08 <__cmpdf2+0x74>
 80009f8:	ea4f 0c43 	mov.w	ip, r3, lsl #1
 80009fc:	ea7f 5c6c 	mvns.w	ip, ip, asr #21
 8000a00:	d1d6      	bne.n	80009b0 <__cmpdf2+0x1c>
 8000a02:	ea52 3c03 	orrs.w	ip, r2, r3, lsl #12
 8000a06:	d0d3      	beq.n	80009b0 <__cmpdf2+0x1c>
 8000a08:	f85d 0b04 	ldr.w	r0, [sp], #4
 8000a0c:	4770      	bx	lr
 8000a0e:	bf00      	nop

08000a10 <__aeabi_cdrcmple>:
 8000a10:	4684      	mov	ip, r0
 8000a12:	4610      	mov	r0, r2
 8000a14:	4662      	mov	r2, ip
 8000a16:	468c      	mov	ip, r1
 8000a18:	4619      	mov	r1, r3
 8000a1a:	4663      	mov	r3, ip
 8000a1c:	e000      	b.n	8000a20 <__aeabi_cdcmpeq>
 8000a1e:	bf00      	nop

08000a20 <__aeabi_cdcmpeq>:
 8000a20:	b501      	push	{r0, lr}
 8000a22:	f7ff ffb7 	bl	8000994 <__cmpdf2>
 8000a26:	2800      	cmp	r0, #0
 8000a28:	bf48      	it	mi
 8000a2a:	f110 0f00 	cmnmi.w	r0, #0
 8000a2e:	bd01      	pop	{r0, pc}

08000a30 <__aeabi_dcmpeq>:
 8000a30:	f84d ed08 	str.w	lr, [sp, #-8]!
 8000a34:	f7ff fff4 	bl	8000a20 <__aeabi_cdcmpeq>
 8000a38:	bf0c      	ite	eq
 8000a3a:	2001      	moveq	r0, #1
 8000a3c:	2000      	movne	r0, #0
 8000a3e:	f85d fb08 	ldr.w	pc, [sp], #8
 8000a42:	bf00      	nop

08000a44 <__aeabi_dcmplt>:
 8000a44:	f84d ed08 	str.w	lr, [sp, #-8]!
 8000a48:	f7ff ffea 	bl	8000a20 <__aeabi_cdcmpeq>
 8000a4c:	bf34      	ite	cc
 8000a4e:	2001      	movcc	r0, #1
 8000a50:	2000      	movcs	r0, #0
 8000a52:	f85d fb08 	ldr.w	pc, [sp], #8
 8000a56:	bf00      	nop

08000a58 <__aeabi_dcmple>:
 8000a58:	f84d ed08 	str.w	lr, [sp, #-8]!
 8000a5c:	f7ff ffe0 	bl	8000a20 <__aeabi_cdcmpeq>
 8000a60:	bf94      	ite	ls
 8000a62:	2001      	movls	r0, #1
 8000a64:	2000      	movhi	r0, #0
 8000a66:	f85d fb08 	ldr.w	pc, [sp], #8
 8000a6a:	bf00      	nop

08000a6c <__aeabi_dcmpge>:
 8000a6c:	f84d ed08 	str.w	lr, [sp, #-8]!
 8000a70:	f7ff ffce 	bl	8000a10 <__aeabi_cdrcmple>
 8000a74:	bf94      	ite	ls
 8000a76:	2001      	movls	r0, #1
 8000a78:	2000      	movhi	r0, #0
 8000a7a:	f85d fb08 	ldr.w	pc, [sp], #8
 8000a7e:	bf00      	nop

08000a80 <__aeabi_dcmpgt>:
 8000a80:	f84d ed08 	str.w	lr, [sp, #-8]!
 8000a84:	f7ff ffc4 	bl	8000a10 <__aeabi_cdrcmple>
 8000a88:	bf34      	ite	cc
 8000a8a:	2001      	movcc	r0, #1
 8000a8c:	2000      	movcs	r0, #0
 8000a8e:	f85d fb08 	ldr.w	pc, [sp], #8
 8000a92:	bf00      	nop

08000a94 <__aeabi_dcmpun>:
 8000a94:	ea4f 0c41 	mov.w	ip, r1, lsl #1
 8000a98:	ea7f 5c6c 	mvns.w	ip, ip, asr #21
 8000a9c:	d102      	bne.n	8000aa4 <__aeabi_dcmpun+0x10>
 8000a9e:	ea50 3c01 	orrs.w	ip, r0, r1, lsl #12
 8000aa2:	d10a      	bne.n	8000aba <__aeabi_dcmpun+0x26>
 8000aa4:	ea4f 0c43 	mov.w	ip, r3, lsl #1
 8000aa8:	ea7f 5c6c 	mvns.w	ip, ip, asr #21
 8000aac:	d102      	bne.n	8000ab4 <__aeabi_dcmpun+0x20>
 8000aae:	ea52 3c03 	orrs.w	ip, r2, r3, lsl #12
 8000ab2:	d102      	bne.n	8000aba <__aeabi_dcmpun+0x26>
 8000ab4:	f04f 0000 	mov.w	r0, #0
 8000ab8:	4770      	bx	lr
 8000aba:	f04f 0001 	mov.w	r0, #1
 8000abe:	4770      	bx	lr

08000ac0 <__aeabi_d2iz>:
 8000ac0:	ea4f 0241 	mov.w	r2, r1, lsl #1
 8000ac4:	f512 1200 	adds.w	r2, r2, #2097152	; 0x200000
 8000ac8:	d215      	bcs.n	8000af6 <__aeabi_d2iz+0x36>
 8000aca:	d511      	bpl.n	8000af0 <__aeabi_d2iz+0x30>
 8000acc:	f46f 7378 	mvn.w	r3, #992	; 0x3e0
 8000ad0:	ebb3 5262 	subs.w	r2, r3, r2, asr #21
 8000ad4:	d912      	bls.n	8000afc <__aeabi_d2iz+0x3c>
 8000ad6:	ea4f 23c1 	mov.w	r3, r1, lsl #11
 8000ada:	f043 4300 	orr.w	r3, r3, #2147483648	; 0x80000000
 8000ade:	ea43 5350 	orr.w	r3, r3, r0, lsr #21
 8000ae2:	f011 4f00 	tst.w	r1, #2147483648	; 0x80000000
 8000ae6:	fa23 f002 	lsr.w	r0, r3, r2
 8000aea:	bf18      	it	ne
 8000aec:	4240      	negne	r0, r0
 8000aee:	4770      	bx	lr
 8000af0:	f04f 0000 	mov.w	r0, #0
 8000af4:	4770      	bx	lr
 8000af6:	ea50 3001 	orrs.w	r0, r0, r1, lsl #12
 8000afa:	d105      	bne.n	8000b08 <__aeabi_d2iz+0x48>
 8000afc:	f011 4000 	ands.w	r0, r1, #2147483648	; 0x80000000
 8000b00:	bf08      	it	eq
 8000b02:	f06f 4000 	mvneq.w	r0, #2147483648	; 0x80000000
 8000b06:	4770      	bx	lr
 8000b08:	f04f 0000 	mov.w	r0, #0
 8000b0c:	4770      	bx	lr
 8000b0e:	bf00      	nop

08000b10 <__aeabi_d2f>:
 8000b10:	ea4f 0241 	mov.w	r2, r1, lsl #1
 8000b14:	f1b2 43e0 	subs.w	r3, r2, #1879048192	; 0x70000000
 8000b18:	bf24      	itt	cs
 8000b1a:	f5b3 1c00 	subscs.w	ip, r3, #2097152	; 0x200000
 8000b1e:	f1dc 5cfe 	rsbscs	ip, ip, #532676608	; 0x1fc00000
 8000b22:	d90d      	bls.n	8000b40 <__aeabi_d2f+0x30>
 8000b24:	f001 4c00 	and.w	ip, r1, #2147483648	; 0x80000000
 8000b28:	ea4f 02c0 	mov.w	r2, r0, lsl #3
 8000b2c:	ea4c 7050 	orr.w	r0, ip, r0, lsr #29
 8000b30:	f1b2 4f00 	cmp.w	r2, #2147483648	; 0x80000000
 8000b34:	eb40 0083 	adc.w	r0, r0, r3, lsl #2
 8000b38:	bf08      	it	eq
 8000b3a:	f020 0001 	biceq.w	r0, r0, #1
 8000b3e:	4770      	bx	lr
 8000b40:	f011 4f80 	tst.w	r1, #1073741824	; 0x40000000
 8000b44:	d121      	bne.n	8000b8a <__aeabi_d2f+0x7a>
 8000b46:	f113 7238 	adds.w	r2, r3, #48234496	; 0x2e00000
 8000b4a:	bfbc      	itt	lt
 8000b4c:	f001 4000 	andlt.w	r0, r1, #2147483648	; 0x80000000
 8000b50:	4770      	bxlt	lr
 8000b52:	f441 1180 	orr.w	r1, r1, #1048576	; 0x100000
 8000b56:	ea4f 5252 	mov.w	r2, r2, lsr #21
 8000b5a:	f1c2 0218 	rsb	r2, r2, #24
 8000b5e:	f1c2 0c20 	rsb	ip, r2, #32
 8000b62:	fa10 f30c 	lsls.w	r3, r0, ip
 8000b66:	fa20 f002 	lsr.w	r0, r0, r2
 8000b6a:	bf18      	it	ne
 8000b6c:	f040 0001 	orrne.w	r0, r0, #1
 8000b70:	ea4f 23c1 	mov.w	r3, r1, lsl #11
 8000b74:	ea4f 23d3 	mov.w	r3, r3, lsr #11
 8000b78:	fa03 fc0c 	lsl.w	ip, r3, ip
 8000b7c:	ea40 000c 	orr.w	r0, r0, ip
 8000b80:	fa23 f302 	lsr.w	r3, r3, r2
 8000b84:	ea4f 0343 	mov.w	r3, r3, lsl #1
 8000b88:	e7cc      	b.n	8000b24 <__aeabi_d2f+0x14>
 8000b8a:	ea7f 5362 	mvns.w	r3, r2, asr #21
 8000b8e:	d107      	bne.n	8000ba0 <__aeabi_d2f+0x90>
 8000b90:	ea50 3301 	orrs.w	r3, r0, r1, lsl #12
 8000b94:	bf1e      	ittt	ne
 8000b96:	f04f 40fe 	movne.w	r0, #2130706432	; 0x7f000000
 8000b9a:	f440 0040 	orrne.w	r0, r0, #12582912	; 0xc00000
 8000b9e:	4770      	bxne	lr
 8000ba0:	f001 4000 	and.w	r0, r1, #2147483648	; 0x80000000
 8000ba4:	f040 40fe 	orr.w	r0, r0, #2130706432	; 0x7f000000
 8000ba8:	f440 0000 	orr.w	r0, r0, #8388608	; 0x800000
 8000bac:	4770      	bx	lr
 8000bae:	bf00      	nop

08000bb0 <__aeabi_uldivmod>:
 8000bb0:	b953      	cbnz	r3, 8000bc8 <__aeabi_uldivmod+0x18>
 8000bb2:	b94a      	cbnz	r2, 8000bc8 <__aeabi_uldivmod+0x18>
 8000bb4:	2900      	cmp	r1, #0
 8000bb6:	bf08      	it	eq
 8000bb8:	2800      	cmpeq	r0, #0
 8000bba:	bf1c      	itt	ne
 8000bbc:	f04f 31ff 	movne.w	r1, #4294967295
 8000bc0:	f04f 30ff 	movne.w	r0, #4294967295
 8000bc4:	f000 b972 	b.w	8000eac <__aeabi_idiv0>
 8000bc8:	f1ad 0c08 	sub.w	ip, sp, #8
 8000bcc:	e96d ce04 	strd	ip, lr, [sp, #-16]!
 8000bd0:	f000 f806 	bl	8000be0 <__udivmoddi4>
 8000bd4:	f8dd e004 	ldr.w	lr, [sp, #4]
 8000bd8:	e9dd 2302 	ldrd	r2, r3, [sp, #8]
 8000bdc:	b004      	add	sp, #16
 8000bde:	4770      	bx	lr

08000be0 <__udivmoddi4>:
 8000be0:	e92d 47f0 	stmdb	sp!, {r4, r5, r6, r7, r8, r9, sl, lr}
 8000be4:	9e08      	ldr	r6, [sp, #32]
 8000be6:	4604      	mov	r4, r0
 8000be8:	4688      	mov	r8, r1
 8000bea:	2b00      	cmp	r3, #0
 8000bec:	d14b      	bne.n	8000c86 <__udivmoddi4+0xa6>
 8000bee:	428a      	cmp	r2, r1
 8000bf0:	4615      	mov	r5, r2
 8000bf2:	d967      	bls.n	8000cc4 <__udivmoddi4+0xe4>
 8000bf4:	fab2 f282 	clz	r2, r2
 8000bf8:	b14a      	cbz	r2, 8000c0e <__udivmoddi4+0x2e>
 8000bfa:	f1c2 0720 	rsb	r7, r2, #32
 8000bfe:	fa01 f302 	lsl.w	r3, r1, r2
 8000c02:	fa20 f707 	lsr.w	r7, r0, r7
 8000c06:	4095      	lsls	r5, r2
 8000c08:	ea47 0803 	orr.w	r8, r7, r3
 8000c0c:	4094      	lsls	r4, r2
 8000c0e:	ea4f 4e15 	mov.w	lr, r5, lsr #16
 8000c12:	0c23      	lsrs	r3, r4, #16
 8000c14:	fbb8 f7fe 	udiv	r7, r8, lr
 8000c18:	fa1f fc85 	uxth.w	ip, r5
 8000c1c:	fb0e 8817 	mls	r8, lr, r7, r8
 8000c20:	ea43 4308 	orr.w	r3, r3, r8, lsl #16
 8000c24:	fb07 f10c 	mul.w	r1, r7, ip
 8000c28:	4299      	cmp	r1, r3
 8000c2a:	d909      	bls.n	8000c40 <__udivmoddi4+0x60>
 8000c2c:	18eb      	adds	r3, r5, r3
 8000c2e:	f107 30ff 	add.w	r0, r7, #4294967295
 8000c32:	f080 811b 	bcs.w	8000e6c <__udivmoddi4+0x28c>
 8000c36:	4299      	cmp	r1, r3
 8000c38:	f240 8118 	bls.w	8000e6c <__udivmoddi4+0x28c>
 8000c3c:	3f02      	subs	r7, #2
 8000c3e:	442b      	add	r3, r5
 8000c40:	1a5b      	subs	r3, r3, r1
 8000c42:	b2a4      	uxth	r4, r4
 8000c44:	fbb3 f0fe 	udiv	r0, r3, lr
 8000c48:	fb0e 3310 	mls	r3, lr, r0, r3
 8000c4c:	ea44 4403 	orr.w	r4, r4, r3, lsl #16
 8000c50:	fb00 fc0c 	mul.w	ip, r0, ip
 8000c54:	45a4      	cmp	ip, r4
 8000c56:	d909      	bls.n	8000c6c <__udivmoddi4+0x8c>
 8000c58:	192c      	adds	r4, r5, r4
 8000c5a:	f100 33ff 	add.w	r3, r0, #4294967295
 8000c5e:	f080 8107 	bcs.w	8000e70 <__udivmoddi4+0x290>
 8000c62:	45a4      	cmp	ip, r4
 8000c64:	f240 8104 	bls.w	8000e70 <__udivmoddi4+0x290>
 8000c68:	3802      	subs	r0, #2
 8000c6a:	442c      	add	r4, r5
 8000c6c:	ea40 4007 	orr.w	r0, r0, r7, lsl #16
 8000c70:	eba4 040c 	sub.w	r4, r4, ip
 8000c74:	2700      	movs	r7, #0
 8000c76:	b11e      	cbz	r6, 8000c80 <__udivmoddi4+0xa0>
 8000c78:	40d4      	lsrs	r4, r2
 8000c7a:	2300      	movs	r3, #0
 8000c7c:	e9c6 4300 	strd	r4, r3, [r6]
 8000c80:	4639      	mov	r1, r7
 8000c82:	e8bd 87f0 	ldmia.w	sp!, {r4, r5, r6, r7, r8, r9, sl, pc}
 8000c86:	428b      	cmp	r3, r1
 8000c88:	d909      	bls.n	8000c9e <__udivmoddi4+0xbe>
 8000c8a:	2e00      	cmp	r6, #0
 8000c8c:	f000 80eb 	beq.w	8000e66 <__udivmoddi4+0x286>
 8000c90:	2700      	movs	r7, #0
 8000c92:	e9c6 0100 	strd	r0, r1, [r6]
 8000c96:	4638      	mov	r0, r7
 8000c98:	4639      	mov	r1, r7
 8000c9a:	e8bd 87f0 	ldmia.w	sp!, {r4, r5, r6, r7, r8, r9, sl, pc}
 8000c9e:	fab3 f783 	clz	r7, r3
 8000ca2:	2f00      	cmp	r7, #0
 8000ca4:	d147      	bne.n	8000d36 <__udivmoddi4+0x156>
 8000ca6:	428b      	cmp	r3, r1
 8000ca8:	d302      	bcc.n	8000cb0 <__udivmoddi4+0xd0>
 8000caa:	4282      	cmp	r2, r0
 8000cac:	f200 80fa 	bhi.w	8000ea4 <__udivmoddi4+0x2c4>
 8000cb0:	1a84      	subs	r4, r0, r2
 8000cb2:	eb61 0303 	sbc.w	r3, r1, r3
 8000cb6:	2001      	movs	r0, #1
 8000cb8:	4698      	mov	r8, r3
 8000cba:	2e00      	cmp	r6, #0
 8000cbc:	d0e0      	beq.n	8000c80 <__udivmoddi4+0xa0>
 8000cbe:	e9c6 4800 	strd	r4, r8, [r6]
 8000cc2:	e7dd      	b.n	8000c80 <__udivmoddi4+0xa0>
 8000cc4:	b902      	cbnz	r2, 8000cc8 <__udivmoddi4+0xe8>
 8000cc6:	deff      	udf	#255	; 0xff
 8000cc8:	fab2 f282 	clz	r2, r2
 8000ccc:	2a00      	cmp	r2, #0
 8000cce:	f040 808f 	bne.w	8000df0 <__udivmoddi4+0x210>
 8000cd2:	1b49      	subs	r1, r1, r5
 8000cd4:	ea4f 4e15 	mov.w	lr, r5, lsr #16
 8000cd8:	fa1f f885 	uxth.w	r8, r5
 8000cdc:	2701      	movs	r7, #1
 8000cde:	fbb1 fcfe 	udiv	ip, r1, lr
 8000ce2:	0c23      	lsrs	r3, r4, #16
 8000ce4:	fb0e 111c 	mls	r1, lr, ip, r1
 8000ce8:	ea43 4301 	orr.w	r3, r3, r1, lsl #16
 8000cec:	fb08 f10c 	mul.w	r1, r8, ip
 8000cf0:	4299      	cmp	r1, r3
 8000cf2:	d907      	bls.n	8000d04 <__udivmoddi4+0x124>
 8000cf4:	18eb      	adds	r3, r5, r3
 8000cf6:	f10c 30ff 	add.w	r0, ip, #4294967295
 8000cfa:	d202      	bcs.n	8000d02 <__udivmoddi4+0x122>
 8000cfc:	4299      	cmp	r1, r3
 8000cfe:	f200 80cd 	bhi.w	8000e9c <__udivmoddi4+0x2bc>
 8000d02:	4684      	mov	ip, r0
 8000d04:	1a59      	subs	r1, r3, r1
 8000d06:	b2a3      	uxth	r3, r4
 8000d08:	fbb1 f0fe 	udiv	r0, r1, lr
 8000d0c:	fb0e 1410 	mls	r4, lr, r0, r1
 8000d10:	ea43 4404 	orr.w	r4, r3, r4, lsl #16
 8000d14:	fb08 f800 	mul.w	r8, r8, r0
 8000d18:	45a0      	cmp	r8, r4
 8000d1a:	d907      	bls.n	8000d2c <__udivmoddi4+0x14c>
 8000d1c:	192c      	adds	r4, r5, r4
 8000d1e:	f100 33ff 	add.w	r3, r0, #4294967295
 8000d22:	d202      	bcs.n	8000d2a <__udivmoddi4+0x14a>
 8000d24:	45a0      	cmp	r8, r4
 8000d26:	f200 80b6 	bhi.w	8000e96 <__udivmoddi4+0x2b6>
 8000d2a:	4618      	mov	r0, r3
 8000d2c:	eba4 0408 	sub.w	r4, r4, r8
 8000d30:	ea40 400c 	orr.w	r0, r0, ip, lsl #16
 8000d34:	e79f      	b.n	8000c76 <__udivmoddi4+0x96>
 8000d36:	f1c7 0c20 	rsb	ip, r7, #32
 8000d3a:	40bb      	lsls	r3, r7
 8000d3c:	fa22 fe0c 	lsr.w	lr, r2, ip
 8000d40:	ea4e 0e03 	orr.w	lr, lr, r3
 8000d44:	fa01 f407 	lsl.w	r4, r1, r7
 8000d48:	fa20 f50c 	lsr.w	r5, r0, ip
 8000d4c:	fa21 f30c 	lsr.w	r3, r1, ip
 8000d50:	ea4f 481e 	mov.w	r8, lr, lsr #16
 8000d54:	4325      	orrs	r5, r4
 8000d56:	fbb3 f9f8 	udiv	r9, r3, r8
 8000d5a:	0c2c      	lsrs	r4, r5, #16
 8000d5c:	fb08 3319 	mls	r3, r8, r9, r3
 8000d60:	fa1f fa8e 	uxth.w	sl, lr
 8000d64:	ea44 4303 	orr.w	r3, r4, r3, lsl #16
 8000d68:	fb09 f40a 	mul.w	r4, r9, sl
 8000d6c:	429c      	cmp	r4, r3
 8000d6e:	fa02 f207 	lsl.w	r2, r2, r7
 8000d72:	fa00 f107 	lsl.w	r1, r0, r7
 8000d76:	d90b      	bls.n	8000d90 <__udivmoddi4+0x1b0>
 8000d78:	eb1e 0303 	adds.w	r3, lr, r3
 8000d7c:	f109 30ff 	add.w	r0, r9, #4294967295
 8000d80:	f080 8087 	bcs.w	8000e92 <__udivmoddi4+0x2b2>
 8000d84:	429c      	cmp	r4, r3
 8000d86:	f240 8084 	bls.w	8000e92 <__udivmoddi4+0x2b2>
 8000d8a:	f1a9 0902 	sub.w	r9, r9, #2
 8000d8e:	4473      	add	r3, lr
 8000d90:	1b1b      	subs	r3, r3, r4
 8000d92:	b2ad      	uxth	r5, r5
 8000d94:	fbb3 f0f8 	udiv	r0, r3, r8
 8000d98:	fb08 3310 	mls	r3, r8, r0, r3
 8000d9c:	ea45 4403 	orr.w	r4, r5, r3, lsl #16
 8000da0:	fb00 fa0a 	mul.w	sl, r0, sl
 8000da4:	45a2      	cmp	sl, r4
 8000da6:	d908      	bls.n	8000dba <__udivmoddi4+0x1da>
 8000da8:	eb1e 0404 	adds.w	r4, lr, r4
 8000dac:	f100 33ff 	add.w	r3, r0, #4294967295
 8000db0:	d26b      	bcs.n	8000e8a <__udivmoddi4+0x2aa>
 8000db2:	45a2      	cmp	sl, r4
 8000db4:	d969      	bls.n	8000e8a <__udivmoddi4+0x2aa>
 8000db6:	3802      	subs	r0, #2
 8000db8:	4474      	add	r4, lr
 8000dba:	ea40 4009 	orr.w	r0, r0, r9, lsl #16
 8000dbe:	fba0 8902 	umull	r8, r9, r0, r2
 8000dc2:	eba4 040a 	sub.w	r4, r4, sl
 8000dc6:	454c      	cmp	r4, r9
 8000dc8:	46c2      	mov	sl, r8
 8000dca:	464b      	mov	r3, r9
 8000dcc:	d354      	bcc.n	8000e78 <__udivmoddi4+0x298>
 8000dce:	d051      	beq.n	8000e74 <__udivmoddi4+0x294>
 8000dd0:	2e00      	cmp	r6, #0
 8000dd2:	d069      	beq.n	8000ea8 <__udivmoddi4+0x2c8>
 8000dd4:	ebb1 050a 	subs.w	r5, r1, sl
 8000dd8:	eb64 0403 	sbc.w	r4, r4, r3
 8000ddc:	fa04 fc0c 	lsl.w	ip, r4, ip
 8000de0:	40fd      	lsrs	r5, r7
 8000de2:	40fc      	lsrs	r4, r7
 8000de4:	ea4c 0505 	orr.w	r5, ip, r5
 8000de8:	e9c6 5400 	strd	r5, r4, [r6]
 8000dec:	2700      	movs	r7, #0
 8000dee:	e747      	b.n	8000c80 <__udivmoddi4+0xa0>
 8000df0:	f1c2 0320 	rsb	r3, r2, #32
 8000df4:	fa20 f703 	lsr.w	r7, r0, r3
 8000df8:	4095      	lsls	r5, r2
 8000dfa:	fa01 f002 	lsl.w	r0, r1, r2
 8000dfe:	fa21 f303 	lsr.w	r3, r1, r3
 8000e02:	ea4f 4e15 	mov.w	lr, r5, lsr #16
 8000e06:	4338      	orrs	r0, r7
 8000e08:	0c01      	lsrs	r1, r0, #16
 8000e0a:	fbb3 f7fe 	udiv	r7, r3, lr
 8000e0e:	fa1f f885 	uxth.w	r8, r5
 8000e12:	fb0e 3317 	mls	r3, lr, r7, r3
 8000e16:	ea41 4103 	orr.w	r1, r1, r3, lsl #16
 8000e1a:	fb07 f308 	mul.w	r3, r7, r8
 8000e1e:	428b      	cmp	r3, r1
 8000e20:	fa04 f402 	lsl.w	r4, r4, r2
 8000e24:	d907      	bls.n	8000e36 <__udivmoddi4+0x256>
 8000e26:	1869      	adds	r1, r5, r1
 8000e28:	f107 3cff 	add.w	ip, r7, #4294967295
 8000e2c:	d22f      	bcs.n	8000e8e <__udivmoddi4+0x2ae>
 8000e2e:	428b      	cmp	r3, r1
 8000e30:	d92d      	bls.n	8000e8e <__udivmoddi4+0x2ae>
 8000e32:	3f02      	subs	r7, #2
 8000e34:	4429      	add	r1, r5
 8000e36:	1acb      	subs	r3, r1, r3
 8000e38:	b281      	uxth	r1, r0
 8000e3a:	fbb3 f0fe 	udiv	r0, r3, lr
 8000e3e:	fb0e 3310 	mls	r3, lr, r0, r3
 8000e42:	ea41 4103 	orr.w	r1, r1, r3, lsl #16
 8000e46:	fb00 f308 	mul.w	r3, r0, r8
 8000e4a:	428b      	cmp	r3, r1
 8000e4c:	d907      	bls.n	8000e5e <__udivmoddi4+0x27e>
 8000e4e:	1869      	adds	r1, r5, r1
 8000e50:	f100 3cff 	add.w	ip, r0, #4294967295
 8000e54:	d217      	bcs.n	8000e86 <__udivmoddi4+0x2a6>
 8000e56:	428b      	cmp	r3, r1
 8000e58:	d915      	bls.n	8000e86 <__udivmoddi4+0x2a6>
 8000e5a:	3802      	subs	r0, #2
 8000e5c:	4429      	add	r1, r5
 8000e5e:	1ac9      	subs	r1, r1, r3
 8000e60:	ea40 4707 	orr.w	r7, r0, r7, lsl #16
 8000e64:	e73b      	b.n	8000cde <__udivmoddi4+0xfe>
 8000e66:	4637      	mov	r7, r6
 8000e68:	4630      	mov	r0, r6
 8000e6a:	e709      	b.n	8000c80 <__udivmoddi4+0xa0>
 8000e6c:	4607      	mov	r7, r0
 8000e6e:	e6e7      	b.n	8000c40 <__udivmoddi4+0x60>
 8000e70:	4618      	mov	r0, r3
 8000e72:	e6fb      	b.n	8000c6c <__udivmoddi4+0x8c>
 8000e74:	4541      	cmp	r1, r8
 8000e76:	d2ab      	bcs.n	8000dd0 <__udivmoddi4+0x1f0>
 8000e78:	ebb8 0a02 	subs.w	sl, r8, r2
 8000e7c:	eb69 020e 	sbc.w	r2, r9, lr
 8000e80:	3801      	subs	r0, #1
 8000e82:	4613      	mov	r3, r2
 8000e84:	e7a4      	b.n	8000dd0 <__udivmoddi4+0x1f0>
 8000e86:	4660      	mov	r0, ip
 8000e88:	e7e9      	b.n	8000e5e <__udivmoddi4+0x27e>
 8000e8a:	4618      	mov	r0, r3
 8000e8c:	e795      	b.n	8000dba <__udivmoddi4+0x1da>
 8000e8e:	4667      	mov	r7, ip
 8000e90:	e7d1      	b.n	8000e36 <__udivmoddi4+0x256>
 8000e92:	4681      	mov	r9, r0
 8000e94:	e77c      	b.n	8000d90 <__udivmoddi4+0x1b0>
 8000e96:	3802      	subs	r0, #2
 8000e98:	442c      	add	r4, r5
 8000e9a:	e747      	b.n	8000d2c <__udivmoddi4+0x14c>
 8000e9c:	f1ac 0c02 	sub.w	ip, ip, #2
 8000ea0:	442b      	add	r3, r5
 8000ea2:	e72f      	b.n	8000d04 <__udivmoddi4+0x124>
 8000ea4:	4638      	mov	r0, r7
 8000ea6:	e708      	b.n	8000cba <__udivmoddi4+0xda>
 8000ea8:	4637      	mov	r7, r6
 8000eaa:	e6e9      	b.n	8000c80 <__udivmoddi4+0xa0>

08000eac <__aeabi_idiv0>:
 8000eac:	4770      	bx	lr
 8000eae:	bf00      	nop

08000eb0 <HAL_InitTick>:
 8000eb0:	b538      	push	{r3, r4, r5, lr}
 8000eb2:	4a0e      	ldr	r2, [pc, #56]	; (8000eec <HAL_InitTick+0x3c>)
 8000eb4:	4b0e      	ldr	r3, [pc, #56]	; (8000ef0 <HAL_InitTick+0x40>)
 8000eb6:	7812      	ldrb	r2, [r2, #0]
 8000eb8:	681b      	ldr	r3, [r3, #0]
 8000eba:	4605      	mov	r5, r0
 8000ebc:	f44f 707a 	mov.w	r0, #1000	; 0x3e8
 8000ec0:	fbb0 f0f2 	udiv	r0, r0, r2
 8000ec4:	fbb3 f0f0 	udiv	r0, r3, r0
 8000ec8:	f000 f8aa 	bl	8001020 <HAL_SYSTICK_Config>
 8000ecc:	b908      	cbnz	r0, 8000ed2 <HAL_InitTick+0x22>
 8000ece:	2d0f      	cmp	r5, #15
 8000ed0:	d901      	bls.n	8000ed6 <HAL_InitTick+0x26>
 8000ed2:	2001      	movs	r0, #1
 8000ed4:	bd38      	pop	{r3, r4, r5, pc}
 8000ed6:	4604      	mov	r4, r0
 8000ed8:	4602      	mov	r2, r0
 8000eda:	4629      	mov	r1, r5
 8000edc:	f04f 30ff 	mov.w	r0, #4294967295
 8000ee0:	f000 f85a 	bl	8000f98 <HAL_NVIC_SetPriority>
 8000ee4:	4b03      	ldr	r3, [pc, #12]	; (8000ef4 <HAL_InitTick+0x44>)
 8000ee6:	4620      	mov	r0, r4
 8000ee8:	601d      	str	r5, [r3, #0]
 8000eea:	bd38      	pop	{r3, r4, r5, pc}
 8000eec:	20000000 	.word	0x20000000
 8000ef0:	20000128 	.word	0x20000128
 8000ef4:	20000004 	.word	0x20000004

08000ef8 <HAL_Init>:
 8000ef8:	b508      	push	{r3, lr}
 8000efa:	4b0b      	ldr	r3, [pc, #44]	; (8000f28 <HAL_Init+0x30>)
 8000efc:	681a      	ldr	r2, [r3, #0]
 8000efe:	f442 7200 	orr.w	r2, r2, #512	; 0x200
 8000f02:	601a      	str	r2, [r3, #0]
 8000f04:	681a      	ldr	r2, [r3, #0]
 8000f06:	f442 6280 	orr.w	r2, r2, #1024	; 0x400
 8000f0a:	601a      	str	r2, [r3, #0]
 8000f0c:	681a      	ldr	r2, [r3, #0]
 8000f0e:	f442 7280 	orr.w	r2, r2, #256	; 0x100
 8000f12:	601a      	str	r2, [r3, #0]
 8000f14:	2003      	movs	r0, #3
 8000f16:	f000 f82d 	bl	8000f74 <HAL_NVIC_SetPriorityGrouping>
 8000f1a:	2000      	movs	r0, #0
 8000f1c:	f7ff ffc8 	bl	8000eb0 <HAL_InitTick>
 8000f20:	f006 fe48 	bl	8007bb4 <HAL_MspInit>
 8000f24:	2000      	movs	r0, #0
 8000f26:	bd08      	pop	{r3, pc}
 8000f28:	40023c00 	.word	0x40023c00

08000f2c <HAL_IncTick>:
 8000f2c:	4a03      	ldr	r2, [pc, #12]	; (8000f3c <HAL_IncTick+0x10>)
 8000f2e:	4b04      	ldr	r3, [pc, #16]	; (8000f40 <HAL_IncTick+0x14>)
 8000f30:	6811      	ldr	r1, [r2, #0]
 8000f32:	781b      	ldrb	r3, [r3, #0]
 8000f34:	440b      	add	r3, r1
 8000f36:	6013      	str	r3, [r2, #0]
 8000f38:	4770      	bx	lr
 8000f3a:	bf00      	nop
 8000f3c:	200003c4 	.word	0x200003c4
 8000f40:	20000000 	.word	0x20000000

08000f44 <HAL_GetTick>:
 8000f44:	4b01      	ldr	r3, [pc, #4]	; (8000f4c <HAL_GetTick+0x8>)
 8000f46:	6818      	ldr	r0, [r3, #0]
 8000f48:	4770      	bx	lr
 8000f4a:	bf00      	nop
 8000f4c:	200003c4 	.word	0x200003c4

08000f50 <HAL_Delay>:
 8000f50:	b538      	push	{r3, r4, r5, lr}
 8000f52:	4604      	mov	r4, r0
 8000f54:	f7ff fff6 	bl	8000f44 <HAL_GetTick>
 8000f58:	1c63      	adds	r3, r4, #1
 8000f5a:	4605      	mov	r5, r0
 8000f5c:	d002      	beq.n	8000f64 <HAL_Delay+0x14>
 8000f5e:	4b04      	ldr	r3, [pc, #16]	; (8000f70 <HAL_Delay+0x20>)
 8000f60:	781b      	ldrb	r3, [r3, #0]
 8000f62:	441c      	add	r4, r3
 8000f64:	f7ff ffee 	bl	8000f44 <HAL_GetTick>
 8000f68:	1b40      	subs	r0, r0, r5
 8000f6a:	42a0      	cmp	r0, r4
 8000f6c:	d3fa      	bcc.n	8000f64 <HAL_Delay+0x14>
 8000f6e:	bd38      	pop	{r3, r4, r5, pc}
 8000f70:	20000000 	.word	0x20000000

08000f74 <HAL_NVIC_SetPriorityGrouping>:
 8000f74:	4a07      	ldr	r2, [pc, #28]	; (8000f94 <HAL_NVIC_SetPriorityGrouping+0x20>)
 8000f76:	68d3      	ldr	r3, [r2, #12]
 8000f78:	f64f 01ff 	movw	r1, #63743	; 0xf8ff
 8000f7c:	400b      	ands	r3, r1
 8000f7e:	0200      	lsls	r0, r0, #8
 8000f80:	f043 63bf 	orr.w	r3, r3, #100139008	; 0x5f80000
 8000f84:	f400 60e0 	and.w	r0, r0, #1792	; 0x700
 8000f88:	f443 3300 	orr.w	r3, r3, #131072	; 0x20000
 8000f8c:	4303      	orrs	r3, r0
 8000f8e:	60d3      	str	r3, [r2, #12]
 8000f90:	4770      	bx	lr
 8000f92:	bf00      	nop
 8000f94:	e000ed00 	.word	0xe000ed00

08000f98 <HAL_NVIC_SetPriority>:
 8000f98:	4b18      	ldr	r3, [pc, #96]	; (8000ffc <HAL_NVIC_SetPriority+0x64>)
 8000f9a:	68db      	ldr	r3, [r3, #12]
 8000f9c:	f3c3 2302 	ubfx	r3, r3, #8, #3
 8000fa0:	b430      	push	{r4, r5}
 8000fa2:	f1c3 0507 	rsb	r5, r3, #7
 8000fa6:	2d04      	cmp	r5, #4
 8000fa8:	f103 0404 	add.w	r4, r3, #4
 8000fac:	bf28      	it	cs
 8000fae:	2504      	movcs	r5, #4
 8000fb0:	2c06      	cmp	r4, #6
 8000fb2:	d919      	bls.n	8000fe8 <HAL_NVIC_SetPriority+0x50>
 8000fb4:	3b03      	subs	r3, #3
 8000fb6:	f04f 34ff 	mov.w	r4, #4294967295
 8000fba:	409c      	lsls	r4, r3
 8000fbc:	ea22 0404 	bic.w	r4, r2, r4
 8000fc0:	f04f 32ff 	mov.w	r2, #4294967295
 8000fc4:	40aa      	lsls	r2, r5
 8000fc6:	ea21 0102 	bic.w	r1, r1, r2
 8000fca:	fa01 f203 	lsl.w	r2, r1, r3
 8000fce:	4322      	orrs	r2, r4
 8000fd0:	0112      	lsls	r2, r2, #4
 8000fd2:	2800      	cmp	r0, #0
 8000fd4:	b2d2      	uxtb	r2, r2
 8000fd6:	db0a      	blt.n	8000fee <HAL_NVIC_SetPriority+0x56>
 8000fd8:	f100 4060 	add.w	r0, r0, #3758096384	; 0xe0000000
 8000fdc:	f500 4061 	add.w	r0, r0, #57600	; 0xe100
 8000fe0:	f880 2300 	strb.w	r2, [r0, #768]	; 0x300
 8000fe4:	bc30      	pop	{r4, r5}
 8000fe6:	4770      	bx	lr
 8000fe8:	2400      	movs	r4, #0
 8000fea:	4623      	mov	r3, r4
 8000fec:	e7e8      	b.n	8000fc0 <HAL_NVIC_SetPriority+0x28>
 8000fee:	4b04      	ldr	r3, [pc, #16]	; (8001000 <HAL_NVIC_SetPriority+0x68>)
 8000ff0:	f000 000f 	and.w	r0, r0, #15
 8000ff4:	4403      	add	r3, r0
 8000ff6:	761a      	strb	r2, [r3, #24]
 8000ff8:	bc30      	pop	{r4, r5}
 8000ffa:	4770      	bx	lr
 8000ffc:	e000ed00 	.word	0xe000ed00
 8001000:	e000ecfc 	.word	0xe000ecfc

08001004 <HAL_NVIC_EnableIRQ>:
 8001004:	2800      	cmp	r0, #0
 8001006:	db07      	blt.n	8001018 <HAL_NVIC_EnableIRQ+0x14>
 8001008:	f000 011f 	and.w	r1, r0, #31
 800100c:	2301      	movs	r3, #1
 800100e:	0940      	lsrs	r0, r0, #5
 8001010:	4a02      	ldr	r2, [pc, #8]	; (800101c <HAL_NVIC_EnableIRQ+0x18>)
 8001012:	408b      	lsls	r3, r1
 8001014:	f842 3020 	str.w	r3, [r2, r0, lsl #2]
 8001018:	4770      	bx	lr
 800101a:	bf00      	nop
 800101c:	e000e100 	.word	0xe000e100

08001020 <HAL_SYSTICK_Config>:
 8001020:	3801      	subs	r0, #1
 8001022:	f1b0 7f80 	cmp.w	r0, #16777216	; 0x1000000
 8001026:	d20e      	bcs.n	8001046 <HAL_SYSTICK_Config+0x26>
 8001028:	4b08      	ldr	r3, [pc, #32]	; (800104c <HAL_SYSTICK_Config+0x2c>)
 800102a:	b410      	push	{r4}
 800102c:	4c08      	ldr	r4, [pc, #32]	; (8001050 <HAL_SYSTICK_Config+0x30>)
 800102e:	6058      	str	r0, [r3, #4]
 8001030:	20f0      	movs	r0, #240	; 0xf0
 8001032:	f884 0023 	strb.w	r0, [r4, #35]	; 0x23
 8001036:	2200      	movs	r2, #0
 8001038:	2107      	movs	r1, #7
 800103a:	4610      	mov	r0, r2
 800103c:	609a      	str	r2, [r3, #8]
 800103e:	6019      	str	r1, [r3, #0]
 8001040:	f85d 4b04 	ldr.w	r4, [sp], #4
 8001044:	4770      	bx	lr
 8001046:	2001      	movs	r0, #1
 8001048:	4770      	bx	lr
 800104a:	bf00      	nop
 800104c:	e000e010 	.word	0xe000e010
 8001050:	e000ed00 	.word	0xe000ed00

08001054 <HAL_DMA_Init>:
 8001054:	b5f8      	push	{r3, r4, r5, r6, r7, lr}
 8001056:	4604      	mov	r4, r0
 8001058:	f7ff ff74 	bl	8000f44 <HAL_GetTick>
 800105c:	2c00      	cmp	r4, #0
 800105e:	d054      	beq.n	800110a <HAL_DMA_Init+0xb6>
 8001060:	2202      	movs	r2, #2
 8001062:	6823      	ldr	r3, [r4, #0]
 8001064:	f884 2035 	strb.w	r2, [r4, #53]	; 0x35
 8001068:	681a      	ldr	r2, [r3, #0]
 800106a:	2100      	movs	r1, #0
 800106c:	f022 0201 	bic.w	r2, r2, #1
 8001070:	f884 1034 	strb.w	r1, [r4, #52]	; 0x34
 8001074:	4605      	mov	r5, r0
 8001076:	601a      	str	r2, [r3, #0]
 8001078:	e005      	b.n	8001086 <HAL_DMA_Init+0x32>
 800107a:	f7ff ff63 	bl	8000f44 <HAL_GetTick>
 800107e:	1b40      	subs	r0, r0, r5
 8001080:	2805      	cmp	r0, #5
 8001082:	d83b      	bhi.n	80010fc <HAL_DMA_Init+0xa8>
 8001084:	6823      	ldr	r3, [r4, #0]
 8001086:	681a      	ldr	r2, [r3, #0]
 8001088:	07d1      	lsls	r1, r2, #31
 800108a:	d4f6      	bmi.n	800107a <HAL_DMA_Init+0x26>
 800108c:	e9d4 2601 	ldrd	r2, r6, [r4, #4]
 8001090:	e9d4 5103 	ldrd	r5, r1, [r4, #12]
 8001094:	4332      	orrs	r2, r6
 8001096:	6960      	ldr	r0, [r4, #20]
 8001098:	681f      	ldr	r7, [r3, #0]
 800109a:	432a      	orrs	r2, r5
 800109c:	e9d4 6506 	ldrd	r6, r5, [r4, #24]
 80010a0:	430a      	orrs	r2, r1
 80010a2:	4302      	orrs	r2, r0
 80010a4:	6a21      	ldr	r1, [r4, #32]
 80010a6:	4835      	ldr	r0, [pc, #212]	; (800117c <HAL_DMA_Init+0x128>)
 80010a8:	4332      	orrs	r2, r6
 80010aa:	432a      	orrs	r2, r5
 80010ac:	430a      	orrs	r2, r1
 80010ae:	6a61      	ldr	r1, [r4, #36]	; 0x24
 80010b0:	4038      	ands	r0, r7
 80010b2:	2904      	cmp	r1, #4
 80010b4:	ea42 0200 	orr.w	r2, r2, r0
 80010b8:	d029      	beq.n	800110e <HAL_DMA_Init+0xba>
 80010ba:	601a      	str	r2, [r3, #0]
 80010bc:	695a      	ldr	r2, [r3, #20]
 80010be:	f022 0207 	bic.w	r2, r2, #7
 80010c2:	4311      	orrs	r1, r2
 80010c4:	b2da      	uxtb	r2, r3
 80010c6:	482e      	ldr	r0, [pc, #184]	; (8001180 <HAL_DMA_Init+0x12c>)
 80010c8:	6159      	str	r1, [r3, #20]
 80010ca:	3a10      	subs	r2, #16
 80010cc:	fba0 1202 	umull	r1, r2, r0, r2
 80010d0:	0912      	lsrs	r2, r2, #4
 80010d2:	492c      	ldr	r1, [pc, #176]	; (8001184 <HAL_DMA_Init+0x130>)
 80010d4:	f423 737f 	bic.w	r3, r3, #1020	; 0x3fc
 80010d8:	5c89      	ldrb	r1, [r1, r2]
 80010da:	65e1      	str	r1, [r4, #92]	; 0x5c
 80010dc:	f023 0303 	bic.w	r3, r3, #3
 80010e0:	2a03      	cmp	r2, #3
 80010e2:	bf88      	it	hi
 80010e4:	3304      	addhi	r3, #4
 80010e6:	223f      	movs	r2, #63	; 0x3f
 80010e8:	408a      	lsls	r2, r1
 80010ea:	2501      	movs	r5, #1
 80010ec:	2100      	movs	r1, #0
 80010ee:	65a3      	str	r3, [r4, #88]	; 0x58
 80010f0:	4608      	mov	r0, r1
 80010f2:	609a      	str	r2, [r3, #8]
 80010f4:	6561      	str	r1, [r4, #84]	; 0x54
 80010f6:	f884 5035 	strb.w	r5, [r4, #53]	; 0x35
 80010fa:	bdf8      	pop	{r3, r4, r5, r6, r7, pc}
 80010fc:	2303      	movs	r3, #3
 80010fe:	2220      	movs	r2, #32
 8001100:	6562      	str	r2, [r4, #84]	; 0x54
 8001102:	4618      	mov	r0, r3
 8001104:	f884 3035 	strb.w	r3, [r4, #53]	; 0x35
 8001108:	bdf8      	pop	{r3, r4, r5, r6, r7, pc}
 800110a:	2001      	movs	r0, #1
 800110c:	bdf8      	pop	{r3, r4, r5, r6, r7, pc}
 800110e:	e9d4 010b 	ldrd	r0, r1, [r4, #44]	; 0x2c
 8001112:	4301      	orrs	r1, r0
 8001114:	430a      	orrs	r2, r1
 8001116:	6aa5      	ldr	r5, [r4, #40]	; 0x28
 8001118:	601a      	str	r2, [r3, #0]
 800111a:	695a      	ldr	r2, [r3, #20]
 800111c:	f045 0104 	orr.w	r1, r5, #4
 8001120:	f022 0207 	bic.w	r2, r2, #7
 8001124:	4311      	orrs	r1, r2
 8001126:	2800      	cmp	r0, #0
 8001128:	d0cc      	beq.n	80010c4 <HAL_DMA_Init+0x70>
 800112a:	b17e      	cbz	r6, 800114c <HAL_DMA_Init+0xf8>
 800112c:	f5b6 5f00 	cmp.w	r6, #8192	; 0x2000
 8001130:	d016      	beq.n	8001160 <HAL_DMA_Init+0x10c>
 8001132:	2d02      	cmp	r5, #2
 8001134:	d903      	bls.n	800113e <HAL_DMA_Init+0xea>
 8001136:	2d03      	cmp	r5, #3
 8001138:	d1c4      	bne.n	80010c4 <HAL_DMA_Init+0x70>
 800113a:	01c2      	lsls	r2, r0, #7
 800113c:	d5c2      	bpl.n	80010c4 <HAL_DMA_Init+0x70>
 800113e:	2301      	movs	r3, #1
 8001140:	2240      	movs	r2, #64	; 0x40
 8001142:	6562      	str	r2, [r4, #84]	; 0x54
 8001144:	4618      	mov	r0, r3
 8001146:	f884 3035 	strb.w	r3, [r4, #53]	; 0x35
 800114a:	bdf8      	pop	{r3, r4, r5, r6, r7, pc}
 800114c:	2d01      	cmp	r5, #1
 800114e:	d003      	beq.n	8001158 <HAL_DMA_Init+0x104>
 8001150:	d3f3      	bcc.n	800113a <HAL_DMA_Init+0xe6>
 8001152:	2d02      	cmp	r5, #2
 8001154:	d1b6      	bne.n	80010c4 <HAL_DMA_Init+0x70>
 8001156:	e7f0      	b.n	800113a <HAL_DMA_Init+0xe6>
 8001158:	f1b0 7fc0 	cmp.w	r0, #25165824	; 0x1800000
 800115c:	d1b2      	bne.n	80010c4 <HAL_DMA_Init+0x70>
 800115e:	e7ee      	b.n	800113e <HAL_DMA_Init+0xea>
 8001160:	2d03      	cmp	r5, #3
 8001162:	d8af      	bhi.n	80010c4 <HAL_DMA_Init+0x70>
 8001164:	a201      	add	r2, pc, #4	; (adr r2, 800116c <HAL_DMA_Init+0x118>)
 8001166:	f852 f025 	ldr.w	pc, [r2, r5, lsl #2]
 800116a:	bf00      	nop
 800116c:	0800113f 	.word	0x0800113f
 8001170:	0800113b 	.word	0x0800113b
 8001174:	0800113f 	.word	0x0800113f
 8001178:	08001159 	.word	0x08001159
 800117c:	f010803f 	.word	0xf010803f
 8001180:	aaaaaaab 	.word	0xaaaaaaab
 8001184:	0800a908 	.word	0x0800a908

08001188 <HAL_DMA_Start_IT>:
 8001188:	b4f0      	push	{r4, r5, r6, r7}
 800118a:	f890 4034 	ldrb.w	r4, [r0, #52]	; 0x34
 800118e:	2c01      	cmp	r4, #1
 8001190:	d035      	beq.n	80011fe <HAL_DMA_Start_IT+0x76>
 8001192:	f890 4035 	ldrb.w	r4, [r0, #53]	; 0x35
 8001196:	6d86      	ldr	r6, [r0, #88]	; 0x58
 8001198:	2501      	movs	r5, #1
 800119a:	42ac      	cmp	r4, r5
 800119c:	f880 5034 	strb.w	r5, [r0, #52]	; 0x34
 80011a0:	d127      	bne.n	80011f2 <HAL_DMA_Start_IT+0x6a>
 80011a2:	6804      	ldr	r4, [r0, #0]
 80011a4:	2702      	movs	r7, #2
 80011a6:	2500      	movs	r5, #0
 80011a8:	f880 7035 	strb.w	r7, [r0, #53]	; 0x35
 80011ac:	6545      	str	r5, [r0, #84]	; 0x54
 80011ae:	6825      	ldr	r5, [r4, #0]
 80011b0:	6887      	ldr	r7, [r0, #8]
 80011b2:	f425 2580 	bic.w	r5, r5, #262144	; 0x40000
 80011b6:	2f40      	cmp	r7, #64	; 0x40
 80011b8:	6025      	str	r5, [r4, #0]
 80011ba:	6063      	str	r3, [r4, #4]
 80011bc:	bf0a      	itet	eq
 80011be:	60a2      	streq	r2, [r4, #8]
 80011c0:	60a1      	strne	r1, [r4, #8]
 80011c2:	60e1      	streq	r1, [r4, #12]
 80011c4:	6dc1      	ldr	r1, [r0, #92]	; 0x5c
 80011c6:	bf18      	it	ne
 80011c8:	60e2      	strne	r2, [r4, #12]
 80011ca:	233f      	movs	r3, #63	; 0x3f
 80011cc:	408b      	lsls	r3, r1
 80011ce:	6c02      	ldr	r2, [r0, #64]	; 0x40
 80011d0:	60b3      	str	r3, [r6, #8]
 80011d2:	6823      	ldr	r3, [r4, #0]
 80011d4:	f043 0316 	orr.w	r3, r3, #22
 80011d8:	6023      	str	r3, [r4, #0]
 80011da:	b11a      	cbz	r2, 80011e4 <HAL_DMA_Start_IT+0x5c>
 80011dc:	6823      	ldr	r3, [r4, #0]
 80011de:	f043 0308 	orr.w	r3, r3, #8
 80011e2:	6023      	str	r3, [r4, #0]
 80011e4:	6823      	ldr	r3, [r4, #0]
 80011e6:	f043 0301 	orr.w	r3, r3, #1
 80011ea:	6023      	str	r3, [r4, #0]
 80011ec:	2000      	movs	r0, #0
 80011ee:	bcf0      	pop	{r4, r5, r6, r7}
 80011f0:	4770      	bx	lr
 80011f2:	2300      	movs	r3, #0
 80011f4:	f880 3034 	strb.w	r3, [r0, #52]	; 0x34
 80011f8:	bcf0      	pop	{r4, r5, r6, r7}
 80011fa:	2002      	movs	r0, #2
 80011fc:	4770      	bx	lr
 80011fe:	2002      	movs	r0, #2
 8001200:	bcf0      	pop	{r4, r5, r6, r7}
 8001202:	4770      	bx	lr

08001204 <HAL_DMA_Abort>:
 8001204:	b570      	push	{r4, r5, r6, lr}
 8001206:	4604      	mov	r4, r0
 8001208:	6d86      	ldr	r6, [r0, #88]	; 0x58
 800120a:	f7ff fe9b 	bl	8000f44 <HAL_GetTick>
 800120e:	f894 3035 	ldrb.w	r3, [r4, #53]	; 0x35
 8001212:	2b02      	cmp	r3, #2
 8001214:	d006      	beq.n	8001224 <HAL_DMA_Abort+0x20>
 8001216:	2280      	movs	r2, #128	; 0x80
 8001218:	2300      	movs	r3, #0
 800121a:	6562      	str	r2, [r4, #84]	; 0x54
 800121c:	f884 3034 	strb.w	r3, [r4, #52]	; 0x34
 8001220:	2001      	movs	r0, #1
 8001222:	bd70      	pop	{r4, r5, r6, pc}
 8001224:	6823      	ldr	r3, [r4, #0]
 8001226:	6c21      	ldr	r1, [r4, #64]	; 0x40
 8001228:	681a      	ldr	r2, [r3, #0]
 800122a:	f022 0216 	bic.w	r2, r2, #22
 800122e:	601a      	str	r2, [r3, #0]
 8001230:	695a      	ldr	r2, [r3, #20]
 8001232:	f022 0280 	bic.w	r2, r2, #128	; 0x80
 8001236:	4605      	mov	r5, r0
 8001238:	615a      	str	r2, [r3, #20]
 800123a:	b331      	cbz	r1, 800128a <HAL_DMA_Abort+0x86>
 800123c:	681a      	ldr	r2, [r3, #0]
 800123e:	f022 0208 	bic.w	r2, r2, #8
 8001242:	601a      	str	r2, [r3, #0]
 8001244:	681a      	ldr	r2, [r3, #0]
 8001246:	f022 0201 	bic.w	r2, r2, #1
 800124a:	601a      	str	r2, [r3, #0]
 800124c:	e005      	b.n	800125a <HAL_DMA_Abort+0x56>
 800124e:	f7ff fe79 	bl	8000f44 <HAL_GetTick>
 8001252:	1b40      	subs	r0, r0, r5
 8001254:	2805      	cmp	r0, #5
 8001256:	d80f      	bhi.n	8001278 <HAL_DMA_Abort+0x74>
 8001258:	6823      	ldr	r3, [r4, #0]
 800125a:	681b      	ldr	r3, [r3, #0]
 800125c:	f013 0301 	ands.w	r3, r3, #1
 8001260:	d1f5      	bne.n	800124e <HAL_DMA_Abort+0x4a>
 8001262:	6de1      	ldr	r1, [r4, #92]	; 0x5c
 8001264:	223f      	movs	r2, #63	; 0x3f
 8001266:	408a      	lsls	r2, r1
 8001268:	2101      	movs	r1, #1
 800126a:	60b2      	str	r2, [r6, #8]
 800126c:	4618      	mov	r0, r3
 800126e:	f884 3034 	strb.w	r3, [r4, #52]	; 0x34
 8001272:	f884 1035 	strb.w	r1, [r4, #53]	; 0x35
 8001276:	bd70      	pop	{r4, r5, r6, pc}
 8001278:	2220      	movs	r2, #32
 800127a:	2300      	movs	r3, #0
 800127c:	2003      	movs	r0, #3
 800127e:	6562      	str	r2, [r4, #84]	; 0x54
 8001280:	f884 3034 	strb.w	r3, [r4, #52]	; 0x34
 8001284:	f884 0035 	strb.w	r0, [r4, #53]	; 0x35
 8001288:	bd70      	pop	{r4, r5, r6, pc}
 800128a:	6ca2      	ldr	r2, [r4, #72]	; 0x48
 800128c:	2a00      	cmp	r2, #0
 800128e:	d1d5      	bne.n	800123c <HAL_DMA_Abort+0x38>
 8001290:	e7d8      	b.n	8001244 <HAL_DMA_Abort+0x40>
 8001292:	bf00      	nop

08001294 <HAL_DMA_Abort_IT>:
 8001294:	f890 3035 	ldrb.w	r3, [r0, #53]	; 0x35
 8001298:	2b02      	cmp	r3, #2
 800129a:	d003      	beq.n	80012a4 <HAL_DMA_Abort_IT+0x10>
 800129c:	2380      	movs	r3, #128	; 0x80
 800129e:	6543      	str	r3, [r0, #84]	; 0x54
 80012a0:	2001      	movs	r0, #1
 80012a2:	4770      	bx	lr
 80012a4:	6802      	ldr	r2, [r0, #0]
 80012a6:	2305      	movs	r3, #5
 80012a8:	f880 3035 	strb.w	r3, [r0, #53]	; 0x35
 80012ac:	6813      	ldr	r3, [r2, #0]
 80012ae:	f023 0301 	bic.w	r3, r3, #1
 80012b2:	6013      	str	r3, [r2, #0]
 80012b4:	2000      	movs	r0, #0
 80012b6:	4770      	bx	lr

080012b8 <HAL_DMA_IRQHandler>:
 80012b8:	b5f0      	push	{r4, r5, r6, r7, lr}
 80012ba:	b083      	sub	sp, #12
 80012bc:	2300      	movs	r3, #0
 80012be:	6d87      	ldr	r7, [r0, #88]	; 0x58
 80012c0:	9301      	str	r3, [sp, #4]
 80012c2:	6dc3      	ldr	r3, [r0, #92]	; 0x5c
 80012c4:	683d      	ldr	r5, [r7, #0]
 80012c6:	4965      	ldr	r1, [pc, #404]	; (800145c <HAL_DMA_IRQHandler+0x1a4>)
 80012c8:	2208      	movs	r2, #8
 80012ca:	409a      	lsls	r2, r3
 80012cc:	422a      	tst	r2, r5
 80012ce:	4604      	mov	r4, r0
 80012d0:	680e      	ldr	r6, [r1, #0]
 80012d2:	d003      	beq.n	80012dc <HAL_DMA_IRQHandler+0x24>
 80012d4:	6801      	ldr	r1, [r0, #0]
 80012d6:	6808      	ldr	r0, [r1, #0]
 80012d8:	0740      	lsls	r0, r0, #29
 80012da:	d459      	bmi.n	8001390 <HAL_DMA_IRQHandler+0xd8>
 80012dc:	2201      	movs	r2, #1
 80012de:	409a      	lsls	r2, r3
 80012e0:	422a      	tst	r2, r5
 80012e2:	d003      	beq.n	80012ec <HAL_DMA_IRQHandler+0x34>
 80012e4:	6821      	ldr	r1, [r4, #0]
 80012e6:	6949      	ldr	r1, [r1, #20]
 80012e8:	0608      	lsls	r0, r1, #24
 80012ea:	d474      	bmi.n	80013d6 <HAL_DMA_IRQHandler+0x11e>
 80012ec:	2204      	movs	r2, #4
 80012ee:	409a      	lsls	r2, r3
 80012f0:	422a      	tst	r2, r5
 80012f2:	d003      	beq.n	80012fc <HAL_DMA_IRQHandler+0x44>
 80012f4:	6821      	ldr	r1, [r4, #0]
 80012f6:	6809      	ldr	r1, [r1, #0]
 80012f8:	0789      	lsls	r1, r1, #30
 80012fa:	d466      	bmi.n	80013ca <HAL_DMA_IRQHandler+0x112>
 80012fc:	2210      	movs	r2, #16
 80012fe:	409a      	lsls	r2, r3
 8001300:	422a      	tst	r2, r5
 8001302:	d003      	beq.n	800130c <HAL_DMA_IRQHandler+0x54>
 8001304:	6821      	ldr	r1, [r4, #0]
 8001306:	6808      	ldr	r0, [r1, #0]
 8001308:	0700      	lsls	r0, r0, #28
 800130a:	d44b      	bmi.n	80013a4 <HAL_DMA_IRQHandler+0xec>
 800130c:	2220      	movs	r2, #32
 800130e:	409a      	lsls	r2, r3
 8001310:	422a      	tst	r2, r5
 8001312:	d014      	beq.n	800133e <HAL_DMA_IRQHandler+0x86>
 8001314:	6821      	ldr	r1, [r4, #0]
 8001316:	6808      	ldr	r0, [r1, #0]
 8001318:	06c0      	lsls	r0, r0, #27
 800131a:	d510      	bpl.n	800133e <HAL_DMA_IRQHandler+0x86>
 800131c:	60ba      	str	r2, [r7, #8]
 800131e:	f894 2035 	ldrb.w	r2, [r4, #53]	; 0x35
 8001322:	2a05      	cmp	r2, #5
 8001324:	d063      	beq.n	80013ee <HAL_DMA_IRQHandler+0x136>
 8001326:	680b      	ldr	r3, [r1, #0]
 8001328:	f413 2f80 	tst.w	r3, #262144	; 0x40000
 800132c:	680b      	ldr	r3, [r1, #0]
 800132e:	d07e      	beq.n	800142e <HAL_DMA_IRQHandler+0x176>
 8001330:	0319      	lsls	r1, r3, #12
 8001332:	f140 8089 	bpl.w	8001448 <HAL_DMA_IRQHandler+0x190>
 8001336:	6be3      	ldr	r3, [r4, #60]	; 0x3c
 8001338:	b10b      	cbz	r3, 800133e <HAL_DMA_IRQHandler+0x86>
 800133a:	4620      	mov	r0, r4
 800133c:	4798      	blx	r3
 800133e:	6d63      	ldr	r3, [r4, #84]	; 0x54
 8001340:	b323      	cbz	r3, 800138c <HAL_DMA_IRQHandler+0xd4>
 8001342:	6d63      	ldr	r3, [r4, #84]	; 0x54
 8001344:	07da      	lsls	r2, r3, #31
 8001346:	d51a      	bpl.n	800137e <HAL_DMA_IRQHandler+0xc6>
 8001348:	2305      	movs	r3, #5
 800134a:	6822      	ldr	r2, [r4, #0]
 800134c:	f884 3035 	strb.w	r3, [r4, #53]	; 0x35
 8001350:	6813      	ldr	r3, [r2, #0]
 8001352:	4943      	ldr	r1, [pc, #268]	; (8001460 <HAL_DMA_IRQHandler+0x1a8>)
 8001354:	f023 0301 	bic.w	r3, r3, #1
 8001358:	fba1 1606 	umull	r1, r6, r1, r6
 800135c:	6013      	str	r3, [r2, #0]
 800135e:	0ab6      	lsrs	r6, r6, #10
 8001360:	e002      	b.n	8001368 <HAL_DMA_IRQHandler+0xb0>
 8001362:	6813      	ldr	r3, [r2, #0]
 8001364:	07db      	lsls	r3, r3, #31
 8001366:	d504      	bpl.n	8001372 <HAL_DMA_IRQHandler+0xba>
 8001368:	9b01      	ldr	r3, [sp, #4]
 800136a:	3301      	adds	r3, #1
 800136c:	42b3      	cmp	r3, r6
 800136e:	9301      	str	r3, [sp, #4]
 8001370:	d9f7      	bls.n	8001362 <HAL_DMA_IRQHandler+0xaa>
 8001372:	2200      	movs	r2, #0
 8001374:	2301      	movs	r3, #1
 8001376:	f884 2034 	strb.w	r2, [r4, #52]	; 0x34
 800137a:	f884 3035 	strb.w	r3, [r4, #53]	; 0x35
 800137e:	6ce3      	ldr	r3, [r4, #76]	; 0x4c
 8001380:	b123      	cbz	r3, 800138c <HAL_DMA_IRQHandler+0xd4>
 8001382:	4620      	mov	r0, r4
 8001384:	b003      	add	sp, #12
 8001386:	e8bd 40f0 	ldmia.w	sp!, {r4, r5, r6, r7, lr}
 800138a:	4718      	bx	r3
 800138c:	b003      	add	sp, #12
 800138e:	bdf0      	pop	{r4, r5, r6, r7, pc}
 8001390:	6808      	ldr	r0, [r1, #0]
 8001392:	f020 0004 	bic.w	r0, r0, #4
 8001396:	6008      	str	r0, [r1, #0]
 8001398:	60ba      	str	r2, [r7, #8]
 800139a:	6d62      	ldr	r2, [r4, #84]	; 0x54
 800139c:	f042 0201 	orr.w	r2, r2, #1
 80013a0:	6562      	str	r2, [r4, #84]	; 0x54
 80013a2:	e79b      	b.n	80012dc <HAL_DMA_IRQHandler+0x24>
 80013a4:	60ba      	str	r2, [r7, #8]
 80013a6:	680a      	ldr	r2, [r1, #0]
 80013a8:	f412 2f80 	tst.w	r2, #262144	; 0x40000
 80013ac:	680a      	ldr	r2, [r1, #0]
 80013ae:	d118      	bne.n	80013e2 <HAL_DMA_IRQHandler+0x12a>
 80013b0:	05d2      	lsls	r2, r2, #23
 80013b2:	d403      	bmi.n	80013bc <HAL_DMA_IRQHandler+0x104>
 80013b4:	680a      	ldr	r2, [r1, #0]
 80013b6:	f022 0208 	bic.w	r2, r2, #8
 80013ba:	600a      	str	r2, [r1, #0]
 80013bc:	6c22      	ldr	r2, [r4, #64]	; 0x40
 80013be:	2a00      	cmp	r2, #0
 80013c0:	d0a4      	beq.n	800130c <HAL_DMA_IRQHandler+0x54>
 80013c2:	4620      	mov	r0, r4
 80013c4:	4790      	blx	r2
 80013c6:	6de3      	ldr	r3, [r4, #92]	; 0x5c
 80013c8:	e7a0      	b.n	800130c <HAL_DMA_IRQHandler+0x54>
 80013ca:	60ba      	str	r2, [r7, #8]
 80013cc:	6d62      	ldr	r2, [r4, #84]	; 0x54
 80013ce:	f042 0204 	orr.w	r2, r2, #4
 80013d2:	6562      	str	r2, [r4, #84]	; 0x54
 80013d4:	e792      	b.n	80012fc <HAL_DMA_IRQHandler+0x44>
 80013d6:	60ba      	str	r2, [r7, #8]
 80013d8:	6d62      	ldr	r2, [r4, #84]	; 0x54
 80013da:	f042 0202 	orr.w	r2, r2, #2
 80013de:	6562      	str	r2, [r4, #84]	; 0x54
 80013e0:	e784      	b.n	80012ec <HAL_DMA_IRQHandler+0x34>
 80013e2:	0311      	lsls	r1, r2, #12
 80013e4:	d5ea      	bpl.n	80013bc <HAL_DMA_IRQHandler+0x104>
 80013e6:	6ca2      	ldr	r2, [r4, #72]	; 0x48
 80013e8:	2a00      	cmp	r2, #0
 80013ea:	d1ea      	bne.n	80013c2 <HAL_DMA_IRQHandler+0x10a>
 80013ec:	e78e      	b.n	800130c <HAL_DMA_IRQHandler+0x54>
 80013ee:	680a      	ldr	r2, [r1, #0]
 80013f0:	6c20      	ldr	r0, [r4, #64]	; 0x40
 80013f2:	f022 0216 	bic.w	r2, r2, #22
 80013f6:	600a      	str	r2, [r1, #0]
 80013f8:	694a      	ldr	r2, [r1, #20]
 80013fa:	f022 0280 	bic.w	r2, r2, #128	; 0x80
 80013fe:	614a      	str	r2, [r1, #20]
 8001400:	b338      	cbz	r0, 8001452 <HAL_DMA_IRQHandler+0x19a>
 8001402:	680a      	ldr	r2, [r1, #0]
 8001404:	f022 0208 	bic.w	r2, r2, #8
 8001408:	600a      	str	r2, [r1, #0]
 800140a:	223f      	movs	r2, #63	; 0x3f
 800140c:	6d21      	ldr	r1, [r4, #80]	; 0x50
 800140e:	fa02 f303 	lsl.w	r3, r2, r3
 8001412:	2000      	movs	r0, #0
 8001414:	2201      	movs	r2, #1
 8001416:	60bb      	str	r3, [r7, #8]
 8001418:	f884 0034 	strb.w	r0, [r4, #52]	; 0x34
 800141c:	f884 2035 	strb.w	r2, [r4, #53]	; 0x35
 8001420:	2900      	cmp	r1, #0
 8001422:	d0b3      	beq.n	800138c <HAL_DMA_IRQHandler+0xd4>
 8001424:	4620      	mov	r0, r4
 8001426:	b003      	add	sp, #12
 8001428:	e8bd 40f0 	ldmia.w	sp!, {r4, r5, r6, r7, lr}
 800142c:	4708      	bx	r1
 800142e:	f413 7380 	ands.w	r3, r3, #256	; 0x100
 8001432:	d180      	bne.n	8001336 <HAL_DMA_IRQHandler+0x7e>
 8001434:	680a      	ldr	r2, [r1, #0]
 8001436:	2001      	movs	r0, #1
 8001438:	f022 0210 	bic.w	r2, r2, #16
 800143c:	600a      	str	r2, [r1, #0]
 800143e:	f884 3034 	strb.w	r3, [r4, #52]	; 0x34
 8001442:	f884 0035 	strb.w	r0, [r4, #53]	; 0x35
 8001446:	e776      	b.n	8001336 <HAL_DMA_IRQHandler+0x7e>
 8001448:	6c63      	ldr	r3, [r4, #68]	; 0x44
 800144a:	2b00      	cmp	r3, #0
 800144c:	f47f af75 	bne.w	800133a <HAL_DMA_IRQHandler+0x82>
 8001450:	e775      	b.n	800133e <HAL_DMA_IRQHandler+0x86>
 8001452:	6ca2      	ldr	r2, [r4, #72]	; 0x48
 8001454:	2a00      	cmp	r2, #0
 8001456:	d1d4      	bne.n	8001402 <HAL_DMA_IRQHandler+0x14a>
 8001458:	e7d7      	b.n	800140a <HAL_DMA_IRQHandler+0x152>
 800145a:	bf00      	nop
 800145c:	20000128 	.word	0x20000128
 8001460:	1b4e81b5 	.word	0x1b4e81b5

08001464 <HAL_DMA_GetState>:
 8001464:	f890 0035 	ldrb.w	r0, [r0, #53]	; 0x35
 8001468:	4770      	bx	lr
 800146a:	bf00      	nop

0800146c <HAL_GPIO_Init>:
 800146c:	e92d 4ff0 	stmdb	sp!, {r4, r5, r6, r7, r8, r9, sl, fp, lr}
 8001470:	4688      	mov	r8, r1
 8001472:	b083      	sub	sp, #12
 8001474:	f8d1 b000 	ldr.w	fp, [r1]
 8001478:	f8df e198 	ldr.w	lr, [pc, #408]	; 8001614 <HAL_GPIO_Init+0x1a8>
 800147c:	2400      	movs	r4, #0
 800147e:	f04f 0901 	mov.w	r9, #1
 8001482:	e002      	b.n	800148a <HAL_GPIO_Init+0x1e>
 8001484:	3401      	adds	r4, #1
 8001486:	2c10      	cmp	r4, #16
 8001488:	d077      	beq.n	800157a <HAL_GPIO_Init+0x10e>
 800148a:	fa09 f204 	lsl.w	r2, r9, r4
 800148e:	ea0b 0302 	and.w	r3, fp, r2
 8001492:	429a      	cmp	r2, r3
 8001494:	d1f6      	bne.n	8001484 <HAL_GPIO_Init+0x18>
 8001496:	e9d8 2501 	ldrd	r2, r5, [r8, #4]
 800149a:	f022 0c10 	bic.w	ip, r2, #16
 800149e:	0066      	lsls	r6, r4, #1
 80014a0:	f10c 37ff 	add.w	r7, ip, #4294967295
 80014a4:	2103      	movs	r1, #3
 80014a6:	40b1      	lsls	r1, r6
 80014a8:	2f01      	cmp	r7, #1
 80014aa:	ea6f 0101 	mvn.w	r1, r1
 80014ae:	fa05 f506 	lsl.w	r5, r5, r6
 80014b2:	d965      	bls.n	8001580 <HAL_GPIO_Init+0x114>
 80014b4:	68c7      	ldr	r7, [r0, #12]
 80014b6:	400f      	ands	r7, r1
 80014b8:	433d      	orrs	r5, r7
 80014ba:	60c5      	str	r5, [r0, #12]
 80014bc:	6807      	ldr	r7, [r0, #0]
 80014be:	f002 0503 	and.w	r5, r2, #3
 80014c2:	400f      	ands	r7, r1
 80014c4:	fa05 f606 	lsl.w	r6, r5, r6
 80014c8:	433e      	orrs	r6, r7
 80014ca:	00d7      	lsls	r7, r2, #3
 80014cc:	6006      	str	r6, [r0, #0]
 80014ce:	d5d9      	bpl.n	8001484 <HAL_GPIO_Init+0x18>
 80014d0:	4d4b      	ldr	r5, [pc, #300]	; (8001600 <HAL_GPIO_Init+0x194>)
 80014d2:	2100      	movs	r1, #0
 80014d4:	9101      	str	r1, [sp, #4]
 80014d6:	6c69      	ldr	r1, [r5, #68]	; 0x44
 80014d8:	f441 4180 	orr.w	r1, r1, #16384	; 0x4000
 80014dc:	6469      	str	r1, [r5, #68]	; 0x44
 80014de:	6c69      	ldr	r1, [r5, #68]	; 0x44
 80014e0:	f024 0603 	bic.w	r6, r4, #3
 80014e4:	f106 4680 	add.w	r6, r6, #1073741824	; 0x40000000
 80014e8:	f401 4180 	and.w	r1, r1, #16384	; 0x4000
 80014ec:	f506 369c 	add.w	r6, r6, #79872	; 0x13800
 80014f0:	9101      	str	r1, [sp, #4]
 80014f2:	f004 0503 	and.w	r5, r4, #3
 80014f6:	9901      	ldr	r1, [sp, #4]
 80014f8:	68b7      	ldr	r7, [r6, #8]
 80014fa:	00ad      	lsls	r5, r5, #2
 80014fc:	210f      	movs	r1, #15
 80014fe:	40a9      	lsls	r1, r5
 8001500:	ea27 0101 	bic.w	r1, r7, r1
 8001504:	4f3f      	ldr	r7, [pc, #252]	; (8001604 <HAL_GPIO_Init+0x198>)
 8001506:	42b8      	cmp	r0, r7
 8001508:	d011      	beq.n	800152e <HAL_GPIO_Init+0xc2>
 800150a:	f507 6780 	add.w	r7, r7, #1024	; 0x400
 800150e:	42b8      	cmp	r0, r7
 8001510:	d068      	beq.n	80015e4 <HAL_GPIO_Init+0x178>
 8001512:	4f3d      	ldr	r7, [pc, #244]	; (8001608 <HAL_GPIO_Init+0x19c>)
 8001514:	42b8      	cmp	r0, r7
 8001516:	d069      	beq.n	80015ec <HAL_GPIO_Init+0x180>
 8001518:	4f3c      	ldr	r7, [pc, #240]	; (800160c <HAL_GPIO_Init+0x1a0>)
 800151a:	42b8      	cmp	r0, r7
 800151c:	d06b      	beq.n	80015f6 <HAL_GPIO_Init+0x18a>
 800151e:	4f3c      	ldr	r7, [pc, #240]	; (8001610 <HAL_GPIO_Init+0x1a4>)
 8001520:	42b8      	cmp	r0, r7
 8001522:	bf0c      	ite	eq
 8001524:	2704      	moveq	r7, #4
 8001526:	2707      	movne	r7, #7
 8001528:	fa07 f505 	lsl.w	r5, r7, r5
 800152c:	4329      	orrs	r1, r5
 800152e:	60b1      	str	r1, [r6, #8]
 8001530:	f8de 1000 	ldr.w	r1, [lr]
 8001534:	43dd      	mvns	r5, r3
 8001536:	03d6      	lsls	r6, r2, #15
 8001538:	bf54      	ite	pl
 800153a:	4029      	andpl	r1, r5
 800153c:	4319      	orrmi	r1, r3
 800153e:	f8ce 1000 	str.w	r1, [lr]
 8001542:	f8de 1004 	ldr.w	r1, [lr, #4]
 8001546:	0397      	lsls	r7, r2, #14
 8001548:	bf54      	ite	pl
 800154a:	4029      	andpl	r1, r5
 800154c:	4319      	orrmi	r1, r3
 800154e:	f8ce 1004 	str.w	r1, [lr, #4]
 8001552:	f8de 1008 	ldr.w	r1, [lr, #8]
 8001556:	02d6      	lsls	r6, r2, #11
 8001558:	bf54      	ite	pl
 800155a:	4029      	andpl	r1, r5
 800155c:	4319      	orrmi	r1, r3
 800155e:	f8ce 1008 	str.w	r1, [lr, #8]
 8001562:	f8de 100c 	ldr.w	r1, [lr, #12]
 8001566:	0292      	lsls	r2, r2, #10
 8001568:	f104 0401 	add.w	r4, r4, #1
 800156c:	bf54      	ite	pl
 800156e:	4029      	andpl	r1, r5
 8001570:	4319      	orrmi	r1, r3
 8001572:	2c10      	cmp	r4, #16
 8001574:	f8ce 100c 	str.w	r1, [lr, #12]
 8001578:	d187      	bne.n	800148a <HAL_GPIO_Init+0x1e>
 800157a:	b003      	add	sp, #12
 800157c:	e8bd 8ff0 	ldmia.w	sp!, {r4, r5, r6, r7, r8, r9, sl, fp, pc}
 8001580:	6887      	ldr	r7, [r0, #8]
 8001582:	ea07 0a01 	and.w	sl, r7, r1
 8001586:	f8d8 700c 	ldr.w	r7, [r8, #12]
 800158a:	40b7      	lsls	r7, r6
 800158c:	ea47 070a 	orr.w	r7, r7, sl
 8001590:	6087      	str	r7, [r0, #8]
 8001592:	f8d0 a004 	ldr.w	sl, [r0, #4]
 8001596:	f3c2 1700 	ubfx	r7, r2, #4, #1
 800159a:	ea2a 0a03 	bic.w	sl, sl, r3
 800159e:	40a7      	lsls	r7, r4
 80015a0:	ea47 070a 	orr.w	r7, r7, sl
 80015a4:	6047      	str	r7, [r0, #4]
 80015a6:	68c7      	ldr	r7, [r0, #12]
 80015a8:	400f      	ands	r7, r1
 80015aa:	433d      	orrs	r5, r7
 80015ac:	f1bc 0f02 	cmp.w	ip, #2
 80015b0:	60c5      	str	r5, [r0, #12]
 80015b2:	d183      	bne.n	80014bc <HAL_GPIO_Init+0x50>
 80015b4:	ea4f 0ad4 	mov.w	sl, r4, lsr #3
 80015b8:	eb00 0a8a 	add.w	sl, r0, sl, lsl #2
 80015bc:	f004 0507 	and.w	r5, r4, #7
 80015c0:	f8da 7020 	ldr.w	r7, [sl, #32]
 80015c4:	00ad      	lsls	r5, r5, #2
 80015c6:	f04f 0c0f 	mov.w	ip, #15
 80015ca:	fa0c fc05 	lsl.w	ip, ip, r5
 80015ce:	ea27 0c0c 	bic.w	ip, r7, ip
 80015d2:	f8d8 7010 	ldr.w	r7, [r8, #16]
 80015d6:	fa07 f505 	lsl.w	r5, r7, r5
 80015da:	ea45 050c 	orr.w	r5, r5, ip
 80015de:	f8ca 5020 	str.w	r5, [sl, #32]
 80015e2:	e76b      	b.n	80014bc <HAL_GPIO_Init+0x50>
 80015e4:	fa09 f505 	lsl.w	r5, r9, r5
 80015e8:	4329      	orrs	r1, r5
 80015ea:	e7a0      	b.n	800152e <HAL_GPIO_Init+0xc2>
 80015ec:	2702      	movs	r7, #2
 80015ee:	fa07 f505 	lsl.w	r5, r7, r5
 80015f2:	4329      	orrs	r1, r5
 80015f4:	e79b      	b.n	800152e <HAL_GPIO_Init+0xc2>
 80015f6:	2703      	movs	r7, #3
 80015f8:	fa07 f505 	lsl.w	r5, r7, r5
 80015fc:	4329      	orrs	r1, r5
 80015fe:	e796      	b.n	800152e <HAL_GPIO_Init+0xc2>
 8001600:	40023800 	.word	0x40023800
 8001604:	40020000 	.word	0x40020000
 8001608:	40020800 	.word	0x40020800
 800160c:	40020c00 	.word	0x40020c00
 8001610:	40021000 	.word	0x40021000
 8001614:	40013c00 	.word	0x40013c00

08001618 <HAL_GPIO_ReadPin>:
 8001618:	6903      	ldr	r3, [r0, #16]
 800161a:	4219      	tst	r1, r3
 800161c:	bf14      	ite	ne
 800161e:	2001      	movne	r0, #1
 8001620:	2000      	moveq	r0, #0
 8001622:	4770      	bx	lr

08001624 <I2C_WaitOnMasterAddressFlagUntilTimeout>:
 8001624:	e92d 41f0 	stmdb	sp!, {r4, r5, r6, r7, r8, lr}
 8001628:	4607      	mov	r7, r0
 800162a:	4616      	mov	r6, r2
 800162c:	4698      	mov	r8, r3
 800162e:	b28d      	uxth	r5, r1
 8001630:	683c      	ldr	r4, [r7, #0]
 8001632:	e004      	b.n	800163e <I2C_WaitOnMasterAddressFlagUntilTimeout+0x1a>
 8001634:	6961      	ldr	r1, [r4, #20]
 8001636:	054a      	lsls	r2, r1, #21
 8001638:	d407      	bmi.n	800164a <I2C_WaitOnMasterAddressFlagUntilTimeout+0x26>
 800163a:	1c73      	adds	r3, r6, #1
 800163c:	d11c      	bne.n	8001678 <I2C_WaitOnMasterAddressFlagUntilTimeout+0x54>
 800163e:	6960      	ldr	r0, [r4, #20]
 8001640:	ea35 0000 	bics.w	r0, r5, r0
 8001644:	d1f6      	bne.n	8001634 <I2C_WaitOnMasterAddressFlagUntilTimeout+0x10>
 8001646:	e8bd 81f0 	ldmia.w	sp!, {r4, r5, r6, r7, r8, pc}
 800164a:	6823      	ldr	r3, [r4, #0]
 800164c:	2200      	movs	r2, #0
 800164e:	f46f 6080 	mvn.w	r0, #1024	; 0x400
 8001652:	f443 7300 	orr.w	r3, r3, #512	; 0x200
 8001656:	2120      	movs	r1, #32
 8001658:	6023      	str	r3, [r4, #0]
 800165a:	6160      	str	r0, [r4, #20]
 800165c:	633a      	str	r2, [r7, #48]	; 0x30
 800165e:	f887 103d 	strb.w	r1, [r7, #61]	; 0x3d
 8001662:	f887 203e 	strb.w	r2, [r7, #62]	; 0x3e
 8001666:	6c3b      	ldr	r3, [r7, #64]	; 0x40
 8001668:	f887 203c 	strb.w	r2, [r7, #60]	; 0x3c
 800166c:	f043 0304 	orr.w	r3, r3, #4
 8001670:	643b      	str	r3, [r7, #64]	; 0x40
 8001672:	2001      	movs	r0, #1
 8001674:	e8bd 81f0 	ldmia.w	sp!, {r4, r5, r6, r7, r8, pc}
 8001678:	f7ff fc64 	bl	8000f44 <HAL_GetTick>
 800167c:	eba0 0008 	sub.w	r0, r0, r8
 8001680:	42b0      	cmp	r0, r6
 8001682:	d801      	bhi.n	8001688 <I2C_WaitOnMasterAddressFlagUntilTimeout+0x64>
 8001684:	2e00      	cmp	r6, #0
 8001686:	d1d3      	bne.n	8001630 <I2C_WaitOnMasterAddressFlagUntilTimeout+0xc>
 8001688:	2200      	movs	r2, #0
 800168a:	2320      	movs	r3, #32
 800168c:	633a      	str	r2, [r7, #48]	; 0x30
 800168e:	f887 303d 	strb.w	r3, [r7, #61]	; 0x3d
 8001692:	f887 203e 	strb.w	r2, [r7, #62]	; 0x3e
 8001696:	6c3b      	ldr	r3, [r7, #64]	; 0x40
 8001698:	f887 203c 	strb.w	r2, [r7, #60]	; 0x3c
 800169c:	f043 0320 	orr.w	r3, r3, #32
 80016a0:	643b      	str	r3, [r7, #64]	; 0x40
 80016a2:	2001      	movs	r0, #1
 80016a4:	e7cf      	b.n	8001646 <I2C_WaitOnMasterAddressFlagUntilTimeout+0x22>
 80016a6:	bf00      	nop

080016a8 <I2C_MemoryTransmit_TXE_BTF>:
 80016a8:	6d03      	ldr	r3, [r0, #80]	; 0x50
 80016aa:	b95b      	cbnz	r3, 80016c4 <I2C_MemoryTransmit_TXE_BTF+0x1c>
 80016ac:	6cc3      	ldr	r3, [r0, #76]	; 0x4c
 80016ae:	6802      	ldr	r2, [r0, #0]
 80016b0:	2b01      	cmp	r3, #1
 80016b2:	6c83      	ldr	r3, [r0, #72]	; 0x48
 80016b4:	d00d      	beq.n	80016d2 <I2C_MemoryTransmit_TXE_BTF+0x2a>
 80016b6:	f3c3 2307 	ubfx	r3, r3, #8, #8
 80016ba:	6113      	str	r3, [r2, #16]
 80016bc:	6d03      	ldr	r3, [r0, #80]	; 0x50
 80016be:	3301      	adds	r3, #1
 80016c0:	6503      	str	r3, [r0, #80]	; 0x50
 80016c2:	4770      	bx	lr
 80016c4:	6d03      	ldr	r3, [r0, #80]	; 0x50
 80016c6:	2b01      	cmp	r3, #1
 80016c8:	d009      	beq.n	80016de <I2C_MemoryTransmit_TXE_BTF+0x36>
 80016ca:	6d03      	ldr	r3, [r0, #80]	; 0x50
 80016cc:	2b02      	cmp	r3, #2
 80016ce:	d00e      	beq.n	80016ee <I2C_MemoryTransmit_TXE_BTF+0x46>
 80016d0:	4770      	bx	lr
 80016d2:	b2db      	uxtb	r3, r3
 80016d4:	6113      	str	r3, [r2, #16]
 80016d6:	6d03      	ldr	r3, [r0, #80]	; 0x50
 80016d8:	3302      	adds	r3, #2
 80016da:	6503      	str	r3, [r0, #80]	; 0x50
 80016dc:	4770      	bx	lr
 80016de:	6c83      	ldr	r3, [r0, #72]	; 0x48
 80016e0:	6802      	ldr	r2, [r0, #0]
 80016e2:	b2db      	uxtb	r3, r3
 80016e4:	6113      	str	r3, [r2, #16]
 80016e6:	6d03      	ldr	r3, [r0, #80]	; 0x50
 80016e8:	3301      	adds	r3, #1
 80016ea:	6503      	str	r3, [r0, #80]	; 0x50
 80016ec:	4770      	bx	lr
 80016ee:	f890 303d 	ldrb.w	r3, [r0, #61]	; 0x3d
 80016f2:	2b22      	cmp	r3, #34	; 0x22
 80016f4:	d00e      	beq.n	8001714 <I2C_MemoryTransmit_TXE_BTF+0x6c>
 80016f6:	f890 303d 	ldrb.w	r3, [r0, #61]	; 0x3d
 80016fa:	2b21      	cmp	r3, #33	; 0x21
 80016fc:	d1e8      	bne.n	80016d0 <I2C_MemoryTransmit_TXE_BTF+0x28>
 80016fe:	6a42      	ldr	r2, [r0, #36]	; 0x24
 8001700:	6803      	ldr	r3, [r0, #0]
 8001702:	f812 1b01 	ldrb.w	r1, [r2], #1
 8001706:	6119      	str	r1, [r3, #16]
 8001708:	8d43      	ldrh	r3, [r0, #42]	; 0x2a
 800170a:	6242      	str	r2, [r0, #36]	; 0x24
 800170c:	3b01      	subs	r3, #1
 800170e:	b29b      	uxth	r3, r3
 8001710:	8543      	strh	r3, [r0, #42]	; 0x2a
 8001712:	e7dd      	b.n	80016d0 <I2C_MemoryTransmit_TXE_BTF+0x28>
 8001714:	6802      	ldr	r2, [r0, #0]
 8001716:	6813      	ldr	r3, [r2, #0]
 8001718:	f443 7380 	orr.w	r3, r3, #256	; 0x100
 800171c:	6013      	str	r3, [r2, #0]
 800171e:	4770      	bx	lr

08001720 <I2C_WaitOnTXEFlagUntilTimeout>:
 8001720:	b5f8      	push	{r3, r4, r5, r6, r7, lr}
 8001722:	4606      	mov	r6, r0
 8001724:	460d      	mov	r5, r1
 8001726:	4617      	mov	r7, r2
 8001728:	6830      	ldr	r0, [r6, #0]
 800172a:	e004      	b.n	8001736 <I2C_WaitOnTXEFlagUntilTimeout+0x16>
 800172c:	6944      	ldr	r4, [r0, #20]
 800172e:	0562      	lsls	r2, r4, #21
 8001730:	d407      	bmi.n	8001742 <I2C_WaitOnTXEFlagUntilTimeout+0x22>
 8001732:	1c6b      	adds	r3, r5, #1
 8001734:	d116      	bne.n	8001764 <I2C_WaitOnTXEFlagUntilTimeout+0x44>
 8001736:	6943      	ldr	r3, [r0, #20]
 8001738:	f013 0380 	ands.w	r3, r3, #128	; 0x80
 800173c:	d0f6      	beq.n	800172c <I2C_WaitOnTXEFlagUntilTimeout+0xc>
 800173e:	2000      	movs	r0, #0
 8001740:	bdf8      	pop	{r3, r4, r5, r6, r7, pc}
 8001742:	f46f 6180 	mvn.w	r1, #1024	; 0x400
 8001746:	2220      	movs	r2, #32
 8001748:	6141      	str	r1, [r0, #20]
 800174a:	6333      	str	r3, [r6, #48]	; 0x30
 800174c:	f886 203d 	strb.w	r2, [r6, #61]	; 0x3d
 8001750:	f886 303e 	strb.w	r3, [r6, #62]	; 0x3e
 8001754:	6c32      	ldr	r2, [r6, #64]	; 0x40
 8001756:	f886 303c 	strb.w	r3, [r6, #60]	; 0x3c
 800175a:	f042 0204 	orr.w	r2, r2, #4
 800175e:	6432      	str	r2, [r6, #64]	; 0x40
 8001760:	2001      	movs	r0, #1
 8001762:	bdf8      	pop	{r3, r4, r5, r6, r7, pc}
 8001764:	f7ff fbee 	bl	8000f44 <HAL_GetTick>
 8001768:	1bc0      	subs	r0, r0, r7
 800176a:	42a8      	cmp	r0, r5
 800176c:	d801      	bhi.n	8001772 <I2C_WaitOnTXEFlagUntilTimeout+0x52>
 800176e:	2d00      	cmp	r5, #0
 8001770:	d1da      	bne.n	8001728 <I2C_WaitOnTXEFlagUntilTimeout+0x8>
 8001772:	2200      	movs	r2, #0
 8001774:	2320      	movs	r3, #32
 8001776:	6332      	str	r2, [r6, #48]	; 0x30
 8001778:	f886 303d 	strb.w	r3, [r6, #61]	; 0x3d
 800177c:	f886 203e 	strb.w	r2, [r6, #62]	; 0x3e
 8001780:	6c33      	ldr	r3, [r6, #64]	; 0x40
 8001782:	f886 203c 	strb.w	r2, [r6, #60]	; 0x3c
 8001786:	f043 0320 	orr.w	r3, r3, #32
 800178a:	6433      	str	r3, [r6, #64]	; 0x40
 800178c:	2001      	movs	r0, #1
 800178e:	bdf8      	pop	{r3, r4, r5, r6, r7, pc}

08001790 <I2C_WaitOnRXNEFlagUntilTimeout>:
 8001790:	b570      	push	{r4, r5, r6, lr}
 8001792:	4605      	mov	r5, r0
 8001794:	460c      	mov	r4, r1
 8001796:	4616      	mov	r6, r2
 8001798:	e008      	b.n	80017ac <I2C_WaitOnRXNEFlagUntilTimeout+0x1c>
 800179a:	6951      	ldr	r1, [r2, #20]
 800179c:	06c9      	lsls	r1, r1, #27
 800179e:	d41b      	bmi.n	80017d8 <I2C_WaitOnRXNEFlagUntilTimeout+0x48>
 80017a0:	f7ff fbd0 	bl	8000f44 <HAL_GetTick>
 80017a4:	1b80      	subs	r0, r0, r6
 80017a6:	42a0      	cmp	r0, r4
 80017a8:	d807      	bhi.n	80017ba <I2C_WaitOnRXNEFlagUntilTimeout+0x2a>
 80017aa:	b134      	cbz	r4, 80017ba <I2C_WaitOnRXNEFlagUntilTimeout+0x2a>
 80017ac:	682a      	ldr	r2, [r5, #0]
 80017ae:	6953      	ldr	r3, [r2, #20]
 80017b0:	f013 0340 	ands.w	r3, r3, #64	; 0x40
 80017b4:	d0f1      	beq.n	800179a <I2C_WaitOnRXNEFlagUntilTimeout+0xa>
 80017b6:	2000      	movs	r0, #0
 80017b8:	bd70      	pop	{r4, r5, r6, pc}
 80017ba:	2200      	movs	r2, #0
 80017bc:	2320      	movs	r3, #32
 80017be:	632a      	str	r2, [r5, #48]	; 0x30
 80017c0:	f885 303d 	strb.w	r3, [r5, #61]	; 0x3d
 80017c4:	f885 203e 	strb.w	r2, [r5, #62]	; 0x3e
 80017c8:	6c2b      	ldr	r3, [r5, #64]	; 0x40
 80017ca:	f885 203c 	strb.w	r2, [r5, #60]	; 0x3c
 80017ce:	f043 0320 	orr.w	r3, r3, #32
 80017d2:	642b      	str	r3, [r5, #64]	; 0x40
 80017d4:	2001      	movs	r0, #1
 80017d6:	bd70      	pop	{r4, r5, r6, pc}
 80017d8:	f06f 0010 	mvn.w	r0, #16
 80017dc:	2120      	movs	r1, #32
 80017de:	6150      	str	r0, [r2, #20]
 80017e0:	632b      	str	r3, [r5, #48]	; 0x30
 80017e2:	f885 103d 	strb.w	r1, [r5, #61]	; 0x3d
 80017e6:	f885 303e 	strb.w	r3, [r5, #62]	; 0x3e
 80017ea:	6c2a      	ldr	r2, [r5, #64]	; 0x40
 80017ec:	f885 303c 	strb.w	r3, [r5, #60]	; 0x3c
 80017f0:	642a      	str	r2, [r5, #64]	; 0x40
 80017f2:	2001      	movs	r0, #1
 80017f4:	bd70      	pop	{r4, r5, r6, pc}
 80017f6:	bf00      	nop

080017f8 <I2C_WaitOnFlagUntilTimeout>:
 80017f8:	e92d 43f8 	stmdb	sp!, {r3, r4, r5, r6, r7, r8, r9, lr}
 80017fc:	4681      	mov	r9, r0
 80017fe:	4690      	mov	r8, r2
 8001800:	461e      	mov	r6, r3
 8001802:	0c0f      	lsrs	r7, r1, #16
 8001804:	b28c      	uxth	r4, r1
 8001806:	f8d9 5000 	ldr.w	r5, [r9]
 800180a:	e009      	b.n	8001820 <I2C_WaitOnFlagUntilTimeout+0x28>
 800180c:	69a9      	ldr	r1, [r5, #24]
 800180e:	ea34 0301 	bics.w	r3, r4, r1
 8001812:	bf0c      	ite	eq
 8001814:	2001      	moveq	r0, #1
 8001816:	2000      	movne	r0, #0
 8001818:	4580      	cmp	r8, r0
 800181a:	d10b      	bne.n	8001834 <I2C_WaitOnFlagUntilTimeout+0x3c>
 800181c:	1c73      	adds	r3, r6, #1
 800181e:	d10c      	bne.n	800183a <I2C_WaitOnFlagUntilTimeout+0x42>
 8001820:	2f01      	cmp	r7, #1
 8001822:	d1f3      	bne.n	800180c <I2C_WaitOnFlagUntilTimeout+0x14>
 8001824:	696b      	ldr	r3, [r5, #20]
 8001826:	ea34 0303 	bics.w	r3, r4, r3
 800182a:	bf0c      	ite	eq
 800182c:	2001      	moveq	r0, #1
 800182e:	2000      	movne	r0, #0
 8001830:	4580      	cmp	r8, r0
 8001832:	d0f3      	beq.n	800181c <I2C_WaitOnFlagUntilTimeout+0x24>
 8001834:	2000      	movs	r0, #0
 8001836:	e8bd 83f8 	ldmia.w	sp!, {r3, r4, r5, r6, r7, r8, r9, pc}
 800183a:	f7ff fb83 	bl	8000f44 <HAL_GetTick>
 800183e:	9b08      	ldr	r3, [sp, #32]
 8001840:	1ac0      	subs	r0, r0, r3
 8001842:	42b0      	cmp	r0, r6
 8001844:	d801      	bhi.n	800184a <I2C_WaitOnFlagUntilTimeout+0x52>
 8001846:	2e00      	cmp	r6, #0
 8001848:	d1dd      	bne.n	8001806 <I2C_WaitOnFlagUntilTimeout+0xe>
 800184a:	2200      	movs	r2, #0
 800184c:	2320      	movs	r3, #32
 800184e:	f8c9 2030 	str.w	r2, [r9, #48]	; 0x30
 8001852:	f889 303d 	strb.w	r3, [r9, #61]	; 0x3d
 8001856:	f889 203e 	strb.w	r2, [r9, #62]	; 0x3e
 800185a:	f8d9 3040 	ldr.w	r3, [r9, #64]	; 0x40
 800185e:	f889 203c 	strb.w	r2, [r9, #60]	; 0x3c
 8001862:	f043 0320 	orr.w	r3, r3, #32
 8001866:	f8c9 3040 	str.w	r3, [r9, #64]	; 0x40
 800186a:	2001      	movs	r0, #1
 800186c:	e7e3      	b.n	8001836 <I2C_WaitOnFlagUntilTimeout+0x3e>
 800186e:	bf00      	nop

08001870 <I2C_RequestMemoryRead>:
 8001870:	e92d 47f0 	stmdb	sp!, {r4, r5, r6, r7, r8, r9, sl, lr}
 8001874:	6804      	ldr	r4, [r0, #0]
 8001876:	6826      	ldr	r6, [r4, #0]
 8001878:	f446 6680 	orr.w	r6, r6, #1024	; 0x400
 800187c:	6026      	str	r6, [r4, #0]
 800187e:	b084      	sub	sp, #16
 8001880:	6826      	ldr	r6, [r4, #0]
 8001882:	9f0d      	ldr	r7, [sp, #52]	; 0x34
 8001884:	f446 7680 	orr.w	r6, r6, #256	; 0x100
 8001888:	4688      	mov	r8, r1
 800188a:	4691      	mov	r9, r2
 800188c:	469a      	mov	sl, r3
 800188e:	6026      	str	r6, [r4, #0]
 8001890:	9b0c      	ldr	r3, [sp, #48]	; 0x30
 8001892:	9700      	str	r7, [sp, #0]
 8001894:	2200      	movs	r2, #0
 8001896:	f04f 1101 	mov.w	r1, #65537	; 0x10001
 800189a:	4605      	mov	r5, r0
 800189c:	f7ff ffac 	bl	80017f8 <I2C_WaitOnFlagUntilTimeout>
 80018a0:	b158      	cbz	r0, 80018ba <I2C_RequestMemoryRead+0x4a>
 80018a2:	682b      	ldr	r3, [r5, #0]
 80018a4:	681b      	ldr	r3, [r3, #0]
 80018a6:	05db      	lsls	r3, r3, #23
 80018a8:	d403      	bmi.n	80018b2 <I2C_RequestMemoryRead+0x42>
 80018aa:	2003      	movs	r0, #3
 80018ac:	b004      	add	sp, #16
 80018ae:	e8bd 87f0 	ldmia.w	sp!, {r4, r5, r6, r7, r8, r9, sl, pc}
 80018b2:	f44f 7300 	mov.w	r3, #512	; 0x200
 80018b6:	642b      	str	r3, [r5, #64]	; 0x40
 80018b8:	e7f7      	b.n	80018aa <I2C_RequestMemoryRead+0x3a>
 80018ba:	682b      	ldr	r3, [r5, #0]
 80018bc:	492f      	ldr	r1, [pc, #188]	; (800197c <I2C_RequestMemoryRead+0x10c>)
 80018be:	fa5f f888 	uxtb.w	r8, r8
 80018c2:	f008 02fe 	and.w	r2, r8, #254	; 0xfe
 80018c6:	611a      	str	r2, [r3, #16]
 80018c8:	4628      	mov	r0, r5
 80018ca:	463b      	mov	r3, r7
 80018cc:	9a0c      	ldr	r2, [sp, #48]	; 0x30
 80018ce:	f7ff fea9 	bl	8001624 <I2C_WaitOnMasterAddressFlagUntilTimeout>
 80018d2:	b118      	cbz	r0, 80018dc <I2C_RequestMemoryRead+0x6c>
 80018d4:	2001      	movs	r0, #1
 80018d6:	b004      	add	sp, #16
 80018d8:	e8bd 87f0 	ldmia.w	sp!, {r4, r5, r6, r7, r8, r9, sl, pc}
 80018dc:	682b      	ldr	r3, [r5, #0]
 80018de:	9003      	str	r0, [sp, #12]
 80018e0:	695a      	ldr	r2, [r3, #20]
 80018e2:	9203      	str	r2, [sp, #12]
 80018e4:	699b      	ldr	r3, [r3, #24]
 80018e6:	9303      	str	r3, [sp, #12]
 80018e8:	463a      	mov	r2, r7
 80018ea:	990c      	ldr	r1, [sp, #48]	; 0x30
 80018ec:	9b03      	ldr	r3, [sp, #12]
 80018ee:	4628      	mov	r0, r5
 80018f0:	f7ff ff16 	bl	8001720 <I2C_WaitOnTXEFlagUntilTimeout>
 80018f4:	bb48      	cbnz	r0, 800194a <I2C_RequestMemoryRead+0xda>
 80018f6:	f1ba 0f01 	cmp.w	sl, #1
 80018fa:	682b      	ldr	r3, [r5, #0]
 80018fc:	d12e      	bne.n	800195c <I2C_RequestMemoryRead+0xec>
 80018fe:	fa5f f289 	uxtb.w	r2, r9
 8001902:	611a      	str	r2, [r3, #16]
 8001904:	463a      	mov	r2, r7
 8001906:	990c      	ldr	r1, [sp, #48]	; 0x30
 8001908:	4628      	mov	r0, r5
 800190a:	f7ff ff09 	bl	8001720 <I2C_WaitOnTXEFlagUntilTimeout>
 800190e:	b9e0      	cbnz	r0, 800194a <I2C_RequestMemoryRead+0xda>
 8001910:	6829      	ldr	r1, [r5, #0]
 8001912:	680b      	ldr	r3, [r1, #0]
 8001914:	f443 7380 	orr.w	r3, r3, #256	; 0x100
 8001918:	600b      	str	r3, [r1, #0]
 800191a:	4602      	mov	r2, r0
 800191c:	9b0c      	ldr	r3, [sp, #48]	; 0x30
 800191e:	9700      	str	r7, [sp, #0]
 8001920:	f04f 1101 	mov.w	r1, #65537	; 0x10001
 8001924:	4628      	mov	r0, r5
 8001926:	f7ff ff67 	bl	80017f8 <I2C_WaitOnFlagUntilTimeout>
 800192a:	2800      	cmp	r0, #0
 800192c:	d1b9      	bne.n	80018a2 <I2C_RequestMemoryRead+0x32>
 800192e:	6828      	ldr	r0, [r5, #0]
 8001930:	4912      	ldr	r1, [pc, #72]	; (800197c <I2C_RequestMemoryRead+0x10c>)
 8001932:	f048 0201 	orr.w	r2, r8, #1
 8001936:	6102      	str	r2, [r0, #16]
 8001938:	463b      	mov	r3, r7
 800193a:	4628      	mov	r0, r5
 800193c:	9a0c      	ldr	r2, [sp, #48]	; 0x30
 800193e:	f7ff fe71 	bl	8001624 <I2C_WaitOnMasterAddressFlagUntilTimeout>
 8001942:	3000      	adds	r0, #0
 8001944:	bf18      	it	ne
 8001946:	2001      	movne	r0, #1
 8001948:	e7b0      	b.n	80018ac <I2C_RequestMemoryRead+0x3c>
 800194a:	6c2b      	ldr	r3, [r5, #64]	; 0x40
 800194c:	2b04      	cmp	r3, #4
 800194e:	d1c1      	bne.n	80018d4 <I2C_RequestMemoryRead+0x64>
 8001950:	682a      	ldr	r2, [r5, #0]
 8001952:	6813      	ldr	r3, [r2, #0]
 8001954:	f443 7300 	orr.w	r3, r3, #512	; 0x200
 8001958:	6013      	str	r3, [r2, #0]
 800195a:	e7bb      	b.n	80018d4 <I2C_RequestMemoryRead+0x64>
 800195c:	ea4f 2219 	mov.w	r2, r9, lsr #8
 8001960:	611a      	str	r2, [r3, #16]
 8001962:	990c      	ldr	r1, [sp, #48]	; 0x30
 8001964:	463a      	mov	r2, r7
 8001966:	4628      	mov	r0, r5
 8001968:	f7ff feda 	bl	8001720 <I2C_WaitOnTXEFlagUntilTimeout>
 800196c:	2800      	cmp	r0, #0
 800196e:	d1ec      	bne.n	800194a <I2C_RequestMemoryRead+0xda>
 8001970:	682a      	ldr	r2, [r5, #0]
 8001972:	fa5f f389 	uxtb.w	r3, r9
 8001976:	6113      	str	r3, [r2, #16]
 8001978:	e7c4      	b.n	8001904 <I2C_RequestMemoryRead+0x94>
 800197a:	bf00      	nop
 800197c:	00010002 	.word	0x00010002

08001980 <I2C_WaitOnBTFFlagUntilTimeout>:
 8001980:	b5f8      	push	{r3, r4, r5, r6, r7, lr}
 8001982:	4606      	mov	r6, r0
 8001984:	460d      	mov	r5, r1
 8001986:	4617      	mov	r7, r2
 8001988:	6830      	ldr	r0, [r6, #0]
 800198a:	e004      	b.n	8001996 <I2C_WaitOnBTFFlagUntilTimeout+0x16>
 800198c:	6944      	ldr	r4, [r0, #20]
 800198e:	0562      	lsls	r2, r4, #21
 8001990:	d407      	bmi.n	80019a2 <I2C_WaitOnBTFFlagUntilTimeout+0x22>
 8001992:	1c6b      	adds	r3, r5, #1
 8001994:	d116      	bne.n	80019c4 <I2C_WaitOnBTFFlagUntilTimeout+0x44>
 8001996:	6943      	ldr	r3, [r0, #20]
 8001998:	f013 0304 	ands.w	r3, r3, #4
 800199c:	d0f6      	beq.n	800198c <I2C_WaitOnBTFFlagUntilTimeout+0xc>
 800199e:	2000      	movs	r0, #0
 80019a0:	bdf8      	pop	{r3, r4, r5, r6, r7, pc}
 80019a2:	f46f 6180 	mvn.w	r1, #1024	; 0x400
 80019a6:	2220      	movs	r2, #32
 80019a8:	6141      	str	r1, [r0, #20]
 80019aa:	6333      	str	r3, [r6, #48]	; 0x30
 80019ac:	f886 203d 	strb.w	r2, [r6, #61]	; 0x3d
 80019b0:	f886 303e 	strb.w	r3, [r6, #62]	; 0x3e
 80019b4:	6c32      	ldr	r2, [r6, #64]	; 0x40
 80019b6:	f886 303c 	strb.w	r3, [r6, #60]	; 0x3c
 80019ba:	f042 0204 	orr.w	r2, r2, #4
 80019be:	6432      	str	r2, [r6, #64]	; 0x40
 80019c0:	2001      	movs	r0, #1
 80019c2:	bdf8      	pop	{r3, r4, r5, r6, r7, pc}
 80019c4:	f7ff fabe 	bl	8000f44 <HAL_GetTick>
 80019c8:	1bc0      	subs	r0, r0, r7
 80019ca:	42a8      	cmp	r0, r5
 80019cc:	d801      	bhi.n	80019d2 <I2C_WaitOnBTFFlagUntilTimeout+0x52>
 80019ce:	2d00      	cmp	r5, #0
 80019d0:	d1da      	bne.n	8001988 <I2C_WaitOnBTFFlagUntilTimeout+0x8>
 80019d2:	2200      	movs	r2, #0
 80019d4:	2320      	movs	r3, #32
 80019d6:	6332      	str	r2, [r6, #48]	; 0x30
 80019d8:	f886 303d 	strb.w	r3, [r6, #61]	; 0x3d
 80019dc:	f886 203e 	strb.w	r2, [r6, #62]	; 0x3e
 80019e0:	6c33      	ldr	r3, [r6, #64]	; 0x40
 80019e2:	f886 203c 	strb.w	r2, [r6, #60]	; 0x3c
 80019e6:	f043 0320 	orr.w	r3, r3, #32
 80019ea:	6433      	str	r3, [r6, #64]	; 0x40
 80019ec:	2001      	movs	r0, #1
 80019ee:	bdf8      	pop	{r3, r4, r5, r6, r7, pc}

080019f0 <HAL_I2C_Init>:
 80019f0:	2800      	cmp	r0, #0
 80019f2:	f000 809f 	beq.w	8001b34 <HAL_I2C_Init+0x144>
 80019f6:	b5f8      	push	{r3, r4, r5, r6, r7, lr}
 80019f8:	f890 303d 	ldrb.w	r3, [r0, #61]	; 0x3d
 80019fc:	4604      	mov	r4, r0
 80019fe:	f003 02ff 	and.w	r2, r3, #255	; 0xff
 8001a02:	2b00      	cmp	r3, #0
 8001a04:	f000 808f 	beq.w	8001b26 <HAL_I2C_Init+0x136>
 8001a08:	6823      	ldr	r3, [r4, #0]
 8001a0a:	2224      	movs	r2, #36	; 0x24
 8001a0c:	f884 203d 	strb.w	r2, [r4, #61]	; 0x3d
 8001a10:	681a      	ldr	r2, [r3, #0]
 8001a12:	f022 0201 	bic.w	r2, r2, #1
 8001a16:	601a      	str	r2, [r3, #0]
 8001a18:	681a      	ldr	r2, [r3, #0]
 8001a1a:	f442 4200 	orr.w	r2, r2, #32768	; 0x8000
 8001a1e:	601a      	str	r2, [r3, #0]
 8001a20:	681a      	ldr	r2, [r3, #0]
 8001a22:	f422 4200 	bic.w	r2, r2, #32768	; 0x8000
 8001a26:	601a      	str	r2, [r3, #0]
 8001a28:	f002 fcd8 	bl	80043dc <HAL_RCC_GetPCLK1Freq>
 8001a2c:	6861      	ldr	r1, [r4, #4]
 8001a2e:	4b4b      	ldr	r3, [pc, #300]	; (8001b5c <HAL_I2C_Init+0x16c>)
 8001a30:	4299      	cmp	r1, r3
 8001a32:	d84b      	bhi.n	8001acc <HAL_I2C_Init+0xdc>
 8001a34:	4b4a      	ldr	r3, [pc, #296]	; (8001b60 <HAL_I2C_Init+0x170>)
 8001a36:	4298      	cmp	r0, r3
 8001a38:	d97a      	bls.n	8001b30 <HAL_I2C_Init+0x140>
 8001a3a:	6822      	ldr	r2, [r4, #0]
 8001a3c:	4b49      	ldr	r3, [pc, #292]	; (8001b64 <HAL_I2C_Init+0x174>)
 8001a3e:	6855      	ldr	r5, [r2, #4]
 8001a40:	fba3 6300 	umull	r6, r3, r3, r0
 8001a44:	0c9b      	lsrs	r3, r3, #18
 8001a46:	f025 053f 	bic.w	r5, r5, #63	; 0x3f
 8001a4a:	431d      	orrs	r5, r3
 8001a4c:	6055      	str	r5, [r2, #4]
 8001a4e:	6a15      	ldr	r5, [r2, #32]
 8001a50:	3301      	adds	r3, #1
 8001a52:	f025 053f 	bic.w	r5, r5, #63	; 0x3f
 8001a56:	432b      	orrs	r3, r5
 8001a58:	6213      	str	r3, [r2, #32]
 8001a5a:	69d5      	ldr	r5, [r2, #28]
 8001a5c:	0049      	lsls	r1, r1, #1
 8001a5e:	1e43      	subs	r3, r0, #1
 8001a60:	fbb3 f3f1 	udiv	r3, r3, r1
 8001a64:	3301      	adds	r3, #1
 8001a66:	f3c3 030b 	ubfx	r3, r3, #0, #12
 8001a6a:	f425 454f 	bic.w	r5, r5, #52992	; 0xcf00
 8001a6e:	2b04      	cmp	r3, #4
 8001a70:	bf38      	it	cc
 8001a72:	2304      	movcc	r3, #4
 8001a74:	f025 05ff 	bic.w	r5, r5, #255	; 0xff
 8001a78:	432b      	orrs	r3, r5
 8001a7a:	61d3      	str	r3, [r2, #28]
 8001a7c:	e9d4 3507 	ldrd	r3, r5, [r4, #28]
 8001a80:	6810      	ldr	r0, [r2, #0]
 8001a82:	6921      	ldr	r1, [r4, #16]
 8001a84:	f020 00c0 	bic.w	r0, r0, #192	; 0xc0
 8001a88:	432b      	orrs	r3, r5
 8001a8a:	4303      	orrs	r3, r0
 8001a8c:	6013      	str	r3, [r2, #0]
 8001a8e:	6890      	ldr	r0, [r2, #8]
 8001a90:	68e5      	ldr	r5, [r4, #12]
 8001a92:	6963      	ldr	r3, [r4, #20]
 8001a94:	f420 4003 	bic.w	r0, r0, #33536	; 0x8300
 8001a98:	f020 00ff 	bic.w	r0, r0, #255	; 0xff
 8001a9c:	4329      	orrs	r1, r5
 8001a9e:	4301      	orrs	r1, r0
 8001aa0:	6091      	str	r1, [r2, #8]
 8001aa2:	68d1      	ldr	r1, [r2, #12]
 8001aa4:	69a0      	ldr	r0, [r4, #24]
 8001aa6:	f021 01ff 	bic.w	r1, r1, #255	; 0xff
 8001aaa:	4303      	orrs	r3, r0
 8001aac:	430b      	orrs	r3, r1
 8001aae:	60d3      	str	r3, [r2, #12]
 8001ab0:	6811      	ldr	r1, [r2, #0]
 8001ab2:	2300      	movs	r3, #0
 8001ab4:	f041 0101 	orr.w	r1, r1, #1
 8001ab8:	2520      	movs	r5, #32
 8001aba:	6011      	str	r1, [r2, #0]
 8001abc:	4618      	mov	r0, r3
 8001abe:	6423      	str	r3, [r4, #64]	; 0x40
 8001ac0:	f884 503d 	strb.w	r5, [r4, #61]	; 0x3d
 8001ac4:	6323      	str	r3, [r4, #48]	; 0x30
 8001ac6:	f884 303e 	strb.w	r3, [r4, #62]	; 0x3e
 8001aca:	bdf8      	pop	{r3, r4, r5, r6, r7, pc}
 8001acc:	4b26      	ldr	r3, [pc, #152]	; (8001b68 <HAL_I2C_Init+0x178>)
 8001ace:	4298      	cmp	r0, r3
 8001ad0:	d92e      	bls.n	8001b30 <HAL_I2C_Init+0x140>
 8001ad2:	6822      	ldr	r2, [r4, #0]
 8001ad4:	4b23      	ldr	r3, [pc, #140]	; (8001b64 <HAL_I2C_Init+0x174>)
 8001ad6:	6856      	ldr	r6, [r2, #4]
 8001ad8:	4f24      	ldr	r7, [pc, #144]	; (8001b6c <HAL_I2C_Init+0x17c>)
 8001ada:	fba3 5300 	umull	r5, r3, r3, r0
 8001ade:	0c9d      	lsrs	r5, r3, #18
 8001ae0:	f026 063f 	bic.w	r6, r6, #63	; 0x3f
 8001ae4:	432e      	orrs	r6, r5
 8001ae6:	f44f 7396 	mov.w	r3, #300	; 0x12c
 8001aea:	6056      	str	r6, [r2, #4]
 8001aec:	fb03 f305 	mul.w	r3, r3, r5
 8001af0:	fba7 5303 	umull	r5, r3, r7, r3
 8001af4:	6a15      	ldr	r5, [r2, #32]
 8001af6:	68a6      	ldr	r6, [r4, #8]
 8001af8:	099b      	lsrs	r3, r3, #6
 8001afa:	f025 053f 	bic.w	r5, r5, #63	; 0x3f
 8001afe:	3301      	adds	r3, #1
 8001b00:	432b      	orrs	r3, r5
 8001b02:	6213      	str	r3, [r2, #32]
 8001b04:	69d5      	ldr	r5, [r2, #28]
 8001b06:	f425 454f 	bic.w	r5, r5, #52992	; 0xcf00
 8001b0a:	3801      	subs	r0, #1
 8001b0c:	f025 05ff 	bic.w	r5, r5, #255	; 0xff
 8001b10:	b996      	cbnz	r6, 8001b38 <HAL_I2C_Init+0x148>
 8001b12:	eb01 0141 	add.w	r1, r1, r1, lsl #1
 8001b16:	fbb0 f0f1 	udiv	r0, r0, r1
 8001b1a:	3001      	adds	r0, #1
 8001b1c:	f3c0 000b 	ubfx	r0, r0, #0, #12
 8001b20:	b9c0      	cbnz	r0, 8001b54 <HAL_I2C_Init+0x164>
 8001b22:	2301      	movs	r3, #1
 8001b24:	e7a8      	b.n	8001a78 <HAL_I2C_Init+0x88>
 8001b26:	f880 203c 	strb.w	r2, [r0, #60]	; 0x3c
 8001b2a:	f006 f85f 	bl	8007bec <HAL_I2C_MspInit>
 8001b2e:	e76b      	b.n	8001a08 <HAL_I2C_Init+0x18>
 8001b30:	2001      	movs	r0, #1
 8001b32:	bdf8      	pop	{r3, r4, r5, r6, r7, pc}
 8001b34:	2001      	movs	r0, #1
 8001b36:	4770      	bx	lr
 8001b38:	eb01 0181 	add.w	r1, r1, r1, lsl #2
 8001b3c:	eb01 0181 	add.w	r1, r1, r1, lsl #2
 8001b40:	fbb0 f0f1 	udiv	r0, r0, r1
 8001b44:	3001      	adds	r0, #1
 8001b46:	f3c0 000b 	ubfx	r0, r0, #0, #12
 8001b4a:	2800      	cmp	r0, #0
 8001b4c:	d0e9      	beq.n	8001b22 <HAL_I2C_Init+0x132>
 8001b4e:	f440 4340 	orr.w	r3, r0, #49152	; 0xc000
 8001b52:	e791      	b.n	8001a78 <HAL_I2C_Init+0x88>
 8001b54:	f440 4300 	orr.w	r3, r0, #32768	; 0x8000
 8001b58:	e78e      	b.n	8001a78 <HAL_I2C_Init+0x88>
 8001b5a:	bf00      	nop
 8001b5c:	000186a0 	.word	0x000186a0
 8001b60:	001e847f 	.word	0x001e847f
 8001b64:	431bde83 	.word	0x431bde83
 8001b68:	003d08ff 	.word	0x003d08ff
 8001b6c:	10624dd3 	.word	0x10624dd3

08001b70 <HAL_I2C_Master_Transmit>:
 8001b70:	e92d 41f0 	stmdb	sp!, {r4, r5, r6, r7, r8, lr}
 8001b74:	4604      	mov	r4, r0
 8001b76:	b084      	sub	sp, #16
 8001b78:	4698      	mov	r8, r3
 8001b7a:	460e      	mov	r6, r1
 8001b7c:	4617      	mov	r7, r2
 8001b7e:	f7ff f9e1 	bl	8000f44 <HAL_GetTick>
 8001b82:	f894 303d 	ldrb.w	r3, [r4, #61]	; 0x3d
 8001b86:	2b20      	cmp	r3, #32
 8001b88:	d004      	beq.n	8001b94 <HAL_I2C_Master_Transmit+0x24>
 8001b8a:	2602      	movs	r6, #2
 8001b8c:	4630      	mov	r0, r6
 8001b8e:	b004      	add	sp, #16
 8001b90:	e8bd 81f0 	ldmia.w	sp!, {r4, r5, r6, r7, r8, pc}
 8001b94:	4605      	mov	r5, r0
 8001b96:	9000      	str	r0, [sp, #0]
 8001b98:	2319      	movs	r3, #25
 8001b9a:	2201      	movs	r2, #1
 8001b9c:	4961      	ldr	r1, [pc, #388]	; (8001d24 <HAL_I2C_Master_Transmit+0x1b4>)
 8001b9e:	4620      	mov	r0, r4
 8001ba0:	f7ff fe2a 	bl	80017f8 <I2C_WaitOnFlagUntilTimeout>
 8001ba4:	2800      	cmp	r0, #0
 8001ba6:	d1f0      	bne.n	8001b8a <HAL_I2C_Master_Transmit+0x1a>
 8001ba8:	f894 303c 	ldrb.w	r3, [r4, #60]	; 0x3c
 8001bac:	2b01      	cmp	r3, #1
 8001bae:	d0ec      	beq.n	8001b8a <HAL_I2C_Master_Transmit+0x1a>
 8001bb0:	6823      	ldr	r3, [r4, #0]
 8001bb2:	681a      	ldr	r2, [r3, #0]
 8001bb4:	2101      	movs	r1, #1
 8001bb6:	07d2      	lsls	r2, r2, #31
 8001bb8:	f884 103c 	strb.w	r1, [r4, #60]	; 0x3c
 8001bbc:	d402      	bmi.n	8001bc4 <HAL_I2C_Master_Transmit+0x54>
 8001bbe:	681a      	ldr	r2, [r3, #0]
 8001bc0:	430a      	orrs	r2, r1
 8001bc2:	601a      	str	r2, [r3, #0]
 8001bc4:	681a      	ldr	r2, [r3, #0]
 8001bc6:	4858      	ldr	r0, [pc, #352]	; (8001d28 <HAL_I2C_Master_Transmit+0x1b8>)
 8001bc8:	f422 6200 	bic.w	r2, r2, #2048	; 0x800
 8001bcc:	601a      	str	r2, [r3, #0]
 8001bce:	2221      	movs	r2, #33	; 0x21
 8001bd0:	f884 203d 	strb.w	r2, [r4, #61]	; 0x3d
 8001bd4:	2210      	movs	r2, #16
 8001bd6:	f884 203e 	strb.w	r2, [r4, #62]	; 0x3e
 8001bda:	2200      	movs	r2, #0
 8001bdc:	6422      	str	r2, [r4, #64]	; 0x40
 8001bde:	f8a4 802a 	strh.w	r8, [r4, #42]	; 0x2a
 8001be2:	8d61      	ldrh	r1, [r4, #42]	; 0x2a
 8001be4:	62e0      	str	r0, [r4, #44]	; 0x2c
 8001be6:	6ae2      	ldr	r2, [r4, #44]	; 0x2c
 8001be8:	6267      	str	r7, [r4, #36]	; 0x24
 8001bea:	2a08      	cmp	r2, #8
 8001bec:	8521      	strh	r1, [r4, #40]	; 0x28
 8001bee:	d006      	beq.n	8001bfe <HAL_I2C_Master_Transmit+0x8e>
 8001bf0:	2a01      	cmp	r2, #1
 8001bf2:	d004      	beq.n	8001bfe <HAL_I2C_Master_Transmit+0x8e>
 8001bf4:	4282      	cmp	r2, r0
 8001bf6:	d002      	beq.n	8001bfe <HAL_I2C_Master_Transmit+0x8e>
 8001bf8:	6b22      	ldr	r2, [r4, #48]	; 0x30
 8001bfa:	2a12      	cmp	r2, #18
 8001bfc:	d103      	bne.n	8001c06 <HAL_I2C_Master_Transmit+0x96>
 8001bfe:	681a      	ldr	r2, [r3, #0]
 8001c00:	f442 7280 	orr.w	r2, r2, #256	; 0x100
 8001c04:	601a      	str	r2, [r3, #0]
 8001c06:	9500      	str	r5, [sp, #0]
 8001c08:	9b0a      	ldr	r3, [sp, #40]	; 0x28
 8001c0a:	2200      	movs	r2, #0
 8001c0c:	f04f 1101 	mov.w	r1, #65537	; 0x10001
 8001c10:	4620      	mov	r0, r4
 8001c12:	f7ff fdf1 	bl	80017f8 <I2C_WaitOnFlagUntilTimeout>
 8001c16:	b158      	cbz	r0, 8001c30 <HAL_I2C_Master_Transmit+0xc0>
 8001c18:	6823      	ldr	r3, [r4, #0]
 8001c1a:	681b      	ldr	r3, [r3, #0]
 8001c1c:	05db      	lsls	r3, r3, #23
 8001c1e:	bf44      	itt	mi
 8001c20:	f44f 7300 	movmi.w	r3, #512	; 0x200
 8001c24:	6423      	strmi	r3, [r4, #64]	; 0x40
 8001c26:	2601      	movs	r6, #1
 8001c28:	4630      	mov	r0, r6
 8001c2a:	b004      	add	sp, #16
 8001c2c:	e8bd 81f0 	ldmia.w	sp!, {r4, r5, r6, r7, r8, pc}
 8001c30:	6923      	ldr	r3, [r4, #16]
 8001c32:	6822      	ldr	r2, [r4, #0]
 8001c34:	f5b3 4f80 	cmp.w	r3, #16384	; 0x4000
 8001c38:	d161      	bne.n	8001cfe <HAL_I2C_Master_Transmit+0x18e>
 8001c3a:	f006 06fe 	and.w	r6, r6, #254	; 0xfe
 8001c3e:	6116      	str	r6, [r2, #16]
 8001c40:	462b      	mov	r3, r5
 8001c42:	9a0a      	ldr	r2, [sp, #40]	; 0x28
 8001c44:	4939      	ldr	r1, [pc, #228]	; (8001d2c <HAL_I2C_Master_Transmit+0x1bc>)
 8001c46:	4620      	mov	r0, r4
 8001c48:	f7ff fcec 	bl	8001624 <I2C_WaitOnMasterAddressFlagUntilTimeout>
 8001c4c:	4606      	mov	r6, r0
 8001c4e:	2800      	cmp	r0, #0
 8001c50:	d1e9      	bne.n	8001c26 <HAL_I2C_Master_Transmit+0xb6>
 8001c52:	6823      	ldr	r3, [r4, #0]
 8001c54:	9003      	str	r0, [sp, #12]
 8001c56:	695a      	ldr	r2, [r3, #20]
 8001c58:	9203      	str	r2, [sp, #12]
 8001c5a:	699b      	ldr	r3, [r3, #24]
 8001c5c:	9303      	str	r3, [sp, #12]
 8001c5e:	9b03      	ldr	r3, [sp, #12]
 8001c60:	e030      	b.n	8001cc4 <HAL_I2C_Master_Transmit+0x154>
 8001c62:	f7ff fd5d 	bl	8001720 <I2C_WaitOnTXEFlagUntilTimeout>
 8001c66:	462a      	mov	r2, r5
 8001c68:	990a      	ldr	r1, [sp, #40]	; 0x28
 8001c6a:	2800      	cmp	r0, #0
 8001c6c:	d13d      	bne.n	8001cea <HAL_I2C_Master_Transmit+0x17a>
 8001c6e:	f8d4 c024 	ldr.w	ip, [r4, #36]	; 0x24
 8001c72:	6827      	ldr	r7, [r4, #0]
 8001c74:	f8b4 e028 	ldrh.w	lr, [r4, #40]	; 0x28
 8001c78:	46e0      	mov	r8, ip
 8001c7a:	4620      	mov	r0, r4
 8001c7c:	f818 3b01 	ldrb.w	r3, [r8], #1
 8001c80:	613b      	str	r3, [r7, #16]
 8001c82:	8d63      	ldrh	r3, [r4, #42]	; 0x2a
 8001c84:	f8c4 8024 	str.w	r8, [r4, #36]	; 0x24
 8001c88:	3b01      	subs	r3, #1
 8001c8a:	b29b      	uxth	r3, r3
 8001c8c:	8563      	strh	r3, [r4, #42]	; 0x2a
 8001c8e:	f8d7 8014 	ldr.w	r8, [r7, #20]
 8001c92:	f10e 33ff 	add.w	r3, lr, #4294967295
 8001c96:	b29b      	uxth	r3, r3
 8001c98:	f018 0f04 	tst.w	r8, #4
 8001c9c:	8523      	strh	r3, [r4, #40]	; 0x28
 8001c9e:	d00e      	beq.n	8001cbe <HAL_I2C_Master_Transmit+0x14e>
 8001ca0:	b16b      	cbz	r3, 8001cbe <HAL_I2C_Master_Transmit+0x14e>
 8001ca2:	f89c 3001 	ldrb.w	r3, [ip, #1]
 8001ca6:	613b      	str	r3, [r7, #16]
 8001ca8:	8d67      	ldrh	r7, [r4, #42]	; 0x2a
 8001caa:	3f01      	subs	r7, #1
 8001cac:	f1ae 0e02 	sub.w	lr, lr, #2
 8001cb0:	f10c 0302 	add.w	r3, ip, #2
 8001cb4:	b2bf      	uxth	r7, r7
 8001cb6:	f8a4 e028 	strh.w	lr, [r4, #40]	; 0x28
 8001cba:	6263      	str	r3, [r4, #36]	; 0x24
 8001cbc:	8567      	strh	r7, [r4, #42]	; 0x2a
 8001cbe:	f7ff fe5f 	bl	8001980 <I2C_WaitOnBTFFlagUntilTimeout>
 8001cc2:	b990      	cbnz	r0, 8001cea <HAL_I2C_Master_Transmit+0x17a>
 8001cc4:	8d23      	ldrh	r3, [r4, #40]	; 0x28
 8001cc6:	990a      	ldr	r1, [sp, #40]	; 0x28
 8001cc8:	462a      	mov	r2, r5
 8001cca:	4620      	mov	r0, r4
 8001ccc:	2b00      	cmp	r3, #0
 8001cce:	d1c8      	bne.n	8001c62 <HAL_I2C_Master_Transmit+0xf2>
 8001cd0:	6821      	ldr	r1, [r4, #0]
 8001cd2:	680a      	ldr	r2, [r1, #0]
 8001cd4:	2020      	movs	r0, #32
 8001cd6:	f442 7200 	orr.w	r2, r2, #512	; 0x200
 8001cda:	600a      	str	r2, [r1, #0]
 8001cdc:	f884 003d 	strb.w	r0, [r4, #61]	; 0x3d
 8001ce0:	f884 303c 	strb.w	r3, [r4, #60]	; 0x3c
 8001ce4:	f884 303e 	strb.w	r3, [r4, #62]	; 0x3e
 8001ce8:	e750      	b.n	8001b8c <HAL_I2C_Master_Transmit+0x1c>
 8001cea:	6c23      	ldr	r3, [r4, #64]	; 0x40
 8001cec:	2b04      	cmp	r3, #4
 8001cee:	d19a      	bne.n	8001c26 <HAL_I2C_Master_Transmit+0xb6>
 8001cf0:	6822      	ldr	r2, [r4, #0]
 8001cf2:	6813      	ldr	r3, [r2, #0]
 8001cf4:	f443 7300 	orr.w	r3, r3, #512	; 0x200
 8001cf8:	6013      	str	r3, [r2, #0]
 8001cfa:	2601      	movs	r6, #1
 8001cfc:	e746      	b.n	8001b8c <HAL_I2C_Master_Transmit+0x1c>
 8001cfe:	11f3      	asrs	r3, r6, #7
 8001d00:	f003 0306 	and.w	r3, r3, #6
 8001d04:	f043 03f0 	orr.w	r3, r3, #240	; 0xf0
 8001d08:	6113      	str	r3, [r2, #16]
 8001d0a:	4909      	ldr	r1, [pc, #36]	; (8001d30 <HAL_I2C_Master_Transmit+0x1c0>)
 8001d0c:	9a0a      	ldr	r2, [sp, #40]	; 0x28
 8001d0e:	462b      	mov	r3, r5
 8001d10:	4620      	mov	r0, r4
 8001d12:	f7ff fc87 	bl	8001624 <I2C_WaitOnMasterAddressFlagUntilTimeout>
 8001d16:	2800      	cmp	r0, #0
 8001d18:	d185      	bne.n	8001c26 <HAL_I2C_Master_Transmit+0xb6>
 8001d1a:	6823      	ldr	r3, [r4, #0]
 8001d1c:	b2f6      	uxtb	r6, r6
 8001d1e:	611e      	str	r6, [r3, #16]
 8001d20:	e78e      	b.n	8001c40 <HAL_I2C_Master_Transmit+0xd0>
 8001d22:	bf00      	nop
 8001d24:	00100002 	.word	0x00100002
 8001d28:	ffff0000 	.word	0xffff0000
 8001d2c:	00010002 	.word	0x00010002
 8001d30:	00010008 	.word	0x00010008

08001d34 <HAL_I2C_Mem_Read>:
 8001d34:	e92d 43f0 	stmdb	sp!, {r4, r5, r6, r7, r8, r9, lr}
 8001d38:	4604      	mov	r4, r0
 8001d3a:	b087      	sub	sp, #28
 8001d3c:	4698      	mov	r8, r3
 8001d3e:	460e      	mov	r6, r1
 8001d40:	4617      	mov	r7, r2
 8001d42:	f8bd 903c 	ldrh.w	r9, [sp, #60]	; 0x3c
 8001d46:	f7ff f8fd 	bl	8000f44 <HAL_GetTick>
 8001d4a:	f894 303d 	ldrb.w	r3, [r4, #61]	; 0x3d
 8001d4e:	2b20      	cmp	r3, #32
 8001d50:	d004      	beq.n	8001d5c <HAL_I2C_Mem_Read+0x28>
 8001d52:	2602      	movs	r6, #2
 8001d54:	4630      	mov	r0, r6
 8001d56:	b007      	add	sp, #28
 8001d58:	e8bd 83f0 	ldmia.w	sp!, {r4, r5, r6, r7, r8, r9, pc}
 8001d5c:	4605      	mov	r5, r0
 8001d5e:	9000      	str	r0, [sp, #0]
 8001d60:	2319      	movs	r3, #25
 8001d62:	2201      	movs	r2, #1
 8001d64:	497c      	ldr	r1, [pc, #496]	; (8001f58 <HAL_I2C_Mem_Read+0x224>)
 8001d66:	4620      	mov	r0, r4
 8001d68:	f7ff fd46 	bl	80017f8 <I2C_WaitOnFlagUntilTimeout>
 8001d6c:	2800      	cmp	r0, #0
 8001d6e:	d1f0      	bne.n	8001d52 <HAL_I2C_Mem_Read+0x1e>
 8001d70:	f894 303c 	ldrb.w	r3, [r4, #60]	; 0x3c
 8001d74:	2b01      	cmp	r3, #1
 8001d76:	d0ec      	beq.n	8001d52 <HAL_I2C_Mem_Read+0x1e>
 8001d78:	6823      	ldr	r3, [r4, #0]
 8001d7a:	681a      	ldr	r2, [r3, #0]
 8001d7c:	2101      	movs	r1, #1
 8001d7e:	07d0      	lsls	r0, r2, #31
 8001d80:	f884 103c 	strb.w	r1, [r4, #60]	; 0x3c
 8001d84:	d402      	bmi.n	8001d8c <HAL_I2C_Mem_Read+0x58>
 8001d86:	681a      	ldr	r2, [r3, #0]
 8001d88:	430a      	orrs	r2, r1
 8001d8a:	601a      	str	r2, [r3, #0]
 8001d8c:	681a      	ldr	r2, [r3, #0]
 8001d8e:	4873      	ldr	r0, [pc, #460]	; (8001f5c <HAL_I2C_Mem_Read+0x228>)
 8001d90:	f422 6200 	bic.w	r2, r2, #2048	; 0x800
 8001d94:	601a      	str	r2, [r3, #0]
 8001d96:	2322      	movs	r3, #34	; 0x22
 8001d98:	f884 303d 	strb.w	r3, [r4, #61]	; 0x3d
 8001d9c:	2240      	movs	r2, #64	; 0x40
 8001d9e:	2300      	movs	r3, #0
 8001da0:	f884 203e 	strb.w	r2, [r4, #62]	; 0x3e
 8001da4:	6423      	str	r3, [r4, #64]	; 0x40
 8001da6:	f8a4 902a 	strh.w	r9, [r4, #42]	; 0x2a
 8001daa:	f8b4 c02a 	ldrh.w	ip, [r4, #42]	; 0x2a
 8001dae:	9b0e      	ldr	r3, [sp, #56]	; 0x38
 8001db0:	6263      	str	r3, [r4, #36]	; 0x24
 8001db2:	4631      	mov	r1, r6
 8001db4:	9e10      	ldr	r6, [sp, #64]	; 0x40
 8001db6:	9600      	str	r6, [sp, #0]
 8001db8:	9501      	str	r5, [sp, #4]
 8001dba:	4643      	mov	r3, r8
 8001dbc:	62e0      	str	r0, [r4, #44]	; 0x2c
 8001dbe:	463a      	mov	r2, r7
 8001dc0:	f8a4 c028 	strh.w	ip, [r4, #40]	; 0x28
 8001dc4:	4620      	mov	r0, r4
 8001dc6:	f7ff fd53 	bl	8001870 <I2C_RequestMemoryRead>
 8001dca:	4606      	mov	r6, r0
 8001dcc:	b9a8      	cbnz	r0, 8001dfa <HAL_I2C_Mem_Read+0xc6>
 8001dce:	8d23      	ldrh	r3, [r4, #40]	; 0x28
 8001dd0:	6822      	ldr	r2, [r4, #0]
 8001dd2:	b9bb      	cbnz	r3, 8001e04 <HAL_I2C_Mem_Read+0xd0>
 8001dd4:	9002      	str	r0, [sp, #8]
 8001dd6:	6953      	ldr	r3, [r2, #20]
 8001dd8:	9302      	str	r3, [sp, #8]
 8001dda:	6993      	ldr	r3, [r2, #24]
 8001ddc:	9302      	str	r3, [sp, #8]
 8001dde:	9b02      	ldr	r3, [sp, #8]
 8001de0:	6813      	ldr	r3, [r2, #0]
 8001de2:	f443 7300 	orr.w	r3, r3, #512	; 0x200
 8001de6:	6013      	str	r3, [r2, #0]
 8001de8:	2300      	movs	r3, #0
 8001dea:	2220      	movs	r2, #32
 8001dec:	f884 203d 	strb.w	r2, [r4, #61]	; 0x3d
 8001df0:	f884 303c 	strb.w	r3, [r4, #60]	; 0x3c
 8001df4:	f884 303e 	strb.w	r3, [r4, #62]	; 0x3e
 8001df8:	e7ac      	b.n	8001d54 <HAL_I2C_Mem_Read+0x20>
 8001dfa:	2601      	movs	r6, #1
 8001dfc:	4630      	mov	r0, r6
 8001dfe:	b007      	add	sp, #28
 8001e00:	e8bd 83f0 	ldmia.w	sp!, {r4, r5, r6, r7, r8, r9, pc}
 8001e04:	2b01      	cmp	r3, #1
 8001e06:	d07b      	beq.n	8001f00 <HAL_I2C_Mem_Read+0x1cc>
 8001e08:	2b02      	cmp	r3, #2
 8001e0a:	f000 8095 	beq.w	8001f38 <HAL_I2C_Mem_Read+0x204>
 8001e0e:	9005      	str	r0, [sp, #20]
 8001e10:	6951      	ldr	r1, [r2, #20]
 8001e12:	9105      	str	r1, [sp, #20]
 8001e14:	6992      	ldr	r2, [r2, #24]
 8001e16:	9205      	str	r2, [sp, #20]
 8001e18:	9a05      	ldr	r2, [sp, #20]
 8001e1a:	4f51      	ldr	r7, [pc, #324]	; (8001f60 <HAL_I2C_Mem_Read+0x22c>)
 8001e1c:	2b03      	cmp	r3, #3
 8001e1e:	d850      	bhi.n	8001ec2 <HAL_I2C_Mem_Read+0x18e>
 8001e20:	2b01      	cmp	r3, #1
 8001e22:	d07c      	beq.n	8001f1e <HAL_I2C_Mem_Read+0x1ea>
 8001e24:	2b02      	cmp	r3, #2
 8001e26:	9500      	str	r5, [sp, #0]
 8001e28:	9b10      	ldr	r3, [sp, #64]	; 0x40
 8001e2a:	f04f 0200 	mov.w	r2, #0
 8001e2e:	4639      	mov	r1, r7
 8001e30:	4620      	mov	r0, r4
 8001e32:	d01c      	beq.n	8001e6e <HAL_I2C_Mem_Read+0x13a>
 8001e34:	f7ff fce0 	bl	80017f8 <I2C_WaitOnFlagUntilTimeout>
 8001e38:	2800      	cmp	r0, #0
 8001e3a:	d1de      	bne.n	8001dfa <HAL_I2C_Mem_Read+0xc6>
 8001e3c:	6823      	ldr	r3, [r4, #0]
 8001e3e:	6a62      	ldr	r2, [r4, #36]	; 0x24
 8001e40:	6819      	ldr	r1, [r3, #0]
 8001e42:	f421 6180 	bic.w	r1, r1, #1024	; 0x400
 8001e46:	6019      	str	r1, [r3, #0]
 8001e48:	691b      	ldr	r3, [r3, #16]
 8001e4a:	7013      	strb	r3, [r2, #0]
 8001e4c:	8d63      	ldrh	r3, [r4, #42]	; 0x2a
 8001e4e:	6a62      	ldr	r2, [r4, #36]	; 0x24
 8001e50:	8d21      	ldrh	r1, [r4, #40]	; 0x28
 8001e52:	9500      	str	r5, [sp, #0]
 8001e54:	3b01      	subs	r3, #1
 8001e56:	b29b      	uxth	r3, r3
 8001e58:	f102 0c01 	add.w	ip, r2, #1
 8001e5c:	3901      	subs	r1, #1
 8001e5e:	8563      	strh	r3, [r4, #42]	; 0x2a
 8001e60:	9b10      	ldr	r3, [sp, #64]	; 0x40
 8001e62:	8521      	strh	r1, [r4, #40]	; 0x28
 8001e64:	4602      	mov	r2, r0
 8001e66:	f8c4 c024 	str.w	ip, [r4, #36]	; 0x24
 8001e6a:	4639      	mov	r1, r7
 8001e6c:	4620      	mov	r0, r4
 8001e6e:	f7ff fcc3 	bl	80017f8 <I2C_WaitOnFlagUntilTimeout>
 8001e72:	2800      	cmp	r0, #0
 8001e74:	d1c1      	bne.n	8001dfa <HAL_I2C_Mem_Read+0xc6>
 8001e76:	6823      	ldr	r3, [r4, #0]
 8001e78:	6a61      	ldr	r1, [r4, #36]	; 0x24
 8001e7a:	681a      	ldr	r2, [r3, #0]
 8001e7c:	f442 7200 	orr.w	r2, r2, #512	; 0x200
 8001e80:	601a      	str	r2, [r3, #0]
 8001e82:	691b      	ldr	r3, [r3, #16]
 8001e84:	700b      	strb	r3, [r1, #0]
 8001e86:	8d63      	ldrh	r3, [r4, #42]	; 0x2a
 8001e88:	6a60      	ldr	r0, [r4, #36]	; 0x24
 8001e8a:	8d21      	ldrh	r1, [r4, #40]	; 0x28
 8001e8c:	6822      	ldr	r2, [r4, #0]
 8001e8e:	3b01      	subs	r3, #1
 8001e90:	b29b      	uxth	r3, r3
 8001e92:	8563      	strh	r3, [r4, #42]	; 0x2a
 8001e94:	6912      	ldr	r2, [r2, #16]
 8001e96:	f100 0c01 	add.w	ip, r0, #1
 8001e9a:	1e4b      	subs	r3, r1, #1
 8001e9c:	f8c4 c024 	str.w	ip, [r4, #36]	; 0x24
 8001ea0:	8523      	strh	r3, [r4, #40]	; 0x28
 8001ea2:	7042      	strb	r2, [r0, #1]
 8001ea4:	8d23      	ldrh	r3, [r4, #40]	; 0x28
 8001ea6:	8d62      	ldrh	r2, [r4, #42]	; 0x2a
 8001ea8:	6a61      	ldr	r1, [r4, #36]	; 0x24
 8001eaa:	3b01      	subs	r3, #1
 8001eac:	3a01      	subs	r2, #1
 8001eae:	b29b      	uxth	r3, r3
 8001eb0:	b292      	uxth	r2, r2
 8001eb2:	3101      	adds	r1, #1
 8001eb4:	8523      	strh	r3, [r4, #40]	; 0x28
 8001eb6:	8562      	strh	r2, [r4, #42]	; 0x2a
 8001eb8:	6261      	str	r1, [r4, #36]	; 0x24
 8001eba:	2b00      	cmp	r3, #0
 8001ebc:	d094      	beq.n	8001de8 <HAL_I2C_Mem_Read+0xb4>
 8001ebe:	2b03      	cmp	r3, #3
 8001ec0:	d9ae      	bls.n	8001e20 <HAL_I2C_Mem_Read+0xec>
 8001ec2:	462a      	mov	r2, r5
 8001ec4:	9910      	ldr	r1, [sp, #64]	; 0x40
 8001ec6:	4620      	mov	r0, r4
 8001ec8:	f7ff fc62 	bl	8001790 <I2C_WaitOnRXNEFlagUntilTimeout>
 8001ecc:	2800      	cmp	r0, #0
 8001ece:	d194      	bne.n	8001dfa <HAL_I2C_Mem_Read+0xc6>
 8001ed0:	6822      	ldr	r2, [r4, #0]
 8001ed2:	6a63      	ldr	r3, [r4, #36]	; 0x24
 8001ed4:	6912      	ldr	r2, [r2, #16]
 8001ed6:	701a      	strb	r2, [r3, #0]
 8001ed8:	8d62      	ldrh	r2, [r4, #42]	; 0x2a
 8001eda:	6820      	ldr	r0, [r4, #0]
 8001edc:	8d23      	ldrh	r3, [r4, #40]	; 0x28
 8001ede:	6a61      	ldr	r1, [r4, #36]	; 0x24
 8001ee0:	3a01      	subs	r2, #1
 8001ee2:	b292      	uxth	r2, r2
 8001ee4:	8562      	strh	r2, [r4, #42]	; 0x2a
 8001ee6:	6942      	ldr	r2, [r0, #20]
 8001ee8:	3b01      	subs	r3, #1
 8001eea:	b29b      	uxth	r3, r3
 8001eec:	f101 0c01 	add.w	ip, r1, #1
 8001ef0:	0752      	lsls	r2, r2, #29
 8001ef2:	8523      	strh	r3, [r4, #40]	; 0x28
 8001ef4:	f8c4 c024 	str.w	ip, [r4, #36]	; 0x24
 8001ef8:	d5df      	bpl.n	8001eba <HAL_I2C_Mem_Read+0x186>
 8001efa:	6903      	ldr	r3, [r0, #16]
 8001efc:	704b      	strb	r3, [r1, #1]
 8001efe:	e7d1      	b.n	8001ea4 <HAL_I2C_Mem_Read+0x170>
 8001f00:	6811      	ldr	r1, [r2, #0]
 8001f02:	f421 6180 	bic.w	r1, r1, #1024	; 0x400
 8001f06:	6011      	str	r1, [r2, #0]
 8001f08:	9003      	str	r0, [sp, #12]
 8001f0a:	6951      	ldr	r1, [r2, #20]
 8001f0c:	9103      	str	r1, [sp, #12]
 8001f0e:	6991      	ldr	r1, [r2, #24]
 8001f10:	9103      	str	r1, [sp, #12]
 8001f12:	9903      	ldr	r1, [sp, #12]
 8001f14:	6811      	ldr	r1, [r2, #0]
 8001f16:	f441 7100 	orr.w	r1, r1, #512	; 0x200
 8001f1a:	6011      	str	r1, [r2, #0]
 8001f1c:	e77d      	b.n	8001e1a <HAL_I2C_Mem_Read+0xe6>
 8001f1e:	462a      	mov	r2, r5
 8001f20:	9910      	ldr	r1, [sp, #64]	; 0x40
 8001f22:	4620      	mov	r0, r4
 8001f24:	f7ff fc34 	bl	8001790 <I2C_WaitOnRXNEFlagUntilTimeout>
 8001f28:	2800      	cmp	r0, #0
 8001f2a:	f47f af66 	bne.w	8001dfa <HAL_I2C_Mem_Read+0xc6>
 8001f2e:	6822      	ldr	r2, [r4, #0]
 8001f30:	6a63      	ldr	r3, [r4, #36]	; 0x24
 8001f32:	6912      	ldr	r2, [r2, #16]
 8001f34:	701a      	strb	r2, [r3, #0]
 8001f36:	e7b5      	b.n	8001ea4 <HAL_I2C_Mem_Read+0x170>
 8001f38:	6811      	ldr	r1, [r2, #0]
 8001f3a:	f421 6180 	bic.w	r1, r1, #1024	; 0x400
 8001f3e:	6011      	str	r1, [r2, #0]
 8001f40:	6811      	ldr	r1, [r2, #0]
 8001f42:	f441 6100 	orr.w	r1, r1, #2048	; 0x800
 8001f46:	6011      	str	r1, [r2, #0]
 8001f48:	9004      	str	r0, [sp, #16]
 8001f4a:	6951      	ldr	r1, [r2, #20]
 8001f4c:	9104      	str	r1, [sp, #16]
 8001f4e:	6992      	ldr	r2, [r2, #24]
 8001f50:	9204      	str	r2, [sp, #16]
 8001f52:	9a04      	ldr	r2, [sp, #16]
 8001f54:	e761      	b.n	8001e1a <HAL_I2C_Mem_Read+0xe6>
 8001f56:	bf00      	nop
 8001f58:	00100002 	.word	0x00100002
 8001f5c:	ffff0000 	.word	0xffff0000
 8001f60:	00010004 	.word	0x00010004

08001f64 <HAL_I2C_IsDeviceReady>:
 8001f64:	e92d 4ff0 	stmdb	sp!, {r4, r5, r6, r7, r8, r9, sl, fp, lr}
 8001f68:	4604      	mov	r4, r0
 8001f6a:	b085      	sub	sp, #20
 8001f6c:	461d      	mov	r5, r3
 8001f6e:	4689      	mov	r9, r1
 8001f70:	4692      	mov	sl, r2
 8001f72:	f7fe ffe7 	bl	8000f44 <HAL_GetTick>
 8001f76:	f894 303d 	ldrb.w	r3, [r4, #61]	; 0x3d
 8001f7a:	2b20      	cmp	r3, #32
 8001f7c:	d003      	beq.n	8001f86 <HAL_I2C_IsDeviceReady+0x22>
 8001f7e:	2002      	movs	r0, #2
 8001f80:	b005      	add	sp, #20
 8001f82:	e8bd 8ff0 	ldmia.w	sp!, {r4, r5, r6, r7, r8, r9, sl, fp, pc}
 8001f86:	4606      	mov	r6, r0
 8001f88:	9000      	str	r0, [sp, #0]
 8001f8a:	2319      	movs	r3, #25
 8001f8c:	2201      	movs	r2, #1
 8001f8e:	4952      	ldr	r1, [pc, #328]	; (80020d8 <HAL_I2C_IsDeviceReady+0x174>)
 8001f90:	4620      	mov	r0, r4
 8001f92:	f7ff fc31 	bl	80017f8 <I2C_WaitOnFlagUntilTimeout>
 8001f96:	2800      	cmp	r0, #0
 8001f98:	d1f1      	bne.n	8001f7e <HAL_I2C_IsDeviceReady+0x1a>
 8001f9a:	f894 303c 	ldrb.w	r3, [r4, #60]	; 0x3c
 8001f9e:	2b01      	cmp	r3, #1
 8001fa0:	d0ed      	beq.n	8001f7e <HAL_I2C_IsDeviceReady+0x1a>
 8001fa2:	6822      	ldr	r2, [r4, #0]
 8001fa4:	6813      	ldr	r3, [r2, #0]
 8001fa6:	2101      	movs	r1, #1
 8001fa8:	07d8      	lsls	r0, r3, #31
 8001faa:	f884 103c 	strb.w	r1, [r4, #60]	; 0x3c
 8001fae:	d564      	bpl.n	800207a <HAL_I2C_IsDeviceReady+0x116>
 8001fb0:	6813      	ldr	r3, [r2, #0]
 8001fb2:	494a      	ldr	r1, [pc, #296]	; (80020dc <HAL_I2C_IsDeviceReady+0x178>)
 8001fb4:	f8df b120 	ldr.w	fp, [pc, #288]	; 80020d8 <HAL_I2C_IsDeviceReady+0x174>
 8001fb8:	f423 6300 	bic.w	r3, r3, #2048	; 0x800
 8001fbc:	6013      	str	r3, [r2, #0]
 8001fbe:	2324      	movs	r3, #36	; 0x24
 8001fc0:	f884 303d 	strb.w	r3, [r4, #61]	; 0x3d
 8001fc4:	2300      	movs	r3, #0
 8001fc6:	6423      	str	r3, [r4, #64]	; 0x40
 8001fc8:	f009 09fe 	and.w	r9, r9, #254	; 0xfe
 8001fcc:	62e1      	str	r1, [r4, #44]	; 0x2c
 8001fce:	f04f 0801 	mov.w	r8, #1
 8001fd2:	6813      	ldr	r3, [r2, #0]
 8001fd4:	f443 7380 	orr.w	r3, r3, #256	; 0x100
 8001fd8:	6013      	str	r3, [r2, #0]
 8001fda:	f04f 1101 	mov.w	r1, #65537	; 0x10001
 8001fde:	462b      	mov	r3, r5
 8001fe0:	9600      	str	r6, [sp, #0]
 8001fe2:	2200      	movs	r2, #0
 8001fe4:	4620      	mov	r0, r4
 8001fe6:	f7ff fc07 	bl	80017f8 <I2C_WaitOnFlagUntilTimeout>
 8001fea:	6823      	ldr	r3, [r4, #0]
 8001fec:	2800      	cmp	r0, #0
 8001fee:	d150      	bne.n	8002092 <HAL_I2C_IsDeviceReady+0x12e>
 8001ff0:	f8c3 9010 	str.w	r9, [r3, #16]
 8001ff4:	f7fe ffa6 	bl	8000f44 <HAL_GetTick>
 8001ff8:	6822      	ldr	r2, [r4, #0]
 8001ffa:	4606      	mov	r6, r0
 8001ffc:	6953      	ldr	r3, [r2, #20]
 8001ffe:	6951      	ldr	r1, [r2, #20]
 8002000:	f894 003d 	ldrb.w	r0, [r4, #61]	; 0x3d
 8002004:	28a0      	cmp	r0, #160	; 0xa0
 8002006:	f003 0302 	and.w	r3, r3, #2
 800200a:	f401 6180 	and.w	r1, r1, #1024	; 0x400
 800200e:	d018      	beq.n	8002042 <HAL_I2C_IsDeviceReady+0xde>
 8002010:	b9bb      	cbnz	r3, 8002042 <HAL_I2C_IsDeviceReady+0xde>
 8002012:	b9b1      	cbnz	r1, 8002042 <HAL_I2C_IsDeviceReady+0xde>
 8002014:	27a0      	movs	r7, #160	; 0xa0
 8002016:	e001      	b.n	800201c <HAL_I2C_IsDeviceReady+0xb8>
 8002018:	b99b      	cbnz	r3, 8002042 <HAL_I2C_IsDeviceReady+0xde>
 800201a:	b991      	cbnz	r1, 8002042 <HAL_I2C_IsDeviceReady+0xde>
 800201c:	f7fe ff92 	bl	8000f44 <HAL_GetTick>
 8002020:	1b80      	subs	r0, r0, r6
 8002022:	42a8      	cmp	r0, r5
 8002024:	d800      	bhi.n	8002028 <HAL_I2C_IsDeviceReady+0xc4>
 8002026:	b90d      	cbnz	r5, 800202c <HAL_I2C_IsDeviceReady+0xc8>
 8002028:	f884 703d 	strb.w	r7, [r4, #61]	; 0x3d
 800202c:	6822      	ldr	r2, [r4, #0]
 800202e:	6953      	ldr	r3, [r2, #20]
 8002030:	6951      	ldr	r1, [r2, #20]
 8002032:	f894 003d 	ldrb.w	r0, [r4, #61]	; 0x3d
 8002036:	28a0      	cmp	r0, #160	; 0xa0
 8002038:	f003 0302 	and.w	r3, r3, #2
 800203c:	f401 6180 	and.w	r1, r1, #1024	; 0x400
 8002040:	d1ea      	bne.n	8002018 <HAL_I2C_IsDeviceReady+0xb4>
 8002042:	2720      	movs	r7, #32
 8002044:	f884 703d 	strb.w	r7, [r4, #61]	; 0x3d
 8002048:	6953      	ldr	r3, [r2, #20]
 800204a:	f013 0f02 	tst.w	r3, #2
 800204e:	6813      	ldr	r3, [r2, #0]
 8002050:	d127      	bne.n	80020a2 <HAL_I2C_IsDeviceReady+0x13e>
 8002052:	f46f 6180 	mvn.w	r1, #1024	; 0x400
 8002056:	f443 7300 	orr.w	r3, r3, #512	; 0x200
 800205a:	6013      	str	r3, [r2, #0]
 800205c:	4620      	mov	r0, r4
 800205e:	6151      	str	r1, [r2, #20]
 8002060:	2319      	movs	r3, #25
 8002062:	2201      	movs	r2, #1
 8002064:	9600      	str	r6, [sp, #0]
 8002066:	4659      	mov	r1, fp
 8002068:	f7ff fbc6 	bl	80017f8 <I2C_WaitOnFlagUntilTimeout>
 800206c:	b968      	cbnz	r0, 800208a <HAL_I2C_IsDeviceReady+0x126>
 800206e:	f108 0801 	add.w	r8, r8, #1
 8002072:	45d0      	cmp	r8, sl
 8002074:	d205      	bcs.n	8002082 <HAL_I2C_IsDeviceReady+0x11e>
 8002076:	6822      	ldr	r2, [r4, #0]
 8002078:	e7ab      	b.n	8001fd2 <HAL_I2C_IsDeviceReady+0x6e>
 800207a:	6813      	ldr	r3, [r2, #0]
 800207c:	430b      	orrs	r3, r1
 800207e:	6013      	str	r3, [r2, #0]
 8002080:	e796      	b.n	8001fb0 <HAL_I2C_IsDeviceReady+0x4c>
 8002082:	f884 703d 	strb.w	r7, [r4, #61]	; 0x3d
 8002086:	f884 003c 	strb.w	r0, [r4, #60]	; 0x3c
 800208a:	2001      	movs	r0, #1
 800208c:	b005      	add	sp, #20
 800208e:	e8bd 8ff0 	ldmia.w	sp!, {r4, r5, r6, r7, r8, r9, sl, fp, pc}
 8002092:	681b      	ldr	r3, [r3, #0]
 8002094:	05db      	lsls	r3, r3, #23
 8002096:	d51c      	bpl.n	80020d2 <HAL_I2C_IsDeviceReady+0x16e>
 8002098:	f44f 7300 	mov.w	r3, #512	; 0x200
 800209c:	6423      	str	r3, [r4, #64]	; 0x40
 800209e:	2003      	movs	r0, #3
 80020a0:	e76e      	b.n	8001f80 <HAL_I2C_IsDeviceReady+0x1c>
 80020a2:	f443 7300 	orr.w	r3, r3, #512	; 0x200
 80020a6:	2000      	movs	r0, #0
 80020a8:	6013      	str	r3, [r2, #0]
 80020aa:	9003      	str	r0, [sp, #12]
 80020ac:	6953      	ldr	r3, [r2, #20]
 80020ae:	9303      	str	r3, [sp, #12]
 80020b0:	6993      	ldr	r3, [r2, #24]
 80020b2:	9303      	str	r3, [sp, #12]
 80020b4:	4908      	ldr	r1, [pc, #32]	; (80020d8 <HAL_I2C_IsDeviceReady+0x174>)
 80020b6:	9600      	str	r6, [sp, #0]
 80020b8:	2319      	movs	r3, #25
 80020ba:	2201      	movs	r2, #1
 80020bc:	4620      	mov	r0, r4
 80020be:	9d03      	ldr	r5, [sp, #12]
 80020c0:	f7ff fb9a 	bl	80017f8 <I2C_WaitOnFlagUntilTimeout>
 80020c4:	2800      	cmp	r0, #0
 80020c6:	d1e0      	bne.n	800208a <HAL_I2C_IsDeviceReady+0x126>
 80020c8:	f884 703d 	strb.w	r7, [r4, #61]	; 0x3d
 80020cc:	f884 003c 	strb.w	r0, [r4, #60]	; 0x3c
 80020d0:	e756      	b.n	8001f80 <HAL_I2C_IsDeviceReady+0x1c>
 80020d2:	2003      	movs	r0, #3
 80020d4:	e754      	b.n	8001f80 <HAL_I2C_IsDeviceReady+0x1c>
 80020d6:	bf00      	nop
 80020d8:	00100002 	.word	0x00100002
 80020dc:	ffff0000 	.word	0xffff0000

080020e0 <HAL_I2C_MasterTxCpltCallback>:
 80020e0:	4770      	bx	lr
 80020e2:	bf00      	nop

080020e4 <HAL_I2C_MasterRxCpltCallback>:
 80020e4:	4770      	bx	lr
 80020e6:	bf00      	nop

080020e8 <HAL_I2C_SlaveTxCpltCallback>:
 80020e8:	4770      	bx	lr
 80020ea:	bf00      	nop

080020ec <HAL_I2C_SlaveRxCpltCallback>:
 80020ec:	4770      	bx	lr
 80020ee:	bf00      	nop

080020f0 <HAL_I2C_AddrCallback>:
 80020f0:	4770      	bx	lr
 80020f2:	bf00      	nop

080020f4 <HAL_I2C_ListenCpltCallback>:
 80020f4:	4770      	bx	lr
 80020f6:	bf00      	nop

080020f8 <HAL_I2C_MemTxCpltCallback>:
 80020f8:	4770      	bx	lr
 80020fa:	bf00      	nop

080020fc <HAL_I2C_MemRxCpltCallback>:
 80020fc:	4770      	bx	lr
 80020fe:	bf00      	nop

08002100 <HAL_I2C_ErrorCallback>:
 8002100:	4770      	bx	lr
 8002102:	bf00      	nop

08002104 <HAL_I2C_AbortCpltCallback>:
 8002104:	4770      	bx	lr
 8002106:	bf00      	nop

08002108 <I2C_DMAAbort>:
 8002108:	6b83      	ldr	r3, [r0, #56]	; 0x38
 800210a:	e9d3 010d 	ldrd	r0, r1, [r3, #52]	; 0x34
 800210e:	b570      	push	{r4, r5, r6, lr}
 8002110:	f893 403d 	ldrb.w	r4, [r3, #61]	; 0x3d
 8002114:	681a      	ldr	r2, [r3, #0]
 8002116:	b2e6      	uxtb	r6, r4
 8002118:	b340      	cbz	r0, 800216c <I2C_DMAAbort+0x64>
 800211a:	2400      	movs	r4, #0
 800211c:	63c4      	str	r4, [r0, #60]	; 0x3c
 800211e:	b1f1      	cbz	r1, 800215e <I2C_DMAAbort+0x56>
 8002120:	6815      	ldr	r5, [r2, #0]
 8002122:	63cc      	str	r4, [r1, #60]	; 0x3c
 8002124:	f425 6580 	bic.w	r5, r5, #1024	; 0x400
 8002128:	6015      	str	r5, [r2, #0]
 800212a:	855c      	strh	r4, [r3, #42]	; 0x2a
 800212c:	6504      	str	r4, [r0, #80]	; 0x50
 800212e:	2000      	movs	r0, #0
 8002130:	6508      	str	r0, [r1, #80]	; 0x50
 8002132:	6811      	ldr	r1, [r2, #0]
 8002134:	f021 0101 	bic.w	r1, r1, #1
 8002138:	6011      	str	r1, [r2, #0]
 800213a:	f893 103d 	ldrb.w	r1, [r3, #61]	; 0x3d
 800213e:	2960      	cmp	r1, #96	; 0x60
 8002140:	d029      	beq.n	8002196 <I2C_DMAAbort+0x8e>
 8002142:	f006 0428 	and.w	r4, r6, #40	; 0x28
 8002146:	2c28      	cmp	r4, #40	; 0x28
 8002148:	d018      	beq.n	800217c <I2C_DMAAbort+0x74>
 800214a:	2120      	movs	r1, #32
 800214c:	2200      	movs	r2, #0
 800214e:	f883 103d 	strb.w	r1, [r3, #61]	; 0x3d
 8002152:	f883 203e 	strb.w	r2, [r3, #62]	; 0x3e
 8002156:	4618      	mov	r0, r3
 8002158:	f7ff ffd2 	bl	8002100 <HAL_I2C_ErrorCallback>
 800215c:	bd70      	pop	{r4, r5, r6, pc}
 800215e:	6814      	ldr	r4, [r2, #0]
 8002160:	f424 6480 	bic.w	r4, r4, #1024	; 0x400
 8002164:	6014      	str	r4, [r2, #0]
 8002166:	8559      	strh	r1, [r3, #42]	; 0x2a
 8002168:	6501      	str	r1, [r0, #80]	; 0x50
 800216a:	e7e2      	b.n	8002132 <I2C_DMAAbort+0x2a>
 800216c:	b1f1      	cbz	r1, 80021ac <I2C_DMAAbort+0xa4>
 800216e:	6814      	ldr	r4, [r2, #0]
 8002170:	63c8      	str	r0, [r1, #60]	; 0x3c
 8002172:	f424 6480 	bic.w	r4, r4, #1024	; 0x400
 8002176:	6014      	str	r4, [r2, #0]
 8002178:	8558      	strh	r0, [r3, #42]	; 0x2a
 800217a:	e7d8      	b.n	800212e <I2C_DMAAbort+0x26>
 800217c:	6811      	ldr	r1, [r2, #0]
 800217e:	f041 0101 	orr.w	r1, r1, #1
 8002182:	6011      	str	r1, [r2, #0]
 8002184:	6811      	ldr	r1, [r2, #0]
 8002186:	2000      	movs	r0, #0
 8002188:	f441 6180 	orr.w	r1, r1, #1024	; 0x400
 800218c:	6011      	str	r1, [r2, #0]
 800218e:	6318      	str	r0, [r3, #48]	; 0x30
 8002190:	f883 403d 	strb.w	r4, [r3, #61]	; 0x3d
 8002194:	e7df      	b.n	8002156 <I2C_DMAAbort+0x4e>
 8002196:	2200      	movs	r2, #0
 8002198:	2120      	movs	r1, #32
 800219a:	f883 103d 	strb.w	r1, [r3, #61]	; 0x3d
 800219e:	4618      	mov	r0, r3
 80021a0:	f883 203e 	strb.w	r2, [r3, #62]	; 0x3e
 80021a4:	641a      	str	r2, [r3, #64]	; 0x40
 80021a6:	f7ff ffad 	bl	8002104 <HAL_I2C_AbortCpltCallback>
 80021aa:	bd70      	pop	{r4, r5, r6, pc}
 80021ac:	6810      	ldr	r0, [r2, #0]
 80021ae:	f420 6080 	bic.w	r0, r0, #1024	; 0x400
 80021b2:	6010      	str	r0, [r2, #0]
 80021b4:	8559      	strh	r1, [r3, #42]	; 0x2a
 80021b6:	e7bc      	b.n	8002132 <I2C_DMAAbort+0x2a>

080021b8 <I2C_ITError>:
 80021b8:	f890 203d 	ldrb.w	r2, [r0, #61]	; 0x3d
 80021bc:	f890 103e 	ldrb.w	r1, [r0, #62]	; 0x3e
 80021c0:	2910      	cmp	r1, #16
 80021c2:	b538      	push	{r3, r4, r5, lr}
 80021c4:	b2d2      	uxtb	r2, r2
 80021c6:	4604      	mov	r4, r0
 80021c8:	6803      	ldr	r3, [r0, #0]
 80021ca:	d054      	beq.n	8002276 <I2C_ITError+0xbe>
 80021cc:	f002 0128 	and.w	r1, r2, #40	; 0x28
 80021d0:	2928      	cmp	r1, #40	; 0x28
 80021d2:	d04b      	beq.n	800226c <I2C_ITError+0xb4>
 80021d4:	6859      	ldr	r1, [r3, #4]
 80021d6:	0509      	lsls	r1, r1, #20
 80021d8:	d542      	bpl.n	8002260 <I2C_ITError+0xa8>
 80021da:	2200      	movs	r2, #0
 80021dc:	6322      	str	r2, [r4, #48]	; 0x30
 80021de:	f884 203e 	strb.w	r2, [r4, #62]	; 0x3e
 80021e2:	685a      	ldr	r2, [r3, #4]
 80021e4:	f412 6200 	ands.w	r2, r2, #2048	; 0x800
 80021e8:	d029      	beq.n	800223e <I2C_ITError+0x86>
 80021ea:	685a      	ldr	r2, [r3, #4]
 80021ec:	6b60      	ldr	r0, [r4, #52]	; 0x34
 80021ee:	f422 6200 	bic.w	r2, r2, #2048	; 0x800
 80021f2:	605a      	str	r2, [r3, #4]
 80021f4:	f890 3035 	ldrb.w	r3, [r0, #53]	; 0x35
 80021f8:	2b01      	cmp	r3, #1
 80021fa:	d05c      	beq.n	80022b6 <I2C_ITError+0xfe>
 80021fc:	4b43      	ldr	r3, [pc, #268]	; (800230c <I2C_ITError+0x154>)
 80021fe:	6503      	str	r3, [r0, #80]	; 0x50
 8002200:	f7ff f848 	bl	8001294 <HAL_DMA_Abort_IT>
 8002204:	b150      	cbz	r0, 800221c <I2C_ITError+0x64>
 8002206:	6822      	ldr	r2, [r4, #0]
 8002208:	6b60      	ldr	r0, [r4, #52]	; 0x34
 800220a:	6813      	ldr	r3, [r2, #0]
 800220c:	6d01      	ldr	r1, [r0, #80]	; 0x50
 800220e:	f023 0301 	bic.w	r3, r3, #1
 8002212:	2520      	movs	r5, #32
 8002214:	6013      	str	r3, [r2, #0]
 8002216:	f884 503d 	strb.w	r5, [r4, #61]	; 0x3d
 800221a:	4788      	blx	r1
 800221c:	6c23      	ldr	r3, [r4, #64]	; 0x40
 800221e:	0719      	lsls	r1, r3, #28
 8002220:	d004      	beq.n	800222c <I2C_ITError+0x74>
 8002222:	6822      	ldr	r2, [r4, #0]
 8002224:	6853      	ldr	r3, [r2, #4]
 8002226:	f423 63e0 	bic.w	r3, r3, #1792	; 0x700
 800222a:	6053      	str	r3, [r2, #4]
 800222c:	f894 303d 	ldrb.w	r3, [r4, #61]	; 0x3d
 8002230:	6c22      	ldr	r2, [r4, #64]	; 0x40
 8002232:	0752      	lsls	r2, r2, #29
 8002234:	b2db      	uxtb	r3, r3
 8002236:	d501      	bpl.n	800223c <I2C_ITError+0x84>
 8002238:	2b28      	cmp	r3, #40	; 0x28
 800223a:	d059      	beq.n	80022f0 <I2C_ITError+0x138>
 800223c:	bd38      	pop	{r3, r4, r5, pc}
 800223e:	f894 103d 	ldrb.w	r1, [r4, #61]	; 0x3d
 8002242:	2960      	cmp	r1, #96	; 0x60
 8002244:	d021      	beq.n	800228a <I2C_ITError+0xd2>
 8002246:	695a      	ldr	r2, [r3, #20]
 8002248:	0650      	lsls	r0, r2, #25
 800224a:	d505      	bpl.n	8002258 <I2C_ITError+0xa0>
 800224c:	6a62      	ldr	r2, [r4, #36]	; 0x24
 800224e:	691b      	ldr	r3, [r3, #16]
 8002250:	7013      	strb	r3, [r2, #0]
 8002252:	6a63      	ldr	r3, [r4, #36]	; 0x24
 8002254:	3301      	adds	r3, #1
 8002256:	6263      	str	r3, [r4, #36]	; 0x24
 8002258:	4620      	mov	r0, r4
 800225a:	f7ff ff51 	bl	8002100 <HAL_I2C_ErrorCallback>
 800225e:	e7dd      	b.n	800221c <I2C_ITError+0x64>
 8002260:	2a60      	cmp	r2, #96	; 0x60
 8002262:	d0ba      	beq.n	80021da <I2C_ITError+0x22>
 8002264:	2220      	movs	r2, #32
 8002266:	f884 203d 	strb.w	r2, [r4, #61]	; 0x3d
 800226a:	e7b6      	b.n	80021da <I2C_ITError+0x22>
 800226c:	2200      	movs	r2, #0
 800226e:	6322      	str	r2, [r4, #48]	; 0x30
 8002270:	f884 103d 	strb.w	r1, [r4, #61]	; 0x3d
 8002274:	e7b5      	b.n	80021e2 <I2C_ITError+0x2a>
 8002276:	2a22      	cmp	r2, #34	; 0x22
 8002278:	d1a8      	bne.n	80021cc <I2C_ITError+0x14>
 800227a:	681a      	ldr	r2, [r3, #0]
 800227c:	f422 6200 	bic.w	r2, r2, #2048	; 0x800
 8002280:	601a      	str	r2, [r3, #0]
 8002282:	685a      	ldr	r2, [r3, #4]
 8002284:	0510      	lsls	r0, r2, #20
 8002286:	d5ed      	bpl.n	8002264 <I2C_ITError+0xac>
 8002288:	e7a7      	b.n	80021da <I2C_ITError+0x22>
 800228a:	2120      	movs	r1, #32
 800228c:	f884 103d 	strb.w	r1, [r4, #61]	; 0x3d
 8002290:	6422      	str	r2, [r4, #64]	; 0x40
 8002292:	695a      	ldr	r2, [r3, #20]
 8002294:	0655      	lsls	r5, r2, #25
 8002296:	d506      	bpl.n	80022a6 <I2C_ITError+0xee>
 8002298:	6a62      	ldr	r2, [r4, #36]	; 0x24
 800229a:	691b      	ldr	r3, [r3, #16]
 800229c:	7013      	strb	r3, [r2, #0]
 800229e:	6a62      	ldr	r2, [r4, #36]	; 0x24
 80022a0:	6823      	ldr	r3, [r4, #0]
 80022a2:	3201      	adds	r2, #1
 80022a4:	6262      	str	r2, [r4, #36]	; 0x24
 80022a6:	681a      	ldr	r2, [r3, #0]
 80022a8:	f022 0201 	bic.w	r2, r2, #1
 80022ac:	601a      	str	r2, [r3, #0]
 80022ae:	4620      	mov	r0, r4
 80022b0:	f7ff ff28 	bl	8002104 <HAL_I2C_AbortCpltCallback>
 80022b4:	e7b2      	b.n	800221c <I2C_ITError+0x64>
 80022b6:	6ba0      	ldr	r0, [r4, #56]	; 0x38
 80022b8:	4b14      	ldr	r3, [pc, #80]	; (800230c <I2C_ITError+0x154>)
 80022ba:	6503      	str	r3, [r0, #80]	; 0x50
 80022bc:	f7fe ffea 	bl	8001294 <HAL_DMA_Abort_IT>
 80022c0:	2800      	cmp	r0, #0
 80022c2:	d0ab      	beq.n	800221c <I2C_ITError+0x64>
 80022c4:	6823      	ldr	r3, [r4, #0]
 80022c6:	695a      	ldr	r2, [r3, #20]
 80022c8:	0652      	lsls	r2, r2, #25
 80022ca:	d506      	bpl.n	80022da <I2C_ITError+0x122>
 80022cc:	6a62      	ldr	r2, [r4, #36]	; 0x24
 80022ce:	691b      	ldr	r3, [r3, #16]
 80022d0:	7013      	strb	r3, [r2, #0]
 80022d2:	6a62      	ldr	r2, [r4, #36]	; 0x24
 80022d4:	6823      	ldr	r3, [r4, #0]
 80022d6:	3201      	adds	r2, #1
 80022d8:	6262      	str	r2, [r4, #36]	; 0x24
 80022da:	681a      	ldr	r2, [r3, #0]
 80022dc:	6ba0      	ldr	r0, [r4, #56]	; 0x38
 80022de:	f022 0201 	bic.w	r2, r2, #1
 80022e2:	2120      	movs	r1, #32
 80022e4:	601a      	str	r2, [r3, #0]
 80022e6:	6d03      	ldr	r3, [r0, #80]	; 0x50
 80022e8:	f884 103d 	strb.w	r1, [r4, #61]	; 0x3d
 80022ec:	4798      	blx	r3
 80022ee:	e795      	b.n	800221c <I2C_ITError+0x64>
 80022f0:	4b07      	ldr	r3, [pc, #28]	; (8002310 <I2C_ITError+0x158>)
 80022f2:	62e3      	str	r3, [r4, #44]	; 0x2c
 80022f4:	2220      	movs	r2, #32
 80022f6:	2300      	movs	r3, #0
 80022f8:	6323      	str	r3, [r4, #48]	; 0x30
 80022fa:	4620      	mov	r0, r4
 80022fc:	f884 203d 	strb.w	r2, [r4, #61]	; 0x3d
 8002300:	f884 303e 	strb.w	r3, [r4, #62]	; 0x3e
 8002304:	f7ff fef6 	bl	80020f4 <HAL_I2C_ListenCpltCallback>
 8002308:	bd38      	pop	{r3, r4, r5, pc}
 800230a:	bf00      	nop
 800230c:	08002109 	.word	0x08002109
 8002310:	ffff0000 	.word	0xffff0000

08002314 <HAL_I2C_EV_IRQHandler>:
 8002314:	b570      	push	{r4, r5, r6, lr}
 8002316:	6803      	ldr	r3, [r0, #0]
 8002318:	4604      	mov	r4, r0
 800231a:	6858      	ldr	r0, [r3, #4]
 800231c:	6ae5      	ldr	r5, [r4, #44]	; 0x2c
 800231e:	f894 203e 	ldrb.w	r2, [r4, #62]	; 0x3e
 8002322:	f894 103d 	ldrb.w	r1, [r4, #61]	; 0x3d
 8002326:	b2d2      	uxtb	r2, r2
 8002328:	2a10      	cmp	r2, #16
 800232a:	b08c      	sub	sp, #48	; 0x30
 800232c:	d020      	beq.n	8002370 <HAL_I2C_EV_IRQHandler+0x5c>
 800232e:	2a40      	cmp	r2, #64	; 0x40
 8002330:	d01e      	beq.n	8002370 <HAL_I2C_EV_IRQHandler+0x5c>
 8002332:	6c22      	ldr	r2, [r4, #64]	; 0x40
 8002334:	b2c9      	uxtb	r1, r1
 8002336:	2a00      	cmp	r2, #0
 8002338:	f000 80bb 	beq.w	80024b2 <HAL_I2C_EV_IRQHandler+0x19e>
 800233c:	695a      	ldr	r2, [r3, #20]
 800233e:	2600      	movs	r6, #0
 8002340:	f3c2 0540 	ubfx	r5, r2, #1, #1
 8002344:	2d00      	cmp	r5, #0
 8002346:	d078      	beq.n	800243a <HAL_I2C_EV_IRQHandler+0x126>
 8002348:	0585      	lsls	r5, r0, #22
 800234a:	d57b      	bpl.n	8002444 <HAL_I2C_EV_IRQHandler+0x130>
 800234c:	6c22      	ldr	r2, [r4, #64]	; 0x40
 800234e:	b102      	cbz	r2, 8002352 <HAL_I2C_EV_IRQHandler+0x3e>
 8002350:	699e      	ldr	r6, [r3, #24]
 8002352:	f894 203d 	ldrb.w	r2, [r4, #61]	; 0x3d
 8002356:	f002 0228 	and.w	r2, r2, #40	; 0x28
 800235a:	2a28      	cmp	r2, #40	; 0x28
 800235c:	f000 821b 	beq.w	8002796 <HAL_I2C_EV_IRQHandler+0x482>
 8002360:	f06f 0102 	mvn.w	r1, #2
 8002364:	2200      	movs	r2, #0
 8002366:	6159      	str	r1, [r3, #20]
 8002368:	f884 203c 	strb.w	r2, [r4, #60]	; 0x3c
 800236c:	b00c      	add	sp, #48	; 0x30
 800236e:	bd70      	pop	{r4, r5, r6, pc}
 8002370:	6999      	ldr	r1, [r3, #24]
 8002372:	695a      	ldr	r2, [r3, #20]
 8002374:	07d6      	lsls	r6, r2, #31
 8002376:	d43a      	bmi.n	80023ee <HAL_I2C_EV_IRQHandler+0xda>
 8002378:	f5b5 0f2a 	cmp.w	r5, #11141120	; 0xaa0000
 800237c:	d0f6      	beq.n	800236c <HAL_I2C_EV_IRQHandler+0x58>
 800237e:	f1b5 4f2a 	cmp.w	r5, #2852126720	; 0xaa000000
 8002382:	d0f3      	beq.n	800236c <HAL_I2C_EV_IRQHandler+0x58>
 8002384:	0716      	lsls	r6, r2, #28
 8002386:	f140 809a 	bpl.w	80024be <HAL_I2C_EV_IRQHandler+0x1aa>
 800238a:	0585      	lsls	r5, r0, #22
 800238c:	f100 81f5 	bmi.w	800277a <HAL_I2C_EV_IRQHandler+0x466>
 8002390:	f011 0f04 	tst.w	r1, #4
 8002394:	6859      	ldr	r1, [r3, #4]
 8002396:	f000 80ff 	beq.w	8002598 <HAL_I2C_EV_IRQHandler+0x284>
 800239a:	0509      	lsls	r1, r1, #20
 800239c:	d4e6      	bmi.n	800236c <HAL_I2C_EV_IRQHandler+0x58>
 800239e:	0616      	lsls	r6, r2, #24
 80023a0:	f3c2 0180 	ubfx	r1, r2, #2, #1
 80023a4:	f140 81a0 	bpl.w	80026e8 <HAL_I2C_EV_IRQHandler+0x3d4>
 80023a8:	0545      	lsls	r5, r0, #21
 80023aa:	f140 819d 	bpl.w	80026e8 <HAL_I2C_EV_IRQHandler+0x3d4>
 80023ae:	2900      	cmp	r1, #0
 80023b0:	f040 819d 	bne.w	80026ee <HAL_I2C_EV_IRQHandler+0x3da>
 80023b4:	f894 203d 	ldrb.w	r2, [r4, #61]	; 0x3d
 80023b8:	8d20      	ldrh	r0, [r4, #40]	; 0x28
 80023ba:	f894 103e 	ldrb.w	r1, [r4, #62]	; 0x3e
 80023be:	6ae5      	ldr	r5, [r4, #44]	; 0x2c
 80023c0:	b2d2      	uxtb	r2, r2
 80023c2:	b2c9      	uxtb	r1, r1
 80023c4:	2800      	cmp	r0, #0
 80023c6:	f040 82da 	bne.w	800297e <HAL_I2C_EV_IRQHandler+0x66a>
 80023ca:	2a21      	cmp	r2, #33	; 0x21
 80023cc:	f000 8373 	beq.w	8002ab6 <HAL_I2C_EV_IRQHandler+0x7a2>
 80023d0:	2940      	cmp	r1, #64	; 0x40
 80023d2:	d1cb      	bne.n	800236c <HAL_I2C_EV_IRQHandler+0x58>
 80023d4:	2a22      	cmp	r2, #34	; 0x22
 80023d6:	d1c9      	bne.n	800236c <HAL_I2C_EV_IRQHandler+0x58>
 80023d8:	8d62      	ldrh	r2, [r4, #42]	; 0x2a
 80023da:	b292      	uxth	r2, r2
 80023dc:	2a00      	cmp	r2, #0
 80023de:	f000 8384 	beq.w	8002aea <HAL_I2C_EV_IRQHandler+0x7d6>
 80023e2:	f894 203e 	ldrb.w	r2, [r4, #62]	; 0x3e
 80023e6:	2a40      	cmp	r2, #64	; 0x40
 80023e8:	f040 80b6 	bne.w	8002558 <HAL_I2C_EV_IRQHandler+0x244>
 80023ec:	e18d      	b.n	800270a <HAL_I2C_EV_IRQHandler+0x3f6>
 80023ee:	0585      	lsls	r5, r0, #22
 80023f0:	d562      	bpl.n	80024b8 <HAL_I2C_EV_IRQHandler+0x1a4>
 80023f2:	6ae2      	ldr	r2, [r4, #44]	; 0x2c
 80023f4:	f5b2 0f2a 	cmp.w	r2, #11141120	; 0xaa0000
 80023f8:	f000 81e8 	beq.w	80027cc <HAL_I2C_EV_IRQHandler+0x4b8>
 80023fc:	6ae2      	ldr	r2, [r4, #44]	; 0x2c
 80023fe:	f1b2 4f2a 	cmp.w	r2, #2852126720	; 0xaa000000
 8002402:	bf04      	itt	eq
 8002404:	2208      	moveq	r2, #8
 8002406:	62e2      	streq	r2, [r4, #44]	; 0x2c
 8002408:	f894 203e 	ldrb.w	r2, [r4, #62]	; 0x3e
 800240c:	2a40      	cmp	r2, #64	; 0x40
 800240e:	f000 81d6 	beq.w	80027be <HAL_I2C_EV_IRQHandler+0x4aa>
 8002412:	6922      	ldr	r2, [r4, #16]
 8002414:	f5b2 4f80 	cmp.w	r2, #16384	; 0x4000
 8002418:	f000 8197 	beq.w	800274a <HAL_I2C_EV_IRQHandler+0x436>
 800241c:	6d22      	ldr	r2, [r4, #80]	; 0x50
 800241e:	2a00      	cmp	r2, #0
 8002420:	f000 81d7 	beq.w	80027d2 <HAL_I2C_EV_IRQHandler+0x4be>
 8002424:	6d22      	ldr	r2, [r4, #80]	; 0x50
 8002426:	2a01      	cmp	r2, #1
 8002428:	d1a0      	bne.n	800236c <HAL_I2C_EV_IRQHandler+0x58>
 800242a:	6c62      	ldr	r2, [r4, #68]	; 0x44
 800242c:	11d2      	asrs	r2, r2, #7
 800242e:	f002 0206 	and.w	r2, r2, #6
 8002432:	f042 02f1 	orr.w	r2, r2, #241	; 0xf1
 8002436:	611a      	str	r2, [r3, #16]
 8002438:	e798      	b.n	800236c <HAL_I2C_EV_IRQHandler+0x58>
 800243a:	06d6      	lsls	r6, r2, #27
 800243c:	d502      	bpl.n	8002444 <HAL_I2C_EV_IRQHandler+0x130>
 800243e:	0586      	lsls	r6, r0, #22
 8002440:	f100 80d7 	bmi.w	80025f2 <HAL_I2C_EV_IRQHandler+0x2de>
 8002444:	f001 01f7 	and.w	r1, r1, #247	; 0xf7
 8002448:	2921      	cmp	r1, #33	; 0x21
 800244a:	f3c2 0580 	ubfx	r5, r2, #2, #1
 800244e:	d04e      	beq.n	80024ee <HAL_I2C_EV_IRQHandler+0x1da>
 8002450:	0651      	lsls	r1, r2, #25
 8002452:	f140 808b 	bpl.w	800256c <HAL_I2C_EV_IRQHandler+0x258>
 8002456:	0542      	lsls	r2, r0, #21
 8002458:	f140 8088 	bpl.w	800256c <HAL_I2C_EV_IRQHandler+0x258>
 800245c:	2d00      	cmp	r5, #0
 800245e:	f040 8088 	bne.w	8002572 <HAL_I2C_EV_IRQHandler+0x25e>
 8002462:	f894 103d 	ldrb.w	r1, [r4, #61]	; 0x3d
 8002466:	8d62      	ldrh	r2, [r4, #42]	; 0x2a
 8002468:	b292      	uxth	r2, r2
 800246a:	b2c9      	uxtb	r1, r1
 800246c:	2a00      	cmp	r2, #0
 800246e:	f43f af7d 	beq.w	800236c <HAL_I2C_EV_IRQHandler+0x58>
 8002472:	6a62      	ldr	r2, [r4, #36]	; 0x24
 8002474:	691b      	ldr	r3, [r3, #16]
 8002476:	7013      	strb	r3, [r2, #0]
 8002478:	8d63      	ldrh	r3, [r4, #42]	; 0x2a
 800247a:	6a62      	ldr	r2, [r4, #36]	; 0x24
 800247c:	3b01      	subs	r3, #1
 800247e:	b29b      	uxth	r3, r3
 8002480:	8563      	strh	r3, [r4, #42]	; 0x2a
 8002482:	8d63      	ldrh	r3, [r4, #42]	; 0x2a
 8002484:	3201      	adds	r2, #1
 8002486:	b29b      	uxth	r3, r3
 8002488:	6262      	str	r2, [r4, #36]	; 0x24
 800248a:	2b00      	cmp	r3, #0
 800248c:	f47f af6e 	bne.w	800236c <HAL_I2C_EV_IRQHandler+0x58>
 8002490:	292a      	cmp	r1, #42	; 0x2a
 8002492:	f47f af6b 	bne.w	800236c <HAL_I2C_EV_IRQHandler+0x58>
 8002496:	6822      	ldr	r2, [r4, #0]
 8002498:	6853      	ldr	r3, [r2, #4]
 800249a:	2522      	movs	r5, #34	; 0x22
 800249c:	f423 6380 	bic.w	r3, r3, #1024	; 0x400
 80024a0:	2128      	movs	r1, #40	; 0x28
 80024a2:	6053      	str	r3, [r2, #4]
 80024a4:	4620      	mov	r0, r4
 80024a6:	6325      	str	r5, [r4, #48]	; 0x30
 80024a8:	f884 103d 	strb.w	r1, [r4, #61]	; 0x3d
 80024ac:	f7ff fe1e 	bl	80020ec <HAL_I2C_SlaveRxCpltCallback>
 80024b0:	e75c      	b.n	800236c <HAL_I2C_EV_IRQHandler+0x58>
 80024b2:	699e      	ldr	r6, [r3, #24]
 80024b4:	695a      	ldr	r2, [r3, #20]
 80024b6:	e743      	b.n	8002340 <HAL_I2C_EV_IRQHandler+0x2c>
 80024b8:	0715      	lsls	r5, r2, #28
 80024ba:	f53f af69 	bmi.w	8002390 <HAL_I2C_EV_IRQHandler+0x7c>
 80024be:	0796      	lsls	r6, r2, #30
 80024c0:	f57f af66 	bpl.w	8002390 <HAL_I2C_EV_IRQHandler+0x7c>
 80024c4:	0585      	lsls	r5, r0, #22
 80024c6:	f57f af63 	bpl.w	8002390 <HAL_I2C_EV_IRQHandler+0x7c>
 80024ca:	f894 203e 	ldrb.w	r2, [r4, #62]	; 0x3e
 80024ce:	6ae0      	ldr	r0, [r4, #44]	; 0x2c
 80024d0:	6b25      	ldr	r5, [r4, #48]	; 0x30
 80024d2:	f894 103d 	ldrb.w	r1, [r4, #61]	; 0x3d
 80024d6:	2922      	cmp	r1, #34	; 0x22
 80024d8:	b2d2      	uxtb	r2, r2
 80024da:	f000 81b3 	beq.w	8002844 <HAL_I2C_EV_IRQHandler+0x530>
 80024de:	2200      	movs	r2, #0
 80024e0:	920a      	str	r2, [sp, #40]	; 0x28
 80024e2:	695a      	ldr	r2, [r3, #20]
 80024e4:	920a      	str	r2, [sp, #40]	; 0x28
 80024e6:	699b      	ldr	r3, [r3, #24]
 80024e8:	930a      	str	r3, [sp, #40]	; 0x28
 80024ea:	9b0a      	ldr	r3, [sp, #40]	; 0x28
 80024ec:	e73e      	b.n	800236c <HAL_I2C_EV_IRQHandler+0x58>
 80024ee:	0612      	lsls	r2, r2, #24
 80024f0:	d527      	bpl.n	8002542 <HAL_I2C_EV_IRQHandler+0x22e>
 80024f2:	0546      	lsls	r6, r0, #21
 80024f4:	d525      	bpl.n	8002542 <HAL_I2C_EV_IRQHandler+0x22e>
 80024f6:	bb3d      	cbnz	r5, 8002548 <HAL_I2C_EV_IRQHandler+0x234>
 80024f8:	f894 003d 	ldrb.w	r0, [r4, #61]	; 0x3d
 80024fc:	8d62      	ldrh	r2, [r4, #42]	; 0x2a
 80024fe:	b292      	uxth	r2, r2
 8002500:	b2c0      	uxtb	r0, r0
 8002502:	2a00      	cmp	r2, #0
 8002504:	f43f af32 	beq.w	800236c <HAL_I2C_EV_IRQHandler+0x58>
 8002508:	6a65      	ldr	r5, [r4, #36]	; 0x24
 800250a:	f815 2b01 	ldrb.w	r2, [r5], #1
 800250e:	611a      	str	r2, [r3, #16]
 8002510:	8d62      	ldrh	r2, [r4, #42]	; 0x2a
 8002512:	6265      	str	r5, [r4, #36]	; 0x24
 8002514:	3a01      	subs	r2, #1
 8002516:	b292      	uxth	r2, r2
 8002518:	8562      	strh	r2, [r4, #42]	; 0x2a
 800251a:	8d62      	ldrh	r2, [r4, #42]	; 0x2a
 800251c:	b292      	uxth	r2, r2
 800251e:	2a00      	cmp	r2, #0
 8002520:	f47f af24 	bne.w	800236c <HAL_I2C_EV_IRQHandler+0x58>
 8002524:	2829      	cmp	r0, #41	; 0x29
 8002526:	f47f af21 	bne.w	800236c <HAL_I2C_EV_IRQHandler+0x58>
 800252a:	685a      	ldr	r2, [r3, #4]
 800252c:	2528      	movs	r5, #40	; 0x28
 800252e:	f422 6280 	bic.w	r2, r2, #1024	; 0x400
 8002532:	605a      	str	r2, [r3, #4]
 8002534:	4620      	mov	r0, r4
 8002536:	6321      	str	r1, [r4, #48]	; 0x30
 8002538:	f884 503d 	strb.w	r5, [r4, #61]	; 0x3d
 800253c:	f7ff fdd4 	bl	80020e8 <HAL_I2C_SlaveTxCpltCallback>
 8002540:	e714      	b.n	800236c <HAL_I2C_EV_IRQHandler+0x58>
 8002542:	2d00      	cmp	r5, #0
 8002544:	f43f af12 	beq.w	800236c <HAL_I2C_EV_IRQHandler+0x58>
 8002548:	0580      	lsls	r0, r0, #22
 800254a:	f57f af0f 	bpl.w	800236c <HAL_I2C_EV_IRQHandler+0x58>
 800254e:	8d62      	ldrh	r2, [r4, #42]	; 0x2a
 8002550:	b292      	uxth	r2, r2
 8002552:	2a00      	cmp	r2, #0
 8002554:	f43f af0a 	beq.w	800236c <HAL_I2C_EV_IRQHandler+0x58>
 8002558:	6a62      	ldr	r2, [r4, #36]	; 0x24
 800255a:	f812 1b01 	ldrb.w	r1, [r2], #1
 800255e:	6119      	str	r1, [r3, #16]
 8002560:	8d63      	ldrh	r3, [r4, #42]	; 0x2a
 8002562:	6262      	str	r2, [r4, #36]	; 0x24
 8002564:	3b01      	subs	r3, #1
 8002566:	b29b      	uxth	r3, r3
 8002568:	8563      	strh	r3, [r4, #42]	; 0x2a
 800256a:	e6ff      	b.n	800236c <HAL_I2C_EV_IRQHandler+0x58>
 800256c:	2d00      	cmp	r5, #0
 800256e:	f43f aefd 	beq.w	800236c <HAL_I2C_EV_IRQHandler+0x58>
 8002572:	0586      	lsls	r6, r0, #22
 8002574:	f57f aefa 	bpl.w	800236c <HAL_I2C_EV_IRQHandler+0x58>
 8002578:	8d62      	ldrh	r2, [r4, #42]	; 0x2a
 800257a:	b292      	uxth	r2, r2
 800257c:	2a00      	cmp	r2, #0
 800257e:	f43f aef5 	beq.w	800236c <HAL_I2C_EV_IRQHandler+0x58>
 8002582:	6a62      	ldr	r2, [r4, #36]	; 0x24
 8002584:	691b      	ldr	r3, [r3, #16]
 8002586:	7013      	strb	r3, [r2, #0]
 8002588:	8d63      	ldrh	r3, [r4, #42]	; 0x2a
 800258a:	6a62      	ldr	r2, [r4, #36]	; 0x24
 800258c:	3b01      	subs	r3, #1
 800258e:	b29b      	uxth	r3, r3
 8002590:	3201      	adds	r2, #1
 8002592:	8563      	strh	r3, [r4, #42]	; 0x2a
 8002594:	6262      	str	r2, [r4, #36]	; 0x24
 8002596:	e6e9      	b.n	800236c <HAL_I2C_EV_IRQHandler+0x58>
 8002598:	050e      	lsls	r6, r1, #20
 800259a:	f53f aee7 	bmi.w	800236c <HAL_I2C_EV_IRQHandler+0x58>
 800259e:	0655      	lsls	r5, r2, #25
 80025a0:	f3c2 0180 	ubfx	r1, r2, #2, #1
 80025a4:	f140 80b7 	bpl.w	8002716 <HAL_I2C_EV_IRQHandler+0x402>
 80025a8:	0542      	lsls	r2, r0, #21
 80025aa:	f140 80b4 	bpl.w	8002716 <HAL_I2C_EV_IRQHandler+0x402>
 80025ae:	2900      	cmp	r1, #0
 80025b0:	f040 80b4 	bne.w	800271c <HAL_I2C_EV_IRQHandler+0x408>
 80025b4:	f894 203d 	ldrb.w	r2, [r4, #61]	; 0x3d
 80025b8:	2a22      	cmp	r2, #34	; 0x22
 80025ba:	f47f aed7 	bne.w	800236c <HAL_I2C_EV_IRQHandler+0x58>
 80025be:	8d62      	ldrh	r2, [r4, #42]	; 0x2a
 80025c0:	b292      	uxth	r2, r2
 80025c2:	2a03      	cmp	r2, #3
 80025c4:	f240 824b 	bls.w	8002a5e <HAL_I2C_EV_IRQHandler+0x74a>
 80025c8:	6a62      	ldr	r2, [r4, #36]	; 0x24
 80025ca:	691b      	ldr	r3, [r3, #16]
 80025cc:	7013      	strb	r3, [r2, #0]
 80025ce:	8d63      	ldrh	r3, [r4, #42]	; 0x2a
 80025d0:	6a62      	ldr	r2, [r4, #36]	; 0x24
 80025d2:	3b01      	subs	r3, #1
 80025d4:	b29b      	uxth	r3, r3
 80025d6:	8563      	strh	r3, [r4, #42]	; 0x2a
 80025d8:	8d63      	ldrh	r3, [r4, #42]	; 0x2a
 80025da:	b29b      	uxth	r3, r3
 80025dc:	3201      	adds	r2, #1
 80025de:	2b03      	cmp	r3, #3
 80025e0:	6262      	str	r2, [r4, #36]	; 0x24
 80025e2:	f47f aec3 	bne.w	800236c <HAL_I2C_EV_IRQHandler+0x58>
 80025e6:	6822      	ldr	r2, [r4, #0]
 80025e8:	6853      	ldr	r3, [r2, #4]
 80025ea:	f423 6380 	bic.w	r3, r3, #1024	; 0x400
 80025ee:	6053      	str	r3, [r2, #4]
 80025f0:	e6bc      	b.n	800236c <HAL_I2C_EV_IRQHandler+0x58>
 80025f2:	f894 103d 	ldrb.w	r1, [r4, #61]	; 0x3d
 80025f6:	685a      	ldr	r2, [r3, #4]
 80025f8:	f422 62e0 	bic.w	r2, r2, #1792	; 0x700
 80025fc:	605a      	str	r2, [r3, #4]
 80025fe:	950b      	str	r5, [sp, #44]	; 0x2c
 8002600:	695a      	ldr	r2, [r3, #20]
 8002602:	920b      	str	r2, [sp, #44]	; 0x2c
 8002604:	681a      	ldr	r2, [r3, #0]
 8002606:	f042 0201 	orr.w	r2, r2, #1
 800260a:	601a      	str	r2, [r3, #0]
 800260c:	9a0b      	ldr	r2, [sp, #44]	; 0x2c
 800260e:	681a      	ldr	r2, [r3, #0]
 8002610:	f422 6280 	bic.w	r2, r2, #1024	; 0x400
 8002614:	601a      	str	r2, [r3, #0]
 8002616:	685a      	ldr	r2, [r3, #4]
 8002618:	0516      	lsls	r6, r2, #20
 800261a:	b2cd      	uxtb	r5, r1
 800261c:	d521      	bpl.n	8002662 <HAL_I2C_EV_IRQHandler+0x34e>
 800261e:	f005 02f7 	and.w	r2, r5, #247	; 0xf7
 8002622:	2a22      	cmp	r2, #34	; 0x22
 8002624:	f000 80ed 	beq.w	8002802 <HAL_I2C_EV_IRQHandler+0x4ee>
 8002628:	6b60      	ldr	r0, [r4, #52]	; 0x34
 800262a:	6802      	ldr	r2, [r0, #0]
 800262c:	6852      	ldr	r2, [r2, #4]
 800262e:	b292      	uxth	r2, r2
 8002630:	8562      	strh	r2, [r4, #42]	; 0x2a
 8002632:	8d62      	ldrh	r2, [r4, #42]	; 0x2a
 8002634:	b292      	uxth	r2, r2
 8002636:	b11a      	cbz	r2, 8002640 <HAL_I2C_EV_IRQHandler+0x32c>
 8002638:	6c22      	ldr	r2, [r4, #64]	; 0x40
 800263a:	f042 0204 	orr.w	r2, r2, #4
 800263e:	6422      	str	r2, [r4, #64]	; 0x40
 8002640:	685a      	ldr	r2, [r3, #4]
 8002642:	f422 6200 	bic.w	r2, r2, #2048	; 0x800
 8002646:	605a      	str	r2, [r3, #4]
 8002648:	f7fe ff0c 	bl	8001464 <HAL_DMA_GetState>
 800264c:	2801      	cmp	r0, #1
 800264e:	d008      	beq.n	8002662 <HAL_I2C_EV_IRQHandler+0x34e>
 8002650:	6b60      	ldr	r0, [r4, #52]	; 0x34
 8002652:	4b97      	ldr	r3, [pc, #604]	; (80028b0 <HAL_I2C_EV_IRQHandler+0x59c>)
 8002654:	6503      	str	r3, [r0, #80]	; 0x50
 8002656:	f7fe fe1d 	bl	8001294 <HAL_DMA_Abort_IT>
 800265a:	b110      	cbz	r0, 8002662 <HAL_I2C_EV_IRQHandler+0x34e>
 800265c:	6b60      	ldr	r0, [r4, #52]	; 0x34
 800265e:	6d03      	ldr	r3, [r0, #80]	; 0x50
 8002660:	4798      	blx	r3
 8002662:	8d63      	ldrh	r3, [r4, #42]	; 0x2a
 8002664:	b29b      	uxth	r3, r3
 8002666:	b313      	cbz	r3, 80026ae <HAL_I2C_EV_IRQHandler+0x39a>
 8002668:	6823      	ldr	r3, [r4, #0]
 800266a:	695a      	ldr	r2, [r3, #20]
 800266c:	0750      	lsls	r0, r2, #29
 800266e:	d50a      	bpl.n	8002686 <HAL_I2C_EV_IRQHandler+0x372>
 8002670:	6a62      	ldr	r2, [r4, #36]	; 0x24
 8002672:	691b      	ldr	r3, [r3, #16]
 8002674:	7013      	strb	r3, [r2, #0]
 8002676:	8d62      	ldrh	r2, [r4, #42]	; 0x2a
 8002678:	6a61      	ldr	r1, [r4, #36]	; 0x24
 800267a:	6823      	ldr	r3, [r4, #0]
 800267c:	3a01      	subs	r2, #1
 800267e:	b292      	uxth	r2, r2
 8002680:	3101      	adds	r1, #1
 8002682:	8562      	strh	r2, [r4, #42]	; 0x2a
 8002684:	6261      	str	r1, [r4, #36]	; 0x24
 8002686:	695a      	ldr	r2, [r3, #20]
 8002688:	0651      	lsls	r1, r2, #25
 800268a:	d509      	bpl.n	80026a0 <HAL_I2C_EV_IRQHandler+0x38c>
 800268c:	6a62      	ldr	r2, [r4, #36]	; 0x24
 800268e:	691b      	ldr	r3, [r3, #16]
 8002690:	7013      	strb	r3, [r2, #0]
 8002692:	8d63      	ldrh	r3, [r4, #42]	; 0x2a
 8002694:	6a62      	ldr	r2, [r4, #36]	; 0x24
 8002696:	3b01      	subs	r3, #1
 8002698:	b29b      	uxth	r3, r3
 800269a:	3201      	adds	r2, #1
 800269c:	8563      	strh	r3, [r4, #42]	; 0x2a
 800269e:	6262      	str	r2, [r4, #36]	; 0x24
 80026a0:	8d63      	ldrh	r3, [r4, #42]	; 0x2a
 80026a2:	b29b      	uxth	r3, r3
 80026a4:	b11b      	cbz	r3, 80026ae <HAL_I2C_EV_IRQHandler+0x39a>
 80026a6:	6c23      	ldr	r3, [r4, #64]	; 0x40
 80026a8:	f043 0304 	orr.w	r3, r3, #4
 80026ac:	6423      	str	r3, [r4, #64]	; 0x40
 80026ae:	6c23      	ldr	r3, [r4, #64]	; 0x40
 80026b0:	2b00      	cmp	r3, #0
 80026b2:	f040 809c 	bne.w	80027ee <HAL_I2C_EV_IRQHandler+0x4da>
 80026b6:	2d2a      	cmp	r5, #42	; 0x2a
 80026b8:	f000 80e4 	beq.w	8002884 <HAL_I2C_EV_IRQHandler+0x570>
 80026bc:	f894 303d 	ldrb.w	r3, [r4, #61]	; 0x3d
 80026c0:	2b28      	cmp	r3, #40	; 0x28
 80026c2:	f000 80e7 	beq.w	8002894 <HAL_I2C_EV_IRQHandler+0x580>
 80026c6:	6b23      	ldr	r3, [r4, #48]	; 0x30
 80026c8:	2b22      	cmp	r3, #34	; 0x22
 80026ca:	d002      	beq.n	80026d2 <HAL_I2C_EV_IRQHandler+0x3be>
 80026cc:	2d22      	cmp	r5, #34	; 0x22
 80026ce:	f47f ae4d 	bne.w	800236c <HAL_I2C_EV_IRQHandler+0x58>
 80026d2:	2300      	movs	r3, #0
 80026d4:	2220      	movs	r2, #32
 80026d6:	6323      	str	r3, [r4, #48]	; 0x30
 80026d8:	4620      	mov	r0, r4
 80026da:	f884 203d 	strb.w	r2, [r4, #61]	; 0x3d
 80026de:	f884 303e 	strb.w	r3, [r4, #62]	; 0x3e
 80026e2:	f7ff fd03 	bl	80020ec <HAL_I2C_SlaveRxCpltCallback>
 80026e6:	e641      	b.n	800236c <HAL_I2C_EV_IRQHandler+0x58>
 80026e8:	2900      	cmp	r1, #0
 80026ea:	f43f ae3f 	beq.w	800236c <HAL_I2C_EV_IRQHandler+0x58>
 80026ee:	0582      	lsls	r2, r0, #22
 80026f0:	f57f ae3c 	bpl.w	800236c <HAL_I2C_EV_IRQHandler+0x58>
 80026f4:	6ae1      	ldr	r1, [r4, #44]	; 0x2c
 80026f6:	f894 203d 	ldrb.w	r2, [r4, #61]	; 0x3d
 80026fa:	2a21      	cmp	r2, #33	; 0x21
 80026fc:	f000 8104 	beq.w	8002908 <HAL_I2C_EV_IRQHandler+0x5f4>
 8002700:	f894 303e 	ldrb.w	r3, [r4, #62]	; 0x3e
 8002704:	2b40      	cmp	r3, #64	; 0x40
 8002706:	f47f ae31 	bne.w	800236c <HAL_I2C_EV_IRQHandler+0x58>
 800270a:	4620      	mov	r0, r4
 800270c:	b00c      	add	sp, #48	; 0x30
 800270e:	e8bd 4070 	ldmia.w	sp!, {r4, r5, r6, lr}
 8002712:	f7fe bfc9 	b.w	80016a8 <I2C_MemoryTransmit_TXE_BTF>
 8002716:	2900      	cmp	r1, #0
 8002718:	f43f ae28 	beq.w	800236c <HAL_I2C_EV_IRQHandler+0x58>
 800271c:	0586      	lsls	r6, r0, #22
 800271e:	f57f ae25 	bpl.w	800236c <HAL_I2C_EV_IRQHandler+0x58>
 8002722:	6ae0      	ldr	r0, [r4, #44]	; 0x2c
 8002724:	8d62      	ldrh	r2, [r4, #42]	; 0x2a
 8002726:	6a61      	ldr	r1, [r4, #36]	; 0x24
 8002728:	b292      	uxth	r2, r2
 800272a:	2a04      	cmp	r2, #4
 800272c:	f000 8111 	beq.w	8002952 <HAL_I2C_EV_IRQHandler+0x63e>
 8002730:	8d62      	ldrh	r2, [r4, #42]	; 0x2a
 8002732:	b292      	uxth	r2, r2
 8002734:	2a03      	cmp	r2, #3
 8002736:	f000 8113 	beq.w	8002960 <HAL_I2C_EV_IRQHandler+0x64c>
 800273a:	8d62      	ldrh	r2, [r4, #42]	; 0x2a
 800273c:	b292      	uxth	r2, r2
 800273e:	2a02      	cmp	r2, #2
 8002740:	f000 8136 	beq.w	80029b0 <HAL_I2C_EV_IRQHandler+0x69c>
 8002744:	691b      	ldr	r3, [r3, #16]
 8002746:	700b      	strb	r3, [r1, #0]
 8002748:	e71e      	b.n	8002588 <HAL_I2C_EV_IRQHandler+0x274>
 800274a:	f894 203d 	ldrb.w	r2, [r4, #61]	; 0x3d
 800274e:	2a21      	cmp	r2, #33	; 0x21
 8002750:	6c62      	ldr	r2, [r4, #68]	; 0x44
 8002752:	bf16      	itet	ne
 8002754:	f042 0201 	orrne.w	r2, r2, #1
 8002758:	f002 02fe 	andeq.w	r2, r2, #254	; 0xfe
 800275c:	b2d2      	uxtbne	r2, r2
 800275e:	611a      	str	r2, [r3, #16]
 8002760:	6b62      	ldr	r2, [r4, #52]	; 0x34
 8002762:	2a00      	cmp	r2, #0
 8002764:	f000 808a 	beq.w	800287c <HAL_I2C_EV_IRQHandler+0x568>
 8002768:	6bd2      	ldr	r2, [r2, #60]	; 0x3c
 800276a:	2a00      	cmp	r2, #0
 800276c:	f000 8086 	beq.w	800287c <HAL_I2C_EV_IRQHandler+0x568>
 8002770:	685a      	ldr	r2, [r3, #4]
 8002772:	f442 6200 	orr.w	r2, r2, #2048	; 0x800
 8002776:	605a      	str	r2, [r3, #4]
 8002778:	e5f8      	b.n	800236c <HAL_I2C_EV_IRQHandler+0x58>
 800277a:	6c62      	ldr	r2, [r4, #68]	; 0x44
 800277c:	6b61      	ldr	r1, [r4, #52]	; 0x34
 800277e:	b2d2      	uxtb	r2, r2
 8002780:	611a      	str	r2, [r3, #16]
 8002782:	2900      	cmp	r1, #0
 8002784:	d039      	beq.n	80027fa <HAL_I2C_EV_IRQHandler+0x4e6>
 8002786:	6bca      	ldr	r2, [r1, #60]	; 0x3c
 8002788:	2a00      	cmp	r2, #0
 800278a:	d1f1      	bne.n	8002770 <HAL_I2C_EV_IRQHandler+0x45c>
 800278c:	6ba2      	ldr	r2, [r4, #56]	; 0x38
 800278e:	6bd2      	ldr	r2, [r2, #60]	; 0x3c
 8002790:	2a00      	cmp	r2, #0
 8002792:	d1ed      	bne.n	8002770 <HAL_I2C_EV_IRQHandler+0x45c>
 8002794:	e5ea      	b.n	800236c <HAL_I2C_EV_IRQHandler+0x58>
 8002796:	685a      	ldr	r2, [r3, #4]
 8002798:	f422 6280 	bic.w	r2, r2, #1024	; 0x400
 800279c:	605a      	str	r2, [r3, #4]
 800279e:	ea6f 0196 	mvn.w	r1, r6, lsr #2
 80027a2:	0633      	lsls	r3, r6, #24
 80027a4:	f04f 0300 	mov.w	r3, #0
 80027a8:	f001 0101 	and.w	r1, r1, #1
 80027ac:	bf54      	ite	pl
 80027ae:	89a2      	ldrhpl	r2, [r4, #12]
 80027b0:	8b22      	ldrhmi	r2, [r4, #24]
 80027b2:	f884 303c 	strb.w	r3, [r4, #60]	; 0x3c
 80027b6:	4620      	mov	r0, r4
 80027b8:	f7ff fc9a 	bl	80020f0 <HAL_I2C_AddrCallback>
 80027bc:	e5d6      	b.n	800236c <HAL_I2C_EV_IRQHandler+0x58>
 80027be:	6d22      	ldr	r2, [r4, #80]	; 0x50
 80027c0:	b97a      	cbnz	r2, 80027e2 <HAL_I2C_EV_IRQHandler+0x4ce>
 80027c2:	6c62      	ldr	r2, [r4, #68]	; 0x44
 80027c4:	f002 02fe 	and.w	r2, r2, #254	; 0xfe
 80027c8:	611a      	str	r2, [r3, #16]
 80027ca:	e5cf      	b.n	800236c <HAL_I2C_EV_IRQHandler+0x58>
 80027cc:	2201      	movs	r2, #1
 80027ce:	62e2      	str	r2, [r4, #44]	; 0x2c
 80027d0:	e61a      	b.n	8002408 <HAL_I2C_EV_IRQHandler+0xf4>
 80027d2:	6c62      	ldr	r2, [r4, #68]	; 0x44
 80027d4:	11d2      	asrs	r2, r2, #7
 80027d6:	f002 0206 	and.w	r2, r2, #6
 80027da:	f042 02f0 	orr.w	r2, r2, #240	; 0xf0
 80027de:	611a      	str	r2, [r3, #16]
 80027e0:	e5c4      	b.n	800236c <HAL_I2C_EV_IRQHandler+0x58>
 80027e2:	6c62      	ldr	r2, [r4, #68]	; 0x44
 80027e4:	f042 0201 	orr.w	r2, r2, #1
 80027e8:	b2d2      	uxtb	r2, r2
 80027ea:	611a      	str	r2, [r3, #16]
 80027ec:	e5be      	b.n	800236c <HAL_I2C_EV_IRQHandler+0x58>
 80027ee:	4620      	mov	r0, r4
 80027f0:	b00c      	add	sp, #48	; 0x30
 80027f2:	e8bd 4070 	ldmia.w	sp!, {r4, r5, r6, lr}
 80027f6:	f7ff bcdf 	b.w	80021b8 <I2C_ITError>
 80027fa:	6ba2      	ldr	r2, [r4, #56]	; 0x38
 80027fc:	2a00      	cmp	r2, #0
 80027fe:	d1c2      	bne.n	8002786 <HAL_I2C_EV_IRQHandler+0x472>
 8002800:	e5b4      	b.n	800236c <HAL_I2C_EV_IRQHandler+0x58>
 8002802:	6ba0      	ldr	r0, [r4, #56]	; 0x38
 8002804:	6802      	ldr	r2, [r0, #0]
 8002806:	6852      	ldr	r2, [r2, #4]
 8002808:	b292      	uxth	r2, r2
 800280a:	8562      	strh	r2, [r4, #42]	; 0x2a
 800280c:	8d62      	ldrh	r2, [r4, #42]	; 0x2a
 800280e:	b292      	uxth	r2, r2
 8002810:	b11a      	cbz	r2, 800281a <HAL_I2C_EV_IRQHandler+0x506>
 8002812:	6c22      	ldr	r2, [r4, #64]	; 0x40
 8002814:	f042 0204 	orr.w	r2, r2, #4
 8002818:	6422      	str	r2, [r4, #64]	; 0x40
 800281a:	685a      	ldr	r2, [r3, #4]
 800281c:	f422 6200 	bic.w	r2, r2, #2048	; 0x800
 8002820:	605a      	str	r2, [r3, #4]
 8002822:	f7fe fe1f 	bl	8001464 <HAL_DMA_GetState>
 8002826:	2801      	cmp	r0, #1
 8002828:	f43f af1b 	beq.w	8002662 <HAL_I2C_EV_IRQHandler+0x34e>
 800282c:	6ba0      	ldr	r0, [r4, #56]	; 0x38
 800282e:	4b20      	ldr	r3, [pc, #128]	; (80028b0 <HAL_I2C_EV_IRQHandler+0x59c>)
 8002830:	6503      	str	r3, [r0, #80]	; 0x50
 8002832:	f7fe fd2f 	bl	8001294 <HAL_DMA_Abort_IT>
 8002836:	2800      	cmp	r0, #0
 8002838:	f43f af13 	beq.w	8002662 <HAL_I2C_EV_IRQHandler+0x34e>
 800283c:	6ba0      	ldr	r0, [r4, #56]	; 0x38
 800283e:	6d03      	ldr	r3, [r0, #80]	; 0x50
 8002840:	4798      	blx	r3
 8002842:	e70e      	b.n	8002662 <HAL_I2C_EV_IRQHandler+0x34e>
 8002844:	6d21      	ldr	r1, [r4, #80]	; 0x50
 8002846:	b911      	cbnz	r1, 800284e <HAL_I2C_EV_IRQHandler+0x53a>
 8002848:	2a40      	cmp	r2, #64	; 0x40
 800284a:	f000 809c 	beq.w	8002986 <HAL_I2C_EV_IRQHandler+0x672>
 800284e:	6d22      	ldr	r2, [r4, #80]	; 0x50
 8002850:	b922      	cbnz	r2, 800285c <HAL_I2C_EV_IRQHandler+0x548>
 8002852:	6921      	ldr	r1, [r4, #16]
 8002854:	f5b1 4f40 	cmp.w	r1, #49152	; 0xc000
 8002858:	f000 809c 	beq.w	8002994 <HAL_I2C_EV_IRQHandler+0x680>
 800285c:	8d62      	ldrh	r2, [r4, #42]	; 0x2a
 800285e:	b292      	uxth	r2, r2
 8002860:	bb52      	cbnz	r2, 80028b8 <HAL_I2C_EV_IRQHandler+0x5a4>
 8002862:	9203      	str	r2, [sp, #12]
 8002864:	695a      	ldr	r2, [r3, #20]
 8002866:	9203      	str	r2, [sp, #12]
 8002868:	699a      	ldr	r2, [r3, #24]
 800286a:	9203      	str	r2, [sp, #12]
 800286c:	9a03      	ldr	r2, [sp, #12]
 800286e:	681a      	ldr	r2, [r3, #0]
 8002870:	f442 7200 	orr.w	r2, r2, #512	; 0x200
 8002874:	601a      	str	r2, [r3, #0]
 8002876:	2300      	movs	r3, #0
 8002878:	6523      	str	r3, [r4, #80]	; 0x50
 800287a:	e577      	b.n	800236c <HAL_I2C_EV_IRQHandler+0x58>
 800287c:	6ba2      	ldr	r2, [r4, #56]	; 0x38
 800287e:	2a00      	cmp	r2, #0
 8002880:	d185      	bne.n	800278e <HAL_I2C_EV_IRQHandler+0x47a>
 8002882:	e573      	b.n	800236c <HAL_I2C_EV_IRQHandler+0x58>
 8002884:	2228      	movs	r2, #40	; 0x28
 8002886:	6323      	str	r3, [r4, #48]	; 0x30
 8002888:	4620      	mov	r0, r4
 800288a:	f884 203d 	strb.w	r2, [r4, #61]	; 0x3d
 800288e:	f7ff fc2d 	bl	80020ec <HAL_I2C_SlaveRxCpltCallback>
 8002892:	e713      	b.n	80026bc <HAL_I2C_EV_IRQHandler+0x3a8>
 8002894:	4b07      	ldr	r3, [pc, #28]	; (80028b4 <HAL_I2C_EV_IRQHandler+0x5a0>)
 8002896:	62e3      	str	r3, [r4, #44]	; 0x2c
 8002898:	2220      	movs	r2, #32
 800289a:	2300      	movs	r3, #0
 800289c:	6323      	str	r3, [r4, #48]	; 0x30
 800289e:	4620      	mov	r0, r4
 80028a0:	f884 203d 	strb.w	r2, [r4, #61]	; 0x3d
 80028a4:	f884 303e 	strb.w	r3, [r4, #62]	; 0x3e
 80028a8:	f7ff fc24 	bl	80020f4 <HAL_I2C_ListenCpltCallback>
 80028ac:	e55e      	b.n	800236c <HAL_I2C_EV_IRQHandler+0x58>
 80028ae:	bf00      	nop
 80028b0:	08002109 	.word	0x08002109
 80028b4:	ffff0000 	.word	0xffff0000
 80028b8:	8d62      	ldrh	r2, [r4, #42]	; 0x2a
 80028ba:	b292      	uxth	r2, r2
 80028bc:	2a01      	cmp	r2, #1
 80028be:	f000 80ad 	beq.w	8002a1c <HAL_I2C_EV_IRQHandler+0x708>
 80028c2:	8d62      	ldrh	r2, [r4, #42]	; 0x2a
 80028c4:	b292      	uxth	r2, r2
 80028c6:	2a02      	cmp	r2, #2
 80028c8:	f000 8117 	beq.w	8002afa <HAL_I2C_EV_IRQHandler+0x7e6>
 80028cc:	681a      	ldr	r2, [r3, #0]
 80028ce:	f442 6280 	orr.w	r2, r2, #1024	; 0x400
 80028d2:	601a      	str	r2, [r3, #0]
 80028d4:	685a      	ldr	r2, [r3, #4]
 80028d6:	0515      	lsls	r5, r2, #20
 80028d8:	d50e      	bpl.n	80028f8 <HAL_I2C_EV_IRQHandler+0x5e4>
 80028da:	f510 3f80 	cmn.w	r0, #65536	; 0x10000
 80028de:	d007      	beq.n	80028f0 <HAL_I2C_EV_IRQHandler+0x5dc>
 80028e0:	3801      	subs	r0, #1
 80028e2:	281f      	cmp	r0, #31
 80028e4:	d808      	bhi.n	80028f8 <HAL_I2C_EV_IRQHandler+0x5e4>
 80028e6:	4aa4      	ldr	r2, [pc, #656]	; (8002b78 <HAL_I2C_EV_IRQHandler+0x864>)
 80028e8:	fa22 f000 	lsr.w	r0, r2, r0
 80028ec:	07c0      	lsls	r0, r0, #31
 80028ee:	d503      	bpl.n	80028f8 <HAL_I2C_EV_IRQHandler+0x5e4>
 80028f0:	685a      	ldr	r2, [r3, #4]
 80028f2:	f442 5280 	orr.w	r2, r2, #4096	; 0x1000
 80028f6:	605a      	str	r2, [r3, #4]
 80028f8:	2200      	movs	r2, #0
 80028fa:	9209      	str	r2, [sp, #36]	; 0x24
 80028fc:	695a      	ldr	r2, [r3, #20]
 80028fe:	9209      	str	r2, [sp, #36]	; 0x24
 8002900:	699b      	ldr	r3, [r3, #24]
 8002902:	9309      	str	r3, [sp, #36]	; 0x24
 8002904:	9b09      	ldr	r3, [sp, #36]	; 0x24
 8002906:	e7b6      	b.n	8002876 <HAL_I2C_EV_IRQHandler+0x562>
 8002908:	8d62      	ldrh	r2, [r4, #42]	; 0x2a
 800290a:	b292      	uxth	r2, r2
 800290c:	2a00      	cmp	r2, #0
 800290e:	f47f ae23 	bne.w	8002558 <HAL_I2C_EV_IRQHandler+0x244>
 8002912:	2908      	cmp	r1, #8
 8002914:	d005      	beq.n	8002922 <HAL_I2C_EV_IRQHandler+0x60e>
 8002916:	2920      	cmp	r1, #32
 8002918:	d003      	beq.n	8002922 <HAL_I2C_EV_IRQHandler+0x60e>
 800291a:	f511 3f80 	cmn.w	r1, #65536	; 0x10000
 800291e:	f040 8143 	bne.w	8002ba8 <HAL_I2C_EV_IRQHandler+0x894>
 8002922:	685a      	ldr	r2, [r3, #4]
 8002924:	f422 62e0 	bic.w	r2, r2, #1792	; 0x700
 8002928:	605a      	str	r2, [r3, #4]
 800292a:	6819      	ldr	r1, [r3, #0]
 800292c:	2200      	movs	r2, #0
 800292e:	2020      	movs	r0, #32
 8002930:	f441 7100 	orr.w	r1, r1, #512	; 0x200
 8002934:	6019      	str	r1, [r3, #0]
 8002936:	6322      	str	r2, [r4, #48]	; 0x30
 8002938:	f884 003d 	strb.w	r0, [r4, #61]	; 0x3d
 800293c:	f894 303e 	ldrb.w	r3, [r4, #62]	; 0x3e
 8002940:	f884 203e 	strb.w	r2, [r4, #62]	; 0x3e
 8002944:	2b40      	cmp	r3, #64	; 0x40
 8002946:	4620      	mov	r0, r4
 8002948:	f000 80d4 	beq.w	8002af4 <HAL_I2C_EV_IRQHandler+0x7e0>
 800294c:	f7ff fbc8 	bl	80020e0 <HAL_I2C_MasterTxCpltCallback>
 8002950:	e50c      	b.n	800236c <HAL_I2C_EV_IRQHandler+0x58>
 8002952:	685a      	ldr	r2, [r3, #4]
 8002954:	f422 6280 	bic.w	r2, r2, #1024	; 0x400
 8002958:	605a      	str	r2, [r3, #4]
 800295a:	691b      	ldr	r3, [r3, #16]
 800295c:	700b      	strb	r3, [r1, #0]
 800295e:	e613      	b.n	8002588 <HAL_I2C_EV_IRQHandler+0x274>
 8002960:	685a      	ldr	r2, [r3, #4]
 8002962:	2804      	cmp	r0, #4
 8002964:	f422 6280 	bic.w	r2, r2, #1024	; 0x400
 8002968:	605a      	str	r2, [r3, #4]
 800296a:	f43f aeeb 	beq.w	8002744 <HAL_I2C_EV_IRQHandler+0x430>
 800296e:	2802      	cmp	r0, #2
 8002970:	f43f aee8 	beq.w	8002744 <HAL_I2C_EV_IRQHandler+0x430>
 8002974:	681a      	ldr	r2, [r3, #0]
 8002976:	f422 6280 	bic.w	r2, r2, #1024	; 0x400
 800297a:	601a      	str	r2, [r3, #0]
 800297c:	e6e2      	b.n	8002744 <HAL_I2C_EV_IRQHandler+0x430>
 800297e:	2a21      	cmp	r2, #33	; 0x21
 8002980:	f43f ad2a 	beq.w	80023d8 <HAL_I2C_EV_IRQHandler+0xc4>
 8002984:	e524      	b.n	80023d0 <HAL_I2C_EV_IRQHandler+0xbc>
 8002986:	9101      	str	r1, [sp, #4]
 8002988:	695a      	ldr	r2, [r3, #20]
 800298a:	9201      	str	r2, [sp, #4]
 800298c:	699b      	ldr	r3, [r3, #24]
 800298e:	9301      	str	r3, [sp, #4]
 8002990:	9b01      	ldr	r3, [sp, #4]
 8002992:	e4eb      	b.n	800236c <HAL_I2C_EV_IRQHandler+0x58>
 8002994:	9202      	str	r2, [sp, #8]
 8002996:	695a      	ldr	r2, [r3, #20]
 8002998:	9202      	str	r2, [sp, #8]
 800299a:	699a      	ldr	r2, [r3, #24]
 800299c:	9202      	str	r2, [sp, #8]
 800299e:	9a02      	ldr	r2, [sp, #8]
 80029a0:	681a      	ldr	r2, [r3, #0]
 80029a2:	f442 7280 	orr.w	r2, r2, #256	; 0x100
 80029a6:	601a      	str	r2, [r3, #0]
 80029a8:	6d23      	ldr	r3, [r4, #80]	; 0x50
 80029aa:	3301      	adds	r3, #1
 80029ac:	6523      	str	r3, [r4, #80]	; 0x50
 80029ae:	e4dd      	b.n	800236c <HAL_I2C_EV_IRQHandler+0x58>
 80029b0:	2801      	cmp	r0, #1
 80029b2:	681a      	ldr	r2, [r3, #0]
 80029b4:	d07b      	beq.n	8002aae <HAL_I2C_EV_IRQHandler+0x79a>
 80029b6:	2810      	cmp	r0, #16
 80029b8:	d079      	beq.n	8002aae <HAL_I2C_EV_IRQHandler+0x79a>
 80029ba:	2804      	cmp	r0, #4
 80029bc:	f000 8101 	beq.w	8002bc2 <HAL_I2C_EV_IRQHandler+0x8ae>
 80029c0:	2802      	cmp	r0, #2
 80029c2:	f000 80fe 	beq.w	8002bc2 <HAL_I2C_EV_IRQHandler+0x8ae>
 80029c6:	f442 7200 	orr.w	r2, r2, #512	; 0x200
 80029ca:	601a      	str	r2, [r3, #0]
 80029cc:	691b      	ldr	r3, [r3, #16]
 80029ce:	700b      	strb	r3, [r1, #0]
 80029d0:	8d63      	ldrh	r3, [r4, #42]	; 0x2a
 80029d2:	6a62      	ldr	r2, [r4, #36]	; 0x24
 80029d4:	6821      	ldr	r1, [r4, #0]
 80029d6:	3b01      	subs	r3, #1
 80029d8:	b29b      	uxth	r3, r3
 80029da:	8563      	strh	r3, [r4, #42]	; 0x2a
 80029dc:	690b      	ldr	r3, [r1, #16]
 80029de:	1c51      	adds	r1, r2, #1
 80029e0:	6261      	str	r1, [r4, #36]	; 0x24
 80029e2:	7053      	strb	r3, [r2, #1]
 80029e4:	8d63      	ldrh	r3, [r4, #42]	; 0x2a
 80029e6:	6821      	ldr	r1, [r4, #0]
 80029e8:	6a62      	ldr	r2, [r4, #36]	; 0x24
 80029ea:	3b01      	subs	r3, #1
 80029ec:	b29b      	uxth	r3, r3
 80029ee:	8563      	strh	r3, [r4, #42]	; 0x2a
 80029f0:	684b      	ldr	r3, [r1, #4]
 80029f2:	3201      	adds	r2, #1
 80029f4:	f423 7340 	bic.w	r3, r3, #768	; 0x300
 80029f8:	2020      	movs	r0, #32
 80029fa:	6262      	str	r2, [r4, #36]	; 0x24
 80029fc:	604b      	str	r3, [r1, #4]
 80029fe:	f884 003d 	strb.w	r0, [r4, #61]	; 0x3d
 8002a02:	f894 303e 	ldrb.w	r3, [r4, #62]	; 0x3e
 8002a06:	2b40      	cmp	r3, #64	; 0x40
 8002a08:	d049      	beq.n	8002a9e <HAL_I2C_EV_IRQHandler+0x78a>
 8002a0a:	2200      	movs	r2, #0
 8002a0c:	2312      	movs	r3, #18
 8002a0e:	f884 203e 	strb.w	r2, [r4, #62]	; 0x3e
 8002a12:	4620      	mov	r0, r4
 8002a14:	6323      	str	r3, [r4, #48]	; 0x30
 8002a16:	f7ff fb65 	bl	80020e4 <HAL_I2C_MasterRxCpltCallback>
 8002a1a:	e4a7      	b.n	800236c <HAL_I2C_EV_IRQHandler+0x58>
 8002a1c:	f510 3f80 	cmn.w	r0, #65536	; 0x10000
 8002a20:	f000 80ae 	beq.w	8002b80 <HAL_I2C_EV_IRQHandler+0x86c>
 8002a24:	2808      	cmp	r0, #8
 8002a26:	f000 8097 	beq.w	8002b58 <HAL_I2C_EV_IRQHandler+0x844>
 8002a2a:	2820      	cmp	r0, #32
 8002a2c:	f000 8094 	beq.w	8002b58 <HAL_I2C_EV_IRQHandler+0x844>
 8002a30:	2d12      	cmp	r5, #18
 8002a32:	f000 808e 	beq.w	8002b52 <HAL_I2C_EV_IRQHandler+0x83e>
 8002a36:	2810      	cmp	r0, #16
 8002a38:	d805      	bhi.n	8002a46 <HAL_I2C_EV_IRQHandler+0x732>
 8002a3a:	4a50      	ldr	r2, [pc, #320]	; (8002b7c <HAL_I2C_EV_IRQHandler+0x868>)
 8002a3c:	fa22 f000 	lsr.w	r0, r2, r0
 8002a40:	07c0      	lsls	r0, r0, #31
 8002a42:	f100 80cd 	bmi.w	8002be0 <HAL_I2C_EV_IRQHandler+0x8cc>
 8002a46:	681a      	ldr	r2, [r3, #0]
 8002a48:	f422 6280 	bic.w	r2, r2, #1024	; 0x400
 8002a4c:	601a      	str	r2, [r3, #0]
 8002a4e:	2200      	movs	r2, #0
 8002a50:	9206      	str	r2, [sp, #24]
 8002a52:	695a      	ldr	r2, [r3, #20]
 8002a54:	9206      	str	r2, [sp, #24]
 8002a56:	699b      	ldr	r3, [r3, #24]
 8002a58:	9306      	str	r3, [sp, #24]
 8002a5a:	9b06      	ldr	r3, [sp, #24]
 8002a5c:	e70b      	b.n	8002876 <HAL_I2C_EV_IRQHandler+0x562>
 8002a5e:	6ae1      	ldr	r1, [r4, #44]	; 0x2c
 8002a60:	2902      	cmp	r1, #2
 8002a62:	f43f ac83 	beq.w	800236c <HAL_I2C_EV_IRQHandler+0x58>
 8002a66:	2a01      	cmp	r2, #1
 8002a68:	f63f ac80 	bhi.w	800236c <HAL_I2C_EV_IRQHandler+0x58>
 8002a6c:	681a      	ldr	r2, [r3, #0]
 8002a6e:	6a61      	ldr	r1, [r4, #36]	; 0x24
 8002a70:	f422 6280 	bic.w	r2, r2, #1024	; 0x400
 8002a74:	601a      	str	r2, [r3, #0]
 8002a76:	685a      	ldr	r2, [r3, #4]
 8002a78:	f422 62e0 	bic.w	r2, r2, #1792	; 0x700
 8002a7c:	605a      	str	r2, [r3, #4]
 8002a7e:	691b      	ldr	r3, [r3, #16]
 8002a80:	700b      	strb	r3, [r1, #0]
 8002a82:	8d63      	ldrh	r3, [r4, #42]	; 0x2a
 8002a84:	6a62      	ldr	r2, [r4, #36]	; 0x24
 8002a86:	3b01      	subs	r3, #1
 8002a88:	b29b      	uxth	r3, r3
 8002a8a:	2120      	movs	r1, #32
 8002a8c:	8563      	strh	r3, [r4, #42]	; 0x2a
 8002a8e:	f884 103d 	strb.w	r1, [r4, #61]	; 0x3d
 8002a92:	f894 303e 	ldrb.w	r3, [r4, #62]	; 0x3e
 8002a96:	3201      	adds	r2, #1
 8002a98:	2b40      	cmp	r3, #64	; 0x40
 8002a9a:	6262      	str	r2, [r4, #36]	; 0x24
 8002a9c:	d1b5      	bne.n	8002a0a <HAL_I2C_EV_IRQHandler+0x6f6>
 8002a9e:	2300      	movs	r3, #0
 8002aa0:	f884 303e 	strb.w	r3, [r4, #62]	; 0x3e
 8002aa4:	4620      	mov	r0, r4
 8002aa6:	6323      	str	r3, [r4, #48]	; 0x30
 8002aa8:	f7ff fb28 	bl	80020fc <HAL_I2C_MemRxCpltCallback>
 8002aac:	e45e      	b.n	800236c <HAL_I2C_EV_IRQHandler+0x58>
 8002aae:	f422 6280 	bic.w	r2, r2, #1024	; 0x400
 8002ab2:	601a      	str	r2, [r3, #0]
 8002ab4:	e78a      	b.n	80029cc <HAL_I2C_EV_IRQHandler+0x6b8>
 8002ab6:	2d08      	cmp	r5, #8
 8002ab8:	f43f af33 	beq.w	8002922 <HAL_I2C_EV_IRQHandler+0x60e>
 8002abc:	2d20      	cmp	r5, #32
 8002abe:	f43f af30 	beq.w	8002922 <HAL_I2C_EV_IRQHandler+0x60e>
 8002ac2:	f515 3f80 	cmn.w	r5, #65536	; 0x10000
 8002ac6:	f43f af2c 	beq.w	8002922 <HAL_I2C_EV_IRQHandler+0x60e>
 8002aca:	685a      	ldr	r2, [r3, #4]
 8002acc:	2611      	movs	r6, #17
 8002ace:	f422 62e0 	bic.w	r2, r2, #1792	; 0x700
 8002ad2:	2500      	movs	r5, #0
 8002ad4:	2120      	movs	r1, #32
 8002ad6:	605a      	str	r2, [r3, #4]
 8002ad8:	4620      	mov	r0, r4
 8002ada:	6326      	str	r6, [r4, #48]	; 0x30
 8002adc:	f884 503e 	strb.w	r5, [r4, #62]	; 0x3e
 8002ae0:	f884 103d 	strb.w	r1, [r4, #61]	; 0x3d
 8002ae4:	f7ff fafc 	bl	80020e0 <HAL_I2C_MasterTxCpltCallback>
 8002ae8:	e440      	b.n	800236c <HAL_I2C_EV_IRQHandler+0x58>
 8002aea:	685a      	ldr	r2, [r3, #4]
 8002aec:	f422 6280 	bic.w	r2, r2, #1024	; 0x400
 8002af0:	605a      	str	r2, [r3, #4]
 8002af2:	e43b      	b.n	800236c <HAL_I2C_EV_IRQHandler+0x58>
 8002af4:	f7ff fb00 	bl	80020f8 <HAL_I2C_MemTxCpltCallback>
 8002af8:	e438      	b.n	800236c <HAL_I2C_EV_IRQHandler+0x58>
 8002afa:	2810      	cmp	r0, #16
 8002afc:	d920      	bls.n	8002b40 <HAL_I2C_EV_IRQHandler+0x82c>
 8002afe:	681a      	ldr	r2, [r3, #0]
 8002b00:	f422 6280 	bic.w	r2, r2, #1024	; 0x400
 8002b04:	601a      	str	r2, [r3, #0]
 8002b06:	681a      	ldr	r2, [r3, #0]
 8002b08:	f442 6200 	orr.w	r2, r2, #2048	; 0x800
 8002b0c:	601a      	str	r2, [r3, #0]
 8002b0e:	685a      	ldr	r2, [r3, #4]
 8002b10:	0512      	lsls	r2, r2, #20
 8002b12:	d50d      	bpl.n	8002b30 <HAL_I2C_EV_IRQHandler+0x81c>
 8002b14:	f510 3f80 	cmn.w	r0, #65536	; 0x10000
 8002b18:	d006      	beq.n	8002b28 <HAL_I2C_EV_IRQHandler+0x814>
 8002b1a:	3801      	subs	r0, #1
 8002b1c:	281f      	cmp	r0, #31
 8002b1e:	d807      	bhi.n	8002b30 <HAL_I2C_EV_IRQHandler+0x81c>
 8002b20:	4a15      	ldr	r2, [pc, #84]	; (8002b78 <HAL_I2C_EV_IRQHandler+0x864>)
 8002b22:	40c2      	lsrs	r2, r0
 8002b24:	07d6      	lsls	r6, r2, #31
 8002b26:	d503      	bpl.n	8002b30 <HAL_I2C_EV_IRQHandler+0x81c>
 8002b28:	685a      	ldr	r2, [r3, #4]
 8002b2a:	f442 5280 	orr.w	r2, r2, #4096	; 0x1000
 8002b2e:	605a      	str	r2, [r3, #4]
 8002b30:	2200      	movs	r2, #0
 8002b32:	9208      	str	r2, [sp, #32]
 8002b34:	695a      	ldr	r2, [r3, #20]
 8002b36:	9208      	str	r2, [sp, #32]
 8002b38:	699b      	ldr	r3, [r3, #24]
 8002b3a:	9308      	str	r3, [sp, #32]
 8002b3c:	9b08      	ldr	r3, [sp, #32]
 8002b3e:	e69a      	b.n	8002876 <HAL_I2C_EV_IRQHandler+0x562>
 8002b40:	4a0e      	ldr	r2, [pc, #56]	; (8002b7c <HAL_I2C_EV_IRQHandler+0x868>)
 8002b42:	40c2      	lsrs	r2, r0
 8002b44:	07d1      	lsls	r1, r2, #31
 8002b46:	d5da      	bpl.n	8002afe <HAL_I2C_EV_IRQHandler+0x7ea>
 8002b48:	681a      	ldr	r2, [r3, #0]
 8002b4a:	f442 6280 	orr.w	r2, r2, #1024	; 0x400
 8002b4e:	601a      	str	r2, [r3, #0]
 8002b50:	e7dd      	b.n	8002b0e <HAL_I2C_EV_IRQHandler+0x7fa>
 8002b52:	2801      	cmp	r0, #1
 8002b54:	f43f af77 	beq.w	8002a46 <HAL_I2C_EV_IRQHandler+0x732>
 8002b58:	681a      	ldr	r2, [r3, #0]
 8002b5a:	2100      	movs	r1, #0
 8002b5c:	f422 6280 	bic.w	r2, r2, #1024	; 0x400
 8002b60:	601a      	str	r2, [r3, #0]
 8002b62:	9107      	str	r1, [sp, #28]
 8002b64:	695a      	ldr	r2, [r3, #20]
 8002b66:	9207      	str	r2, [sp, #28]
 8002b68:	699a      	ldr	r2, [r3, #24]
 8002b6a:	9207      	str	r2, [sp, #28]
 8002b6c:	9a07      	ldr	r2, [sp, #28]
 8002b6e:	681a      	ldr	r2, [r3, #0]
 8002b70:	f442 7200 	orr.w	r2, r2, #512	; 0x200
 8002b74:	601a      	str	r2, [r3, #0]
 8002b76:	e67e      	b.n	8002876 <HAL_I2C_EV_IRQHandler+0x562>
 8002b78:	80008081 	.word	0x80008081
 8002b7c:	00010014 	.word	0x00010014
 8002b80:	681a      	ldr	r2, [r3, #0]
 8002b82:	f422 6280 	bic.w	r2, r2, #1024	; 0x400
 8002b86:	601a      	str	r2, [r3, #0]
 8002b88:	685a      	ldr	r2, [r3, #4]
 8002b8a:	f412 6200 	ands.w	r2, r2, #2048	; 0x800
 8002b8e:	d01c      	beq.n	8002bca <HAL_I2C_EV_IRQHandler+0x8b6>
 8002b90:	681a      	ldr	r2, [r3, #0]
 8002b92:	2100      	movs	r1, #0
 8002b94:	f422 6280 	bic.w	r2, r2, #1024	; 0x400
 8002b98:	601a      	str	r2, [r3, #0]
 8002b9a:	9104      	str	r1, [sp, #16]
 8002b9c:	695a      	ldr	r2, [r3, #20]
 8002b9e:	9204      	str	r2, [sp, #16]
 8002ba0:	699b      	ldr	r3, [r3, #24]
 8002ba2:	9304      	str	r3, [sp, #16]
 8002ba4:	9b04      	ldr	r3, [sp, #16]
 8002ba6:	e666      	b.n	8002876 <HAL_I2C_EV_IRQHandler+0x562>
 8002ba8:	6859      	ldr	r1, [r3, #4]
 8002baa:	2611      	movs	r6, #17
 8002bac:	f421 61e0 	bic.w	r1, r1, #1792	; 0x700
 8002bb0:	2520      	movs	r5, #32
 8002bb2:	6059      	str	r1, [r3, #4]
 8002bb4:	4620      	mov	r0, r4
 8002bb6:	6326      	str	r6, [r4, #48]	; 0x30
 8002bb8:	f884 203e 	strb.w	r2, [r4, #62]	; 0x3e
 8002bbc:	f884 503d 	strb.w	r5, [r4, #61]	; 0x3d
 8002bc0:	e6c4      	b.n	800294c <HAL_I2C_EV_IRQHandler+0x638>
 8002bc2:	f442 6280 	orr.w	r2, r2, #1024	; 0x400
 8002bc6:	601a      	str	r2, [r3, #0]
 8002bc8:	e700      	b.n	80029cc <HAL_I2C_EV_IRQHandler+0x6b8>
 8002bca:	9205      	str	r2, [sp, #20]
 8002bcc:	695a      	ldr	r2, [r3, #20]
 8002bce:	9205      	str	r2, [sp, #20]
 8002bd0:	699a      	ldr	r2, [r3, #24]
 8002bd2:	9205      	str	r2, [sp, #20]
 8002bd4:	9a05      	ldr	r2, [sp, #20]
 8002bd6:	681a      	ldr	r2, [r3, #0]
 8002bd8:	f442 7200 	orr.w	r2, r2, #512	; 0x200
 8002bdc:	601a      	str	r2, [r3, #0]
 8002bde:	e64a      	b.n	8002876 <HAL_I2C_EV_IRQHandler+0x562>
 8002be0:	681a      	ldr	r2, [r3, #0]
 8002be2:	f442 6280 	orr.w	r2, r2, #1024	; 0x400
 8002be6:	601a      	str	r2, [r3, #0]
 8002be8:	e731      	b.n	8002a4e <HAL_I2C_EV_IRQHandler+0x73a>
 8002bea:	bf00      	nop

08002bec <I2S_WaitFlagStateUntilTimeout>:
 8002bec:	e92d 43f8 	stmdb	sp!, {r3, r4, r5, r6, r7, r8, r9, lr}
 8002bf0:	4680      	mov	r8, r0
 8002bf2:	460e      	mov	r6, r1
 8002bf4:	4615      	mov	r5, r2
 8002bf6:	461f      	mov	r7, r3
 8002bf8:	f7fe f9a4 	bl	8000f44 <HAL_GetTick>
 8002bfc:	4681      	mov	r9, r0
 8002bfe:	f8d8 4000 	ldr.w	r4, [r8]
 8002c02:	e001      	b.n	8002c08 <I2S_WaitFlagStateUntilTimeout+0x1c>
 8002c04:	1c7b      	adds	r3, r7, #1
 8002c06:	d10a      	bne.n	8002c1e <I2S_WaitFlagStateUntilTimeout+0x32>
 8002c08:	68a0      	ldr	r0, [r4, #8]
 8002c0a:	ea36 0300 	bics.w	r3, r6, r0
 8002c0e:	bf0c      	ite	eq
 8002c10:	2001      	moveq	r0, #1
 8002c12:	2000      	movne	r0, #0
 8002c14:	42a8      	cmp	r0, r5
 8002c16:	d1f5      	bne.n	8002c04 <I2S_WaitFlagStateUntilTimeout+0x18>
 8002c18:	2000      	movs	r0, #0
 8002c1a:	e8bd 83f8 	ldmia.w	sp!, {r3, r4, r5, r6, r7, r8, r9, pc}
 8002c1e:	f7fe f991 	bl	8000f44 <HAL_GetTick>
 8002c22:	eba0 0009 	sub.w	r0, r0, r9
 8002c26:	42b8      	cmp	r0, r7
 8002c28:	d3e9      	bcc.n	8002bfe <I2S_WaitFlagStateUntilTimeout+0x12>
 8002c2a:	2201      	movs	r2, #1
 8002c2c:	2300      	movs	r3, #0
 8002c2e:	f888 2041 	strb.w	r2, [r8, #65]	; 0x41
 8002c32:	2003      	movs	r0, #3
 8002c34:	f888 3040 	strb.w	r3, [r8, #64]	; 0x40
 8002c38:	e7ef      	b.n	8002c1a <I2S_WaitFlagStateUntilTimeout+0x2e>
 8002c3a:	bf00      	nop

08002c3c <HAL_I2S_Init>:
 8002c3c:	2800      	cmp	r0, #0
 8002c3e:	f000 8085 	beq.w	8002d4c <HAL_I2S_Init+0x110>
 8002c42:	b5f8      	push	{r3, r4, r5, r6, r7, lr}
 8002c44:	f890 3041 	ldrb.w	r3, [r0, #65]	; 0x41
 8002c48:	4604      	mov	r4, r0
 8002c4a:	f003 02ff 	and.w	r2, r3, #255	; 0xff
 8002c4e:	2b00      	cmp	r3, #0
 8002c50:	d075      	beq.n	8002d3e <HAL_I2S_Init+0x102>
 8002c52:	2202      	movs	r2, #2
 8002c54:	6821      	ldr	r1, [r4, #0]
 8002c56:	f884 2041 	strb.w	r2, [r4, #65]	; 0x41
 8002c5a:	69c8      	ldr	r0, [r1, #28]
 8002c5c:	6963      	ldr	r3, [r4, #20]
 8002c5e:	68e5      	ldr	r5, [r4, #12]
 8002c60:	f420 607b 	bic.w	r0, r0, #4016	; 0xfb0
 8002c64:	f020 000f 	bic.w	r0, r0, #15
 8002c68:	4293      	cmp	r3, r2
 8002c6a:	61c8      	str	r0, [r1, #28]
 8002c6c:	620a      	str	r2, [r1, #32]
 8002c6e:	d027      	beq.n	8002cc0 <HAL_I2S_Init+0x84>
 8002c70:	68a3      	ldr	r3, [r4, #8]
 8002c72:	2d00      	cmp	r5, #0
 8002c74:	bf0c      	ite	eq
 8002c76:	2510      	moveq	r5, #16
 8002c78:	2520      	movne	r5, #32
 8002c7a:	2001      	movs	r0, #1
 8002c7c:	2b20      	cmp	r3, #32
 8002c7e:	bf98      	it	ls
 8002c80:	006d      	lslls	r5, r5, #1
 8002c82:	f001 fc63 	bl	800454c <HAL_RCCEx_GetPeriphCLKFreq>
 8002c86:	6922      	ldr	r2, [r4, #16]
 8002c88:	f5b2 7f00 	cmp.w	r2, #512	; 0x200
 8002c8c:	d060      	beq.n	8002d50 <HAL_I2S_Init+0x114>
 8002c8e:	fbb0 f0f5 	udiv	r0, r0, r5
 8002c92:	eb00 0080 	add.w	r0, r0, r0, lsl #2
 8002c96:	0043      	lsls	r3, r0, #1
 8002c98:	6960      	ldr	r0, [r4, #20]
 8002c9a:	fbb3 f3f0 	udiv	r3, r3, r0
 8002c9e:	3305      	adds	r3, #5
 8002ca0:	4935      	ldr	r1, [pc, #212]	; (8002d78 <HAL_I2S_Init+0x13c>)
 8002ca2:	fba1 1303 	umull	r1, r3, r1, r3
 8002ca6:	08db      	lsrs	r3, r3, #3
 8002ca8:	0859      	lsrs	r1, r3, #1
 8002caa:	1e88      	subs	r0, r1, #2
 8002cac:	28fd      	cmp	r0, #253	; 0xfd
 8002cae:	f003 0301 	and.w	r3, r3, #1
 8002cb2:	d95a      	bls.n	8002d6a <HAL_I2S_Init+0x12e>
 8002cb4:	6c63      	ldr	r3, [r4, #68]	; 0x44
 8002cb6:	f043 0310 	orr.w	r3, r3, #16
 8002cba:	6463      	str	r3, [r4, #68]	; 0x44
 8002cbc:	2001      	movs	r0, #1
 8002cbe:	bdf8      	pop	{r3, r4, r5, r6, r7, pc}
 8002cc0:	6922      	ldr	r2, [r4, #16]
 8002cc2:	69a7      	ldr	r7, [r4, #24]
 8002cc4:	f8d4 e020 	ldr.w	lr, [r4, #32]
 8002cc8:	f8df c0c0 	ldr.w	ip, [pc, #192]	; 8002d8c <HAL_I2S_Init+0x150>
 8002ccc:	e9d4 6001 	ldrd	r6, r0, [r4, #4]
 8002cd0:	4313      	orrs	r3, r2
 8002cd2:	620b      	str	r3, [r1, #32]
 8002cd4:	ea46 0300 	orr.w	r3, r6, r0
 8002cd8:	69ca      	ldr	r2, [r1, #28]
 8002cda:	f443 6300 	orr.w	r3, r3, #2048	; 0x800
 8002cde:	433b      	orrs	r3, r7
 8002ce0:	432b      	orrs	r3, r5
 8002ce2:	ea02 020c 	and.w	r2, r2, ip
 8002ce6:	4313      	orrs	r3, r2
 8002ce8:	f1be 0f01 	cmp.w	lr, #1
 8002cec:	61cb      	str	r3, [r1, #28]
 8002cee:	d120      	bne.n	8002d32 <HAL_I2S_Init+0xf6>
 8002cf0:	4a22      	ldr	r2, [pc, #136]	; (8002d7c <HAL_I2S_Init+0x140>)
 8002cf2:	4b23      	ldr	r3, [pc, #140]	; (8002d80 <HAL_I2S_Init+0x144>)
 8002cf4:	4291      	cmp	r1, r2
 8002cf6:	bf0c      	ite	eq
 8002cf8:	4619      	moveq	r1, r3
 8002cfa:	f04f 2140 	movne.w	r1, #1073758208	; 0x40004000
 8002cfe:	4b21      	ldr	r3, [pc, #132]	; (8002d84 <HAL_I2S_Init+0x148>)
 8002d00:	69ca      	ldr	r2, [r1, #28]
 8002d02:	6363      	str	r3, [r4, #52]	; 0x34
 8002d04:	ea02 020c 	and.w	r2, r2, ip
 8002d08:	f04f 0c02 	mov.w	ip, #2
 8002d0c:	61ca      	str	r2, [r1, #28]
 8002d0e:	ea40 0307 	orr.w	r3, r0, r7
 8002d12:	f8c1 c020 	str.w	ip, [r1, #32]
 8002d16:	69ca      	ldr	r2, [r1, #28]
 8002d18:	f443 6300 	orr.w	r3, r3, #2048	; 0x800
 8002d1c:	432b      	orrs	r3, r5
 8002d1e:	4313      	orrs	r3, r2
 8002d20:	f436 7000 	bics.w	r0, r6, #512	; 0x200
 8002d24:	b29b      	uxth	r3, r3
 8002d26:	bf14      	ite	ne
 8002d28:	2200      	movne	r2, #0
 8002d2a:	f44f 7280 	moveq.w	r2, #256	; 0x100
 8002d2e:	4313      	orrs	r3, r2
 8002d30:	61cb      	str	r3, [r1, #28]
 8002d32:	2000      	movs	r0, #0
 8002d34:	2301      	movs	r3, #1
 8002d36:	6460      	str	r0, [r4, #68]	; 0x44
 8002d38:	f884 3041 	strb.w	r3, [r4, #65]	; 0x41
 8002d3c:	bdf8      	pop	{r3, r4, r5, r6, r7, pc}
 8002d3e:	4b12      	ldr	r3, [pc, #72]	; (8002d88 <HAL_I2S_Init+0x14c>)
 8002d40:	f880 2040 	strb.w	r2, [r0, #64]	; 0x40
 8002d44:	6343      	str	r3, [r0, #52]	; 0x34
 8002d46:	f004 ff91 	bl	8007c6c <HAL_I2S_MspInit>
 8002d4a:	e782      	b.n	8002c52 <HAL_I2S_Init+0x16>
 8002d4c:	2001      	movs	r0, #1
 8002d4e:	4770      	bx	lr
 8002d50:	68e3      	ldr	r3, [r4, #12]
 8002d52:	6961      	ldr	r1, [r4, #20]
 8002d54:	b173      	cbz	r3, 8002d74 <HAL_I2S_Init+0x138>
 8002d56:	00ad      	lsls	r5, r5, #2
 8002d58:	fbb0 f0f5 	udiv	r0, r0, r5
 8002d5c:	eb00 0080 	add.w	r0, r0, r0, lsl #2
 8002d60:	0043      	lsls	r3, r0, #1
 8002d62:	fbb3 f3f1 	udiv	r3, r3, r1
 8002d66:	3305      	adds	r3, #5
 8002d68:	e79a      	b.n	8002ca0 <HAL_I2S_Init+0x64>
 8002d6a:	ea41 2303 	orr.w	r3, r1, r3, lsl #8
 8002d6e:	68e5      	ldr	r5, [r4, #12]
 8002d70:	6821      	ldr	r1, [r4, #0]
 8002d72:	e7a6      	b.n	8002cc2 <HAL_I2S_Init+0x86>
 8002d74:	00ed      	lsls	r5, r5, #3
 8002d76:	e7ef      	b.n	8002d58 <HAL_I2S_Init+0x11c>
 8002d78:	cccccccd 	.word	0xcccccccd
 8002d7c:	40003800 	.word	0x40003800
 8002d80:	40003400 	.word	0x40003400
 8002d84:	080031bd 	.word	0x080031bd
 8002d88:	08003089 	.word	0x08003089
 8002d8c:	fffff040 	.word	0xfffff040

08002d90 <HAL_I2S_Transmit_DMA>:
 8002d90:	2900      	cmp	r1, #0
 8002d92:	d03e      	beq.n	8002e12 <HAL_I2S_Transmit_DMA+0x82>
 8002d94:	2a00      	cmp	r2, #0
 8002d96:	d03c      	beq.n	8002e12 <HAL_I2S_Transmit_DMA+0x82>
 8002d98:	b538      	push	{r3, r4, r5, lr}
 8002d9a:	f890 3040 	ldrb.w	r3, [r0, #64]	; 0x40
 8002d9e:	2b01      	cmp	r3, #1
 8002da0:	d04f      	beq.n	8002e42 <HAL_I2S_Transmit_DMA+0xb2>
 8002da2:	2301      	movs	r3, #1
 8002da4:	f880 3040 	strb.w	r3, [r0, #64]	; 0x40
 8002da8:	f890 3041 	ldrb.w	r3, [r0, #65]	; 0x41
 8002dac:	2b01      	cmp	r3, #1
 8002dae:	d132      	bne.n	8002e16 <HAL_I2S_Transmit_DMA+0x86>
 8002db0:	2403      	movs	r4, #3
 8002db2:	2300      	movs	r3, #0
 8002db4:	6805      	ldr	r5, [r0, #0]
 8002db6:	f880 4041 	strb.w	r4, [r0, #65]	; 0x41
 8002dba:	6443      	str	r3, [r0, #68]	; 0x44
 8002dbc:	69eb      	ldr	r3, [r5, #28]
 8002dbe:	6241      	str	r1, [r0, #36]	; 0x24
 8002dc0:	f003 0307 	and.w	r3, r3, #7
 8002dc4:	42a3      	cmp	r3, r4
 8002dc6:	d02b      	beq.n	8002e20 <HAL_I2S_Transmit_DMA+0x90>
 8002dc8:	2b05      	cmp	r3, #5
 8002dca:	d029      	beq.n	8002e20 <HAL_I2S_Transmit_DMA+0x90>
 8002dcc:	8502      	strh	r2, [r0, #40]	; 0x28
 8002dce:	8542      	strh	r2, [r0, #42]	; 0x2a
 8002dd0:	4604      	mov	r4, r0
 8002dd2:	6b80      	ldr	r0, [r0, #56]	; 0x38
 8002dd4:	4a1c      	ldr	r2, [pc, #112]	; (8002e48 <HAL_I2S_Transmit_DMA+0xb8>)
 8002dd6:	8d23      	ldrh	r3, [r4, #40]	; 0x28
 8002dd8:	6402      	str	r2, [r0, #64]	; 0x40
 8002dda:	4a1c      	ldr	r2, [pc, #112]	; (8002e4c <HAL_I2S_Transmit_DMA+0xbc>)
 8002ddc:	63c2      	str	r2, [r0, #60]	; 0x3c
 8002dde:	4a1c      	ldr	r2, [pc, #112]	; (8002e50 <HAL_I2S_Transmit_DMA+0xc0>)
 8002de0:	64c2      	str	r2, [r0, #76]	; 0x4c
 8002de2:	f105 020c 	add.w	r2, r5, #12
 8002de6:	f7fe f9cf 	bl	8001188 <HAL_DMA_Start_IT>
 8002dea:	b9f0      	cbnz	r0, 8002e2a <HAL_I2S_Transmit_DMA+0x9a>
 8002dec:	6823      	ldr	r3, [r4, #0]
 8002dee:	69da      	ldr	r2, [r3, #28]
 8002df0:	0551      	lsls	r1, r2, #21
 8002df2:	d403      	bmi.n	8002dfc <HAL_I2S_Transmit_DMA+0x6c>
 8002df4:	69da      	ldr	r2, [r3, #28]
 8002df6:	f442 6280 	orr.w	r2, r2, #1024	; 0x400
 8002dfa:	61da      	str	r2, [r3, #28]
 8002dfc:	685a      	ldr	r2, [r3, #4]
 8002dfe:	0792      	lsls	r2, r2, #30
 8002e00:	d403      	bmi.n	8002e0a <HAL_I2S_Transmit_DMA+0x7a>
 8002e02:	685a      	ldr	r2, [r3, #4]
 8002e04:	f042 0202 	orr.w	r2, r2, #2
 8002e08:	605a      	str	r2, [r3, #4]
 8002e0a:	2300      	movs	r3, #0
 8002e0c:	f884 3040 	strb.w	r3, [r4, #64]	; 0x40
 8002e10:	bd38      	pop	{r3, r4, r5, pc}
 8002e12:	2001      	movs	r0, #1
 8002e14:	4770      	bx	lr
 8002e16:	2300      	movs	r3, #0
 8002e18:	f880 3040 	strb.w	r3, [r0, #64]	; 0x40
 8002e1c:	2002      	movs	r0, #2
 8002e1e:	bd38      	pop	{r3, r4, r5, pc}
 8002e20:	0053      	lsls	r3, r2, #1
 8002e22:	b29b      	uxth	r3, r3
 8002e24:	8503      	strh	r3, [r0, #40]	; 0x28
 8002e26:	8543      	strh	r3, [r0, #42]	; 0x2a
 8002e28:	e7d2      	b.n	8002dd0 <HAL_I2S_Transmit_DMA+0x40>
 8002e2a:	6c63      	ldr	r3, [r4, #68]	; 0x44
 8002e2c:	2201      	movs	r2, #1
 8002e2e:	f043 0308 	orr.w	r3, r3, #8
 8002e32:	2100      	movs	r1, #0
 8002e34:	6463      	str	r3, [r4, #68]	; 0x44
 8002e36:	4610      	mov	r0, r2
 8002e38:	f884 2041 	strb.w	r2, [r4, #65]	; 0x41
 8002e3c:	f884 1040 	strb.w	r1, [r4, #64]	; 0x40
 8002e40:	bd38      	pop	{r3, r4, r5, pc}
 8002e42:	2002      	movs	r0, #2
 8002e44:	bd38      	pop	{r3, r4, r5, pc}
 8002e46:	bf00      	nop
 8002e48:	08003055 	.word	0x08003055
 8002e4c:	08003061 	.word	0x08003061
 8002e50:	08003191 	.word	0x08003191

08002e54 <HAL_I2S_DMAStop>:
 8002e54:	e92d 43f0 	stmdb	sp!, {r4, r5, r6, r7, r8, r9, lr}
 8002e58:	6843      	ldr	r3, [r0, #4]
 8002e5a:	f433 7300 	bics.w	r3, r3, #512	; 0x200
 8002e5e:	b085      	sub	sp, #20
 8002e60:	4604      	mov	r4, r0
 8002e62:	d004      	beq.n	8002e6e <HAL_I2S_DMAStop+0x1a>
 8002e64:	f5b3 7f80 	cmp.w	r3, #256	; 0x100
 8002e68:	d066      	beq.n	8002f38 <HAL_I2S_DMAStop+0xe4>
 8002e6a:	2500      	movs	r5, #0
 8002e6c:	e035      	b.n	8002eda <HAL_I2S_DMAStop+0x86>
 8002e6e:	6b80      	ldr	r0, [r0, #56]	; 0x38
 8002e70:	b120      	cbz	r0, 8002e7c <HAL_I2S_DMAStop+0x28>
 8002e72:	f7fe f9c7 	bl	8001204 <HAL_DMA_Abort>
 8002e76:	2800      	cmp	r0, #0
 8002e78:	f040 8082 	bne.w	8002f80 <HAL_I2S_DMAStop+0x12c>
 8002e7c:	2500      	movs	r5, #0
 8002e7e:	2364      	movs	r3, #100	; 0x64
 8002e80:	2201      	movs	r2, #1
 8002e82:	2102      	movs	r1, #2
 8002e84:	4620      	mov	r0, r4
 8002e86:	f7ff feb1 	bl	8002bec <I2S_WaitFlagStateUntilTimeout>
 8002e8a:	b130      	cbz	r0, 8002e9a <HAL_I2S_DMAStop+0x46>
 8002e8c:	6c63      	ldr	r3, [r4, #68]	; 0x44
 8002e8e:	2201      	movs	r2, #1
 8002e90:	4313      	orrs	r3, r2
 8002e92:	6463      	str	r3, [r4, #68]	; 0x44
 8002e94:	4615      	mov	r5, r2
 8002e96:	f884 2041 	strb.w	r2, [r4, #65]	; 0x41
 8002e9a:	2364      	movs	r3, #100	; 0x64
 8002e9c:	2200      	movs	r2, #0
 8002e9e:	2180      	movs	r1, #128	; 0x80
 8002ea0:	4620      	mov	r0, r4
 8002ea2:	f7ff fea3 	bl	8002bec <I2S_WaitFlagStateUntilTimeout>
 8002ea6:	b130      	cbz	r0, 8002eb6 <HAL_I2S_DMAStop+0x62>
 8002ea8:	6c63      	ldr	r3, [r4, #68]	; 0x44
 8002eaa:	2201      	movs	r2, #1
 8002eac:	4313      	orrs	r3, r2
 8002eae:	6463      	str	r3, [r4, #68]	; 0x44
 8002eb0:	4615      	mov	r5, r2
 8002eb2:	f884 2041 	strb.w	r2, [r4, #65]	; 0x41
 8002eb6:	6823      	ldr	r3, [r4, #0]
 8002eb8:	69da      	ldr	r2, [r3, #28]
 8002eba:	2100      	movs	r1, #0
 8002ebc:	f422 6280 	bic.w	r2, r2, #1024	; 0x400
 8002ec0:	61da      	str	r2, [r3, #28]
 8002ec2:	9100      	str	r1, [sp, #0]
 8002ec4:	689a      	ldr	r2, [r3, #8]
 8002ec6:	9200      	str	r2, [sp, #0]
 8002ec8:	9a00      	ldr	r2, [sp, #0]
 8002eca:	685a      	ldr	r2, [r3, #4]
 8002ecc:	f022 0202 	bic.w	r2, r2, #2
 8002ed0:	605a      	str	r2, [r3, #4]
 8002ed2:	f894 2041 	ldrb.w	r2, [r4, #65]	; 0x41
 8002ed6:	2a05      	cmp	r2, #5
 8002ed8:	d006      	beq.n	8002ee8 <HAL_I2S_DMAStop+0x94>
 8002eda:	2301      	movs	r3, #1
 8002edc:	4628      	mov	r0, r5
 8002ede:	f884 3041 	strb.w	r3, [r4, #65]	; 0x41
 8002ee2:	b005      	add	sp, #20
 8002ee4:	e8bd 83f0 	ldmia.w	sp!, {r4, r5, r6, r7, r8, r9, pc}
 8002ee8:	6be0      	ldr	r0, [r4, #60]	; 0x3c
 8002eea:	b120      	cbz	r0, 8002ef6 <HAL_I2S_DMAStop+0xa2>
 8002eec:	f7fe f98a 	bl	8001204 <HAL_DMA_Abort>
 8002ef0:	2800      	cmp	r0, #0
 8002ef2:	d14d      	bne.n	8002f90 <HAL_I2S_DMAStop+0x13c>
 8002ef4:	6823      	ldr	r3, [r4, #0]
 8002ef6:	4854      	ldr	r0, [pc, #336]	; (8003048 <HAL_I2S_DMAStop+0x1f4>)
 8002ef8:	4a54      	ldr	r2, [pc, #336]	; (800304c <HAL_I2S_DMAStop+0x1f8>)
 8002efa:	6861      	ldr	r1, [r4, #4]
 8002efc:	4283      	cmp	r3, r0
 8002efe:	bf0c      	ite	eq
 8002f00:	4613      	moveq	r3, r2
 8002f02:	f04f 2340 	movne.w	r3, #1073758208	; 0x40004000
 8002f06:	2000      	movs	r0, #0
 8002f08:	69da      	ldr	r2, [r3, #28]
 8002f0a:	f422 6280 	bic.w	r2, r2, #1024	; 0x400
 8002f0e:	61da      	str	r2, [r3, #28]
 8002f10:	9001      	str	r0, [sp, #4]
 8002f12:	68da      	ldr	r2, [r3, #12]
 8002f14:	9201      	str	r2, [sp, #4]
 8002f16:	689a      	ldr	r2, [r3, #8]
 8002f18:	9201      	str	r2, [sp, #4]
 8002f1a:	9a01      	ldr	r2, [sp, #4]
 8002f1c:	685a      	ldr	r2, [r3, #4]
 8002f1e:	f022 0201 	bic.w	r2, r2, #1
 8002f22:	605a      	str	r2, [r3, #4]
 8002f24:	bb51      	cbnz	r1, 8002f7c <HAL_I2S_DMAStop+0x128>
 8002f26:	6c63      	ldr	r3, [r4, #68]	; 0x44
 8002f28:	2201      	movs	r2, #1
 8002f2a:	f043 0340 	orr.w	r3, r3, #64	; 0x40
 8002f2e:	6463      	str	r3, [r4, #68]	; 0x44
 8002f30:	4615      	mov	r5, r2
 8002f32:	f884 2041 	strb.w	r2, [r4, #65]	; 0x41
 8002f36:	e7d0      	b.n	8002eda <HAL_I2S_DMAStop+0x86>
 8002f38:	6bc0      	ldr	r0, [r0, #60]	; 0x3c
 8002f3a:	b338      	cbz	r0, 8002f8c <HAL_I2S_DMAStop+0x138>
 8002f3c:	f7fe f962 	bl	8001204 <HAL_DMA_Abort>
 8002f40:	b320      	cbz	r0, 8002f8c <HAL_I2S_DMAStop+0x138>
 8002f42:	6c63      	ldr	r3, [r4, #68]	; 0x44
 8002f44:	f043 0308 	orr.w	r3, r3, #8
 8002f48:	6463      	str	r3, [r4, #68]	; 0x44
 8002f4a:	2501      	movs	r5, #1
 8002f4c:	f894 3041 	ldrb.w	r3, [r4, #65]	; 0x41
 8002f50:	2b05      	cmp	r3, #5
 8002f52:	d024      	beq.n	8002f9e <HAL_I2S_DMAStop+0x14a>
 8002f54:	6823      	ldr	r3, [r4, #0]
 8002f56:	69da      	ldr	r2, [r3, #28]
 8002f58:	6861      	ldr	r1, [r4, #4]
 8002f5a:	f422 6280 	bic.w	r2, r2, #1024	; 0x400
 8002f5e:	2000      	movs	r0, #0
 8002f60:	61da      	str	r2, [r3, #28]
 8002f62:	9003      	str	r0, [sp, #12]
 8002f64:	68da      	ldr	r2, [r3, #12]
 8002f66:	9203      	str	r2, [sp, #12]
 8002f68:	689a      	ldr	r2, [r3, #8]
 8002f6a:	9203      	str	r2, [sp, #12]
 8002f6c:	9a03      	ldr	r2, [sp, #12]
 8002f6e:	685a      	ldr	r2, [r3, #4]
 8002f70:	f5b1 7f80 	cmp.w	r1, #256	; 0x100
 8002f74:	f022 0201 	bic.w	r2, r2, #1
 8002f78:	605a      	str	r2, [r3, #4]
 8002f7a:	d0d4      	beq.n	8002f26 <HAL_I2S_DMAStop+0xd2>
 8002f7c:	68db      	ldr	r3, [r3, #12]
 8002f7e:	e7ac      	b.n	8002eda <HAL_I2S_DMAStop+0x86>
 8002f80:	6c63      	ldr	r3, [r4, #68]	; 0x44
 8002f82:	f043 0308 	orr.w	r3, r3, #8
 8002f86:	6463      	str	r3, [r4, #68]	; 0x44
 8002f88:	2501      	movs	r5, #1
 8002f8a:	e778      	b.n	8002e7e <HAL_I2S_DMAStop+0x2a>
 8002f8c:	2500      	movs	r5, #0
 8002f8e:	e7dd      	b.n	8002f4c <HAL_I2S_DMAStop+0xf8>
 8002f90:	6c62      	ldr	r2, [r4, #68]	; 0x44
 8002f92:	6823      	ldr	r3, [r4, #0]
 8002f94:	f042 0208 	orr.w	r2, r2, #8
 8002f98:	6462      	str	r2, [r4, #68]	; 0x44
 8002f9a:	2501      	movs	r5, #1
 8002f9c:	e7ab      	b.n	8002ef6 <HAL_I2S_DMAStop+0xa2>
 8002f9e:	6ba0      	ldr	r0, [r4, #56]	; 0x38
 8002fa0:	b138      	cbz	r0, 8002fb2 <HAL_I2S_DMAStop+0x15e>
 8002fa2:	f7fe f92f 	bl	8001204 <HAL_DMA_Abort>
 8002fa6:	b120      	cbz	r0, 8002fb2 <HAL_I2S_DMAStop+0x15e>
 8002fa8:	6c63      	ldr	r3, [r4, #68]	; 0x44
 8002faa:	f043 0308 	orr.w	r3, r3, #8
 8002fae:	6463      	str	r3, [r4, #68]	; 0x44
 8002fb0:	2501      	movs	r5, #1
 8002fb2:	f7fd ffc7 	bl	8000f44 <HAL_GetTick>
 8002fb6:	f8df 8090 	ldr.w	r8, [pc, #144]	; 8003048 <HAL_I2S_DMAStop+0x1f4>
 8002fba:	4f24      	ldr	r7, [pc, #144]	; (800304c <HAL_I2S_DMAStop+0x1f8>)
 8002fbc:	4606      	mov	r6, r0
 8002fbe:	f04f 0901 	mov.w	r9, #1
 8002fc2:	e004      	b.n	8002fce <HAL_I2S_DMAStop+0x17a>
 8002fc4:	f7fd ffbe 	bl	8000f44 <HAL_GetTick>
 8002fc8:	1b80      	subs	r0, r0, r6
 8002fca:	2864      	cmp	r0, #100	; 0x64
 8002fcc:	d82a      	bhi.n	8003024 <HAL_I2S_DMAStop+0x1d0>
 8002fce:	6823      	ldr	r3, [r4, #0]
 8002fd0:	4543      	cmp	r3, r8
 8002fd2:	bf0c      	ite	eq
 8002fd4:	463a      	moveq	r2, r7
 8002fd6:	f04f 2240 	movne.w	r2, #1073758208	; 0x40004000
 8002fda:	6892      	ldr	r2, [r2, #8]
 8002fdc:	0792      	lsls	r2, r2, #30
 8002fde:	d5f1      	bpl.n	8002fc4 <HAL_I2S_DMAStop+0x170>
 8002fe0:	f8df 8064 	ldr.w	r8, [pc, #100]	; 8003048 <HAL_I2S_DMAStop+0x1f4>
 8002fe4:	4f19      	ldr	r7, [pc, #100]	; (800304c <HAL_I2S_DMAStop+0x1f8>)
 8002fe6:	f04f 0901 	mov.w	r9, #1
 8002fea:	e005      	b.n	8002ff8 <HAL_I2S_DMAStop+0x1a4>
 8002fec:	f7fd ffaa 	bl	8000f44 <HAL_GetTick>
 8002ff0:	1b80      	subs	r0, r0, r6
 8002ff2:	2864      	cmp	r0, #100	; 0x64
 8002ff4:	d81e      	bhi.n	8003034 <HAL_I2S_DMAStop+0x1e0>
 8002ff6:	6823      	ldr	r3, [r4, #0]
 8002ff8:	4543      	cmp	r3, r8
 8002ffa:	bf0c      	ite	eq
 8002ffc:	4639      	moveq	r1, r7
 8002ffe:	f04f 2140 	movne.w	r1, #1073758208	; 0x40004000
 8003002:	688a      	ldr	r2, [r1, #8]
 8003004:	f012 0280 	ands.w	r2, r2, #128	; 0x80
 8003008:	d1f0      	bne.n	8002fec <HAL_I2S_DMAStop+0x198>
 800300a:	69c8      	ldr	r0, [r1, #28]
 800300c:	f420 6080 	bic.w	r0, r0, #1024	; 0x400
 8003010:	61c8      	str	r0, [r1, #28]
 8003012:	9202      	str	r2, [sp, #8]
 8003014:	688a      	ldr	r2, [r1, #8]
 8003016:	9202      	str	r2, [sp, #8]
 8003018:	9a02      	ldr	r2, [sp, #8]
 800301a:	684a      	ldr	r2, [r1, #4]
 800301c:	f022 0202 	bic.w	r2, r2, #2
 8003020:	604a      	str	r2, [r1, #4]
 8003022:	e798      	b.n	8002f56 <HAL_I2S_DMAStop+0x102>
 8003024:	6c63      	ldr	r3, [r4, #68]	; 0x44
 8003026:	f043 0301 	orr.w	r3, r3, #1
 800302a:	6463      	str	r3, [r4, #68]	; 0x44
 800302c:	2501      	movs	r5, #1
 800302e:	f884 9041 	strb.w	r9, [r4, #65]	; 0x41
 8003032:	e7cc      	b.n	8002fce <HAL_I2S_DMAStop+0x17a>
 8003034:	6c62      	ldr	r2, [r4, #68]	; 0x44
 8003036:	6823      	ldr	r3, [r4, #0]
 8003038:	f042 0201 	orr.w	r2, r2, #1
 800303c:	6462      	str	r2, [r4, #68]	; 0x44
 800303e:	2501      	movs	r5, #1
 8003040:	f884 9041 	strb.w	r9, [r4, #65]	; 0x41
 8003044:	e7d8      	b.n	8002ff8 <HAL_I2S_DMAStop+0x1a4>
 8003046:	bf00      	nop
 8003048:	40003800 	.word	0x40003800
 800304c:	40003400 	.word	0x40003400

08003050 <HAL_I2S_IRQHandler>:
 8003050:	6b43      	ldr	r3, [r0, #52]	; 0x34
 8003052:	4718      	bx	r3

08003054 <I2S_DMATxHalfCplt>:
 8003054:	b508      	push	{r3, lr}
 8003056:	6b80      	ldr	r0, [r0, #56]	; 0x38
 8003058:	f004 fd28 	bl	8007aac <HAL_I2S_TxHalfCpltCallback>
 800305c:	bd08      	pop	{r3, pc}
 800305e:	bf00      	nop

08003060 <I2S_DMATxCplt>:
 8003060:	69c3      	ldr	r3, [r0, #28]
 8003062:	6b80      	ldr	r0, [r0, #56]	; 0x38
 8003064:	b510      	push	{r4, lr}
 8003066:	b943      	cbnz	r3, 800307a <I2S_DMATxCplt+0x1a>
 8003068:	6801      	ldr	r1, [r0, #0]
 800306a:	684a      	ldr	r2, [r1, #4]
 800306c:	2401      	movs	r4, #1
 800306e:	f022 0202 	bic.w	r2, r2, #2
 8003072:	604a      	str	r2, [r1, #4]
 8003074:	8543      	strh	r3, [r0, #42]	; 0x2a
 8003076:	f880 4041 	strb.w	r4, [r0, #65]	; 0x41
 800307a:	f004 fd0d 	bl	8007a98 <HAL_I2S_TxCpltCallback>
 800307e:	bd10      	pop	{r4, pc}

08003080 <HAL_I2S_RxCpltCallback>:
 8003080:	4770      	bx	lr
 8003082:	bf00      	nop

08003084 <HAL_I2S_ErrorCallback>:
 8003084:	4770      	bx	lr
 8003086:	bf00      	nop

08003088 <I2S_IRQHandler>:
 8003088:	b510      	push	{r4, lr}
 800308a:	6803      	ldr	r3, [r0, #0]
 800308c:	b084      	sub	sp, #16
 800308e:	689a      	ldr	r2, [r3, #8]
 8003090:	9201      	str	r2, [sp, #4]
 8003092:	f890 2041 	ldrb.w	r2, [r0, #65]	; 0x41
 8003096:	2a04      	cmp	r2, #4
 8003098:	4604      	mov	r4, r0
 800309a:	d034      	beq.n	8003106 <I2S_IRQHandler+0x7e>
 800309c:	f894 3041 	ldrb.w	r3, [r4, #65]	; 0x41
 80030a0:	2b03      	cmp	r3, #3
 80030a2:	d001      	beq.n	80030a8 <I2S_IRQHandler+0x20>
 80030a4:	b004      	add	sp, #16
 80030a6:	bd10      	pop	{r4, pc}
 80030a8:	9b01      	ldr	r3, [sp, #4]
 80030aa:	079b      	lsls	r3, r3, #30
 80030ac:	d510      	bpl.n	80030d0 <I2S_IRQHandler+0x48>
 80030ae:	6823      	ldr	r3, [r4, #0]
 80030b0:	685a      	ldr	r2, [r3, #4]
 80030b2:	0610      	lsls	r0, r2, #24
 80030b4:	d50c      	bpl.n	80030d0 <I2S_IRQHandler+0x48>
 80030b6:	6a61      	ldr	r1, [r4, #36]	; 0x24
 80030b8:	f831 2b02 	ldrh.w	r2, [r1], #2
 80030bc:	60da      	str	r2, [r3, #12]
 80030be:	8d62      	ldrh	r2, [r4, #42]	; 0x2a
 80030c0:	6261      	str	r1, [r4, #36]	; 0x24
 80030c2:	3a01      	subs	r2, #1
 80030c4:	b292      	uxth	r2, r2
 80030c6:	8562      	strh	r2, [r4, #42]	; 0x2a
 80030c8:	8d62      	ldrh	r2, [r4, #42]	; 0x2a
 80030ca:	b292      	uxth	r2, r2
 80030cc:	2a00      	cmp	r2, #0
 80030ce:	d049      	beq.n	8003164 <I2S_IRQHandler+0xdc>
 80030d0:	9b01      	ldr	r3, [sp, #4]
 80030d2:	0719      	lsls	r1, r3, #28
 80030d4:	d5e6      	bpl.n	80030a4 <I2S_IRQHandler+0x1c>
 80030d6:	6823      	ldr	r3, [r4, #0]
 80030d8:	685a      	ldr	r2, [r3, #4]
 80030da:	0692      	lsls	r2, r2, #26
 80030dc:	d5e2      	bpl.n	80030a4 <I2S_IRQHandler+0x1c>
 80030de:	685a      	ldr	r2, [r3, #4]
 80030e0:	2100      	movs	r1, #0
 80030e2:	f022 02a0 	bic.w	r2, r2, #160	; 0xa0
 80030e6:	605a      	str	r2, [r3, #4]
 80030e8:	9103      	str	r1, [sp, #12]
 80030ea:	689b      	ldr	r3, [r3, #8]
 80030ec:	9303      	str	r3, [sp, #12]
 80030ee:	2301      	movs	r3, #1
 80030f0:	9a03      	ldr	r2, [sp, #12]
 80030f2:	f884 3041 	strb.w	r3, [r4, #65]	; 0x41
 80030f6:	6c63      	ldr	r3, [r4, #68]	; 0x44
 80030f8:	f043 0304 	orr.w	r3, r3, #4
 80030fc:	6463      	str	r3, [r4, #68]	; 0x44
 80030fe:	4620      	mov	r0, r4
 8003100:	f7ff ffc0 	bl	8003084 <HAL_I2S_ErrorCallback>
 8003104:	e7ce      	b.n	80030a4 <I2S_IRQHandler+0x1c>
 8003106:	9a01      	ldr	r2, [sp, #4]
 8003108:	07d1      	lsls	r1, r2, #31
 800310a:	d50e      	bpl.n	800312a <I2S_IRQHandler+0xa2>
 800310c:	685a      	ldr	r2, [r3, #4]
 800310e:	0652      	lsls	r2, r2, #25
 8003110:	d50b      	bpl.n	800312a <I2S_IRQHandler+0xa2>
 8003112:	6ac1      	ldr	r1, [r0, #44]	; 0x2c
 8003114:	68da      	ldr	r2, [r3, #12]
 8003116:	f821 2b02 	strh.w	r2, [r1], #2
 800311a:	8e42      	ldrh	r2, [r0, #50]	; 0x32
 800311c:	62c1      	str	r1, [r0, #44]	; 0x2c
 800311e:	3a01      	subs	r2, #1
 8003120:	b292      	uxth	r2, r2
 8003122:	8642      	strh	r2, [r0, #50]	; 0x32
 8003124:	8e42      	ldrh	r2, [r0, #50]	; 0x32
 8003126:	b292      	uxth	r2, r2
 8003128:	b33a      	cbz	r2, 800317a <I2S_IRQHandler+0xf2>
 800312a:	9b01      	ldr	r3, [sp, #4]
 800312c:	0659      	lsls	r1, r3, #25
 800312e:	d5b5      	bpl.n	800309c <I2S_IRQHandler+0x14>
 8003130:	6823      	ldr	r3, [r4, #0]
 8003132:	685a      	ldr	r2, [r3, #4]
 8003134:	0692      	lsls	r2, r2, #26
 8003136:	d5b1      	bpl.n	800309c <I2S_IRQHandler+0x14>
 8003138:	685a      	ldr	r2, [r3, #4]
 800313a:	2100      	movs	r1, #0
 800313c:	f022 0260 	bic.w	r2, r2, #96	; 0x60
 8003140:	605a      	str	r2, [r3, #4]
 8003142:	9102      	str	r1, [sp, #8]
 8003144:	68da      	ldr	r2, [r3, #12]
 8003146:	9202      	str	r2, [sp, #8]
 8003148:	689b      	ldr	r3, [r3, #8]
 800314a:	9302      	str	r3, [sp, #8]
 800314c:	2301      	movs	r3, #1
 800314e:	9a02      	ldr	r2, [sp, #8]
 8003150:	f884 3041 	strb.w	r3, [r4, #65]	; 0x41
 8003154:	6c63      	ldr	r3, [r4, #68]	; 0x44
 8003156:	f043 0302 	orr.w	r3, r3, #2
 800315a:	6463      	str	r3, [r4, #68]	; 0x44
 800315c:	4620      	mov	r0, r4
 800315e:	f7ff ff91 	bl	8003084 <HAL_I2S_ErrorCallback>
 8003162:	e79b      	b.n	800309c <I2S_IRQHandler+0x14>
 8003164:	685a      	ldr	r2, [r3, #4]
 8003166:	2101      	movs	r1, #1
 8003168:	f022 02a0 	bic.w	r2, r2, #160	; 0xa0
 800316c:	605a      	str	r2, [r3, #4]
 800316e:	4620      	mov	r0, r4
 8003170:	f884 1041 	strb.w	r1, [r4, #65]	; 0x41
 8003174:	f004 fc90 	bl	8007a98 <HAL_I2S_TxCpltCallback>
 8003178:	e7aa      	b.n	80030d0 <I2S_IRQHandler+0x48>
 800317a:	685a      	ldr	r2, [r3, #4]
 800317c:	2101      	movs	r1, #1
 800317e:	f022 0260 	bic.w	r2, r2, #96	; 0x60
 8003182:	605a      	str	r2, [r3, #4]
 8003184:	f880 1041 	strb.w	r1, [r0, #65]	; 0x41
 8003188:	f7ff ff7a 	bl	8003080 <HAL_I2S_RxCpltCallback>
 800318c:	e7cd      	b.n	800312a <I2S_IRQHandler+0xa2>
 800318e:	bf00      	nop

08003190 <I2S_DMAError>:
 8003190:	6b80      	ldr	r0, [r0, #56]	; 0x38
 8003192:	6801      	ldr	r1, [r0, #0]
 8003194:	684b      	ldr	r3, [r1, #4]
 8003196:	b510      	push	{r4, lr}
 8003198:	2200      	movs	r2, #0
 800319a:	f023 0303 	bic.w	r3, r3, #3
 800319e:	2401      	movs	r4, #1
 80031a0:	604b      	str	r3, [r1, #4]
 80031a2:	8542      	strh	r2, [r0, #42]	; 0x2a
 80031a4:	8642      	strh	r2, [r0, #50]	; 0x32
 80031a6:	f880 4041 	strb.w	r4, [r0, #65]	; 0x41
 80031aa:	6c43      	ldr	r3, [r0, #68]	; 0x44
 80031ac:	f043 0308 	orr.w	r3, r3, #8
 80031b0:	6443      	str	r3, [r0, #68]	; 0x44
 80031b2:	f7ff ff67 	bl	8003084 <HAL_I2S_ErrorCallback>
 80031b6:	bd10      	pop	{r4, pc}

080031b8 <HAL_I2SEx_TxRxCpltCallback>:
 80031b8:	4770      	bx	lr
 80031ba:	bf00      	nop

080031bc <HAL_I2SEx_FullDuplex_IRQHandler>:
 80031bc:	b530      	push	{r4, r5, lr}
 80031be:	4a93      	ldr	r2, [pc, #588]	; (800340c <HAL_I2SEx_FullDuplex_IRQHandler+0x250>)
 80031c0:	6805      	ldr	r5, [r0, #0]
 80031c2:	4b93      	ldr	r3, [pc, #588]	; (8003410 <HAL_I2SEx_FullDuplex_IRQHandler+0x254>)
 80031c4:	68a9      	ldr	r1, [r5, #8]
 80031c6:	b087      	sub	sp, #28
 80031c8:	4295      	cmp	r5, r2
 80031ca:	bf18      	it	ne
 80031cc:	f04f 2340 	movne.w	r3, #1073758208	; 0x40004000
 80031d0:	9100      	str	r1, [sp, #0]
 80031d2:	6899      	ldr	r1, [r3, #8]
 80031d4:	9101      	str	r1, [sp, #4]
 80031d6:	6869      	ldr	r1, [r5, #4]
 80031d8:	6842      	ldr	r2, [r0, #4]
 80031da:	9102      	str	r1, [sp, #8]
 80031dc:	6859      	ldr	r1, [r3, #4]
 80031de:	9103      	str	r1, [sp, #12]
 80031e0:	f432 7200 	bics.w	r2, r2, #512	; 0x200
 80031e4:	4604      	mov	r4, r0
 80031e6:	d075      	beq.n	80032d4 <HAL_I2SEx_FullDuplex_IRQHandler+0x118>
 80031e8:	9a01      	ldr	r2, [sp, #4]
 80031ea:	0791      	lsls	r1, r2, #30
 80031ec:	d51a      	bpl.n	8003224 <HAL_I2SEx_FullDuplex_IRQHandler+0x68>
 80031ee:	9a03      	ldr	r2, [sp, #12]
 80031f0:	0612      	lsls	r2, r2, #24
 80031f2:	d517      	bpl.n	8003224 <HAL_I2SEx_FullDuplex_IRQHandler+0x68>
 80031f4:	6a42      	ldr	r2, [r0, #36]	; 0x24
 80031f6:	1c91      	adds	r1, r2, #2
 80031f8:	8812      	ldrh	r2, [r2, #0]
 80031fa:	6241      	str	r1, [r0, #36]	; 0x24
 80031fc:	60da      	str	r2, [r3, #12]
 80031fe:	8d42      	ldrh	r2, [r0, #42]	; 0x2a
 8003200:	3a01      	subs	r2, #1
 8003202:	b292      	uxth	r2, r2
 8003204:	8542      	strh	r2, [r0, #42]	; 0x2a
 8003206:	8d42      	ldrh	r2, [r0, #42]	; 0x2a
 8003208:	b292      	uxth	r2, r2
 800320a:	b95a      	cbnz	r2, 8003224 <HAL_I2SEx_FullDuplex_IRQHandler+0x68>
 800320c:	685a      	ldr	r2, [r3, #4]
 800320e:	f022 02a0 	bic.w	r2, r2, #160	; 0xa0
 8003212:	605a      	str	r2, [r3, #4]
 8003214:	8e43      	ldrh	r3, [r0, #50]	; 0x32
 8003216:	b29b      	uxth	r3, r3
 8003218:	b923      	cbnz	r3, 8003224 <HAL_I2SEx_FullDuplex_IRQHandler+0x68>
 800321a:	2301      	movs	r3, #1
 800321c:	f880 3041 	strb.w	r3, [r0, #65]	; 0x41
 8003220:	f7ff ffca 	bl	80031b8 <HAL_I2SEx_TxRxCpltCallback>
 8003224:	9b00      	ldr	r3, [sp, #0]
 8003226:	07db      	lsls	r3, r3, #31
 8003228:	d51c      	bpl.n	8003264 <HAL_I2SEx_FullDuplex_IRQHandler+0xa8>
 800322a:	9b02      	ldr	r3, [sp, #8]
 800322c:	065d      	lsls	r5, r3, #25
 800322e:	d519      	bpl.n	8003264 <HAL_I2SEx_FullDuplex_IRQHandler+0xa8>
 8003230:	6ae3      	ldr	r3, [r4, #44]	; 0x2c
 8003232:	6822      	ldr	r2, [r4, #0]
 8003234:	1c98      	adds	r0, r3, #2
 8003236:	68d1      	ldr	r1, [r2, #12]
 8003238:	62e0      	str	r0, [r4, #44]	; 0x2c
 800323a:	8019      	strh	r1, [r3, #0]
 800323c:	8e63      	ldrh	r3, [r4, #50]	; 0x32
 800323e:	3b01      	subs	r3, #1
 8003240:	b29b      	uxth	r3, r3
 8003242:	8663      	strh	r3, [r4, #50]	; 0x32
 8003244:	8e63      	ldrh	r3, [r4, #50]	; 0x32
 8003246:	b29b      	uxth	r3, r3
 8003248:	b963      	cbnz	r3, 8003264 <HAL_I2SEx_FullDuplex_IRQHandler+0xa8>
 800324a:	6853      	ldr	r3, [r2, #4]
 800324c:	f023 0360 	bic.w	r3, r3, #96	; 0x60
 8003250:	6053      	str	r3, [r2, #4]
 8003252:	8d63      	ldrh	r3, [r4, #42]	; 0x2a
 8003254:	b29b      	uxth	r3, r3
 8003256:	b92b      	cbnz	r3, 8003264 <HAL_I2SEx_FullDuplex_IRQHandler+0xa8>
 8003258:	2301      	movs	r3, #1
 800325a:	f884 3041 	strb.w	r3, [r4, #65]	; 0x41
 800325e:	4620      	mov	r0, r4
 8003260:	f7ff ffaa 	bl	80031b8 <HAL_I2SEx_TxRxCpltCallback>
 8003264:	9b00      	ldr	r3, [sp, #0]
 8003266:	0658      	lsls	r0, r3, #25
 8003268:	d51b      	bpl.n	80032a2 <HAL_I2SEx_FullDuplex_IRQHandler+0xe6>
 800326a:	9b02      	ldr	r3, [sp, #8]
 800326c:	0699      	lsls	r1, r3, #26
 800326e:	d518      	bpl.n	80032a2 <HAL_I2SEx_FullDuplex_IRQHandler+0xe6>
 8003270:	6822      	ldr	r2, [r4, #0]
 8003272:	4866      	ldr	r0, [pc, #408]	; (800340c <HAL_I2SEx_FullDuplex_IRQHandler+0x250>)
 8003274:	6851      	ldr	r1, [r2, #4]
 8003276:	4b66      	ldr	r3, [pc, #408]	; (8003410 <HAL_I2SEx_FullDuplex_IRQHandler+0x254>)
 8003278:	f021 0160 	bic.w	r1, r1, #96	; 0x60
 800327c:	4282      	cmp	r2, r0
 800327e:	bf18      	it	ne
 8003280:	f04f 2340 	movne.w	r3, #1073758208	; 0x40004000
 8003284:	6051      	str	r1, [r2, #4]
 8003286:	685a      	ldr	r2, [r3, #4]
 8003288:	2101      	movs	r1, #1
 800328a:	f022 02a0 	bic.w	r2, r2, #160	; 0xa0
 800328e:	605a      	str	r2, [r3, #4]
 8003290:	f884 1041 	strb.w	r1, [r4, #65]	; 0x41
 8003294:	6c63      	ldr	r3, [r4, #68]	; 0x44
 8003296:	f043 0302 	orr.w	r3, r3, #2
 800329a:	6463      	str	r3, [r4, #68]	; 0x44
 800329c:	4620      	mov	r0, r4
 800329e:	f7ff fef1 	bl	8003084 <HAL_I2S_ErrorCallback>
 80032a2:	9b01      	ldr	r3, [sp, #4]
 80032a4:	071a      	lsls	r2, r3, #28
 80032a6:	d56e      	bpl.n	8003386 <HAL_I2SEx_FullDuplex_IRQHandler+0x1ca>
 80032a8:	9b03      	ldr	r3, [sp, #12]
 80032aa:	069b      	lsls	r3, r3, #26
 80032ac:	d56b      	bpl.n	8003386 <HAL_I2SEx_FullDuplex_IRQHandler+0x1ca>
 80032ae:	6822      	ldr	r2, [r4, #0]
 80032b0:	4956      	ldr	r1, [pc, #344]	; (800340c <HAL_I2SEx_FullDuplex_IRQHandler+0x250>)
 80032b2:	4b57      	ldr	r3, [pc, #348]	; (8003410 <HAL_I2SEx_FullDuplex_IRQHandler+0x254>)
 80032b4:	428a      	cmp	r2, r1
 80032b6:	bf18      	it	ne
 80032b8:	f04f 2340 	movne.w	r3, #1073758208	; 0x40004000
 80032bc:	2001      	movs	r0, #1
 80032be:	6859      	ldr	r1, [r3, #4]
 80032c0:	f021 01a0 	bic.w	r1, r1, #160	; 0xa0
 80032c4:	6059      	str	r1, [r3, #4]
 80032c6:	6853      	ldr	r3, [r2, #4]
 80032c8:	f023 0360 	bic.w	r3, r3, #96	; 0x60
 80032cc:	6053      	str	r3, [r2, #4]
 80032ce:	f884 0041 	strb.w	r0, [r4, #65]	; 0x41
 80032d2:	e04e      	b.n	8003372 <HAL_I2SEx_FullDuplex_IRQHandler+0x1b6>
 80032d4:	9b00      	ldr	r3, [sp, #0]
 80032d6:	079a      	lsls	r2, r3, #30
 80032d8:	d502      	bpl.n	80032e0 <HAL_I2SEx_FullDuplex_IRQHandler+0x124>
 80032da:	9b02      	ldr	r3, [sp, #8]
 80032dc:	061b      	lsls	r3, r3, #24
 80032de:	d477      	bmi.n	80033d0 <HAL_I2SEx_FullDuplex_IRQHandler+0x214>
 80032e0:	9b01      	ldr	r3, [sp, #4]
 80032e2:	07d8      	lsls	r0, r3, #31
 80032e4:	d502      	bpl.n	80032ec <HAL_I2SEx_FullDuplex_IRQHandler+0x130>
 80032e6:	9b03      	ldr	r3, [sp, #12]
 80032e8:	0659      	lsls	r1, r3, #25
 80032ea:	d44e      	bmi.n	800338a <HAL_I2SEx_FullDuplex_IRQHandler+0x1ce>
 80032ec:	9b01      	ldr	r3, [sp, #4]
 80032ee:	065a      	lsls	r2, r3, #25
 80032f0:	d522      	bpl.n	8003338 <HAL_I2SEx_FullDuplex_IRQHandler+0x17c>
 80032f2:	9b03      	ldr	r3, [sp, #12]
 80032f4:	069b      	lsls	r3, r3, #26
 80032f6:	d51f      	bpl.n	8003338 <HAL_I2SEx_FullDuplex_IRQHandler+0x17c>
 80032f8:	6823      	ldr	r3, [r4, #0]
 80032fa:	4944      	ldr	r1, [pc, #272]	; (800340c <HAL_I2SEx_FullDuplex_IRQHandler+0x250>)
 80032fc:	4a44      	ldr	r2, [pc, #272]	; (8003410 <HAL_I2SEx_FullDuplex_IRQHandler+0x254>)
 80032fe:	428b      	cmp	r3, r1
 8003300:	bf18      	it	ne
 8003302:	f04f 2240 	movne.w	r2, #1073758208	; 0x40004000
 8003306:	2000      	movs	r0, #0
 8003308:	6851      	ldr	r1, [r2, #4]
 800330a:	f021 0160 	bic.w	r1, r1, #96	; 0x60
 800330e:	6051      	str	r1, [r2, #4]
 8003310:	685a      	ldr	r2, [r3, #4]
 8003312:	f022 02a0 	bic.w	r2, r2, #160	; 0xa0
 8003316:	605a      	str	r2, [r3, #4]
 8003318:	9004      	str	r0, [sp, #16]
 800331a:	68da      	ldr	r2, [r3, #12]
 800331c:	9204      	str	r2, [sp, #16]
 800331e:	689b      	ldr	r3, [r3, #8]
 8003320:	9304      	str	r3, [sp, #16]
 8003322:	2301      	movs	r3, #1
 8003324:	9a04      	ldr	r2, [sp, #16]
 8003326:	f884 3041 	strb.w	r3, [r4, #65]	; 0x41
 800332a:	6c63      	ldr	r3, [r4, #68]	; 0x44
 800332c:	f043 0302 	orr.w	r3, r3, #2
 8003330:	6463      	str	r3, [r4, #68]	; 0x44
 8003332:	4620      	mov	r0, r4
 8003334:	f7ff fea6 	bl	8003084 <HAL_I2S_ErrorCallback>
 8003338:	9b00      	ldr	r3, [sp, #0]
 800333a:	071d      	lsls	r5, r3, #28
 800333c:	d523      	bpl.n	8003386 <HAL_I2SEx_FullDuplex_IRQHandler+0x1ca>
 800333e:	9b02      	ldr	r3, [sp, #8]
 8003340:	0698      	lsls	r0, r3, #26
 8003342:	d520      	bpl.n	8003386 <HAL_I2SEx_FullDuplex_IRQHandler+0x1ca>
 8003344:	6823      	ldr	r3, [r4, #0]
 8003346:	4831      	ldr	r0, [pc, #196]	; (800340c <HAL_I2SEx_FullDuplex_IRQHandler+0x250>)
 8003348:	6859      	ldr	r1, [r3, #4]
 800334a:	4a31      	ldr	r2, [pc, #196]	; (8003410 <HAL_I2SEx_FullDuplex_IRQHandler+0x254>)
 800334c:	f021 01a0 	bic.w	r1, r1, #160	; 0xa0
 8003350:	4283      	cmp	r3, r0
 8003352:	bf18      	it	ne
 8003354:	f04f 2240 	movne.w	r2, #1073758208	; 0x40004000
 8003358:	6059      	str	r1, [r3, #4]
 800335a:	6851      	ldr	r1, [r2, #4]
 800335c:	2000      	movs	r0, #0
 800335e:	f021 0160 	bic.w	r1, r1, #96	; 0x60
 8003362:	6051      	str	r1, [r2, #4]
 8003364:	9005      	str	r0, [sp, #20]
 8003366:	689b      	ldr	r3, [r3, #8]
 8003368:	9305      	str	r3, [sp, #20]
 800336a:	2301      	movs	r3, #1
 800336c:	9a05      	ldr	r2, [sp, #20]
 800336e:	f884 3041 	strb.w	r3, [r4, #65]	; 0x41
 8003372:	6c63      	ldr	r3, [r4, #68]	; 0x44
 8003374:	4620      	mov	r0, r4
 8003376:	f043 0304 	orr.w	r3, r3, #4
 800337a:	6463      	str	r3, [r4, #68]	; 0x44
 800337c:	b007      	add	sp, #28
 800337e:	e8bd 4030 	ldmia.w	sp!, {r4, r5, lr}
 8003382:	f7ff be7f 	b.w	8003084 <HAL_I2S_ErrorCallback>
 8003386:	b007      	add	sp, #28
 8003388:	bd30      	pop	{r4, r5, pc}
 800338a:	6820      	ldr	r0, [r4, #0]
 800338c:	491f      	ldr	r1, [pc, #124]	; (800340c <HAL_I2SEx_FullDuplex_IRQHandler+0x250>)
 800338e:	4a20      	ldr	r2, [pc, #128]	; (8003410 <HAL_I2SEx_FullDuplex_IRQHandler+0x254>)
 8003390:	6ae3      	ldr	r3, [r4, #44]	; 0x2c
 8003392:	4288      	cmp	r0, r1
 8003394:	bf18      	it	ne
 8003396:	f04f 2240 	movne.w	r2, #1073758208	; 0x40004000
 800339a:	1c98      	adds	r0, r3, #2
 800339c:	68d1      	ldr	r1, [r2, #12]
 800339e:	62e0      	str	r0, [r4, #44]	; 0x2c
 80033a0:	8019      	strh	r1, [r3, #0]
 80033a2:	8e63      	ldrh	r3, [r4, #50]	; 0x32
 80033a4:	3b01      	subs	r3, #1
 80033a6:	b29b      	uxth	r3, r3
 80033a8:	8663      	strh	r3, [r4, #50]	; 0x32
 80033aa:	8e63      	ldrh	r3, [r4, #50]	; 0x32
 80033ac:	b29b      	uxth	r3, r3
 80033ae:	2b00      	cmp	r3, #0
 80033b0:	d19c      	bne.n	80032ec <HAL_I2SEx_FullDuplex_IRQHandler+0x130>
 80033b2:	6853      	ldr	r3, [r2, #4]
 80033b4:	f023 0360 	bic.w	r3, r3, #96	; 0x60
 80033b8:	6053      	str	r3, [r2, #4]
 80033ba:	8d63      	ldrh	r3, [r4, #42]	; 0x2a
 80033bc:	b29b      	uxth	r3, r3
 80033be:	2b00      	cmp	r3, #0
 80033c0:	d194      	bne.n	80032ec <HAL_I2SEx_FullDuplex_IRQHandler+0x130>
 80033c2:	2301      	movs	r3, #1
 80033c4:	f884 3041 	strb.w	r3, [r4, #65]	; 0x41
 80033c8:	4620      	mov	r0, r4
 80033ca:	f7ff fef5 	bl	80031b8 <HAL_I2SEx_TxRxCpltCallback>
 80033ce:	e78d      	b.n	80032ec <HAL_I2SEx_FullDuplex_IRQHandler+0x130>
 80033d0:	6a43      	ldr	r3, [r0, #36]	; 0x24
 80033d2:	1c9a      	adds	r2, r3, #2
 80033d4:	881b      	ldrh	r3, [r3, #0]
 80033d6:	6242      	str	r2, [r0, #36]	; 0x24
 80033d8:	60eb      	str	r3, [r5, #12]
 80033da:	8d43      	ldrh	r3, [r0, #42]	; 0x2a
 80033dc:	3b01      	subs	r3, #1
 80033de:	b29b      	uxth	r3, r3
 80033e0:	8543      	strh	r3, [r0, #42]	; 0x2a
 80033e2:	8d43      	ldrh	r3, [r0, #42]	; 0x2a
 80033e4:	b29b      	uxth	r3, r3
 80033e6:	2b00      	cmp	r3, #0
 80033e8:	f47f af7a 	bne.w	80032e0 <HAL_I2SEx_FullDuplex_IRQHandler+0x124>
 80033ec:	686b      	ldr	r3, [r5, #4]
 80033ee:	f023 03a0 	bic.w	r3, r3, #160	; 0xa0
 80033f2:	606b      	str	r3, [r5, #4]
 80033f4:	8e43      	ldrh	r3, [r0, #50]	; 0x32
 80033f6:	b29b      	uxth	r3, r3
 80033f8:	2b00      	cmp	r3, #0
 80033fa:	f47f af71 	bne.w	80032e0 <HAL_I2SEx_FullDuplex_IRQHandler+0x124>
 80033fe:	2301      	movs	r3, #1
 8003400:	f880 3041 	strb.w	r3, [r0, #65]	; 0x41
 8003404:	f7ff fed8 	bl	80031b8 <HAL_I2SEx_TxRxCpltCallback>
 8003408:	e76a      	b.n	80032e0 <HAL_I2SEx_FullDuplex_IRQHandler+0x124>
 800340a:	bf00      	nop
 800340c:	40003800 	.word	0x40003800
 8003410:	40003400 	.word	0x40003400

08003414 <HAL_PCD_Init>:
 8003414:	b5f0      	push	{r4, r5, r6, r7, lr}
 8003416:	b08b      	sub	sp, #44	; 0x2c
 8003418:	2800      	cmp	r0, #0
 800341a:	f000 8083 	beq.w	8003524 <HAL_PCD_Init+0x110>
 800341e:	f890 33bd 	ldrb.w	r3, [r0, #957]	; 0x3bd
 8003422:	6805      	ldr	r5, [r0, #0]
 8003424:	4604      	mov	r4, r0
 8003426:	f003 02ff 	and.w	r2, r3, #255	; 0xff
 800342a:	b333      	cbz	r3, 800347a <HAL_PCD_Init+0x66>
 800342c:	4628      	mov	r0, r5
 800342e:	2303      	movs	r3, #3
 8003430:	f884 33bd 	strb.w	r3, [r4, #957]	; 0x3bd
 8003434:	6beb      	ldr	r3, [r5, #60]	; 0x3c
 8003436:	4625      	mov	r5, r4
 8003438:	f413 7380 	ands.w	r3, r3, #256	; 0x100
 800343c:	bf08      	it	eq
 800343e:	6123      	streq	r3, [r4, #16]
 8003440:	f002 fc40 	bl	8005cc4 <USB_DisableGlobalInt>
 8003444:	f855 cb10 	ldr.w	ip, [r5], #16
 8003448:	462f      	mov	r7, r5
 800344a:	cf0f      	ldmia	r7!, {r0, r1, r2, r3}
 800344c:	466e      	mov	r6, sp
 800344e:	c60f      	stmia	r6!, {r0, r1, r2, r3}
 8003450:	cf0f      	ldmia	r7!, {r0, r1, r2, r3}
 8003452:	c60f      	stmia	r6!, {r0, r1, r2, r3}
 8003454:	e897 0003 	ldmia.w	r7, {r0, r1}
 8003458:	e886 0003 	stmia.w	r6, {r0, r1}
 800345c:	1d26      	adds	r6, r4, #4
 800345e:	4660      	mov	r0, ip
 8003460:	e896 000e 	ldmia.w	r6, {r1, r2, r3}
 8003464:	f002 fb66 	bl	8005b34 <USB_CoreInit>
 8003468:	4607      	mov	r7, r0
 800346a:	b160      	cbz	r0, 8003486 <HAL_PCD_Init+0x72>
 800346c:	2302      	movs	r3, #2
 800346e:	f884 33bd 	strb.w	r3, [r4, #957]	; 0x3bd
 8003472:	2501      	movs	r5, #1
 8003474:	4628      	mov	r0, r5
 8003476:	b00b      	add	sp, #44	; 0x2c
 8003478:	bdf0      	pop	{r4, r5, r6, r7, pc}
 800347a:	f880 23bc 	strb.w	r2, [r0, #956]	; 0x3bc
 800347e:	f004 fed3 	bl	8008228 <HAL_PCD_MspInit>
 8003482:	6820      	ldr	r0, [r4, #0]
 8003484:	e7d3      	b.n	800342e <HAL_PCD_Init+0x1a>
 8003486:	4601      	mov	r1, r0
 8003488:	6820      	ldr	r0, [r4, #0]
 800348a:	f002 fc23 	bl	8005cd4 <USB_SetCurrentMode>
 800348e:	6860      	ldr	r0, [r4, #4]
 8003490:	b360      	cbz	r0, 80034ec <HAL_PCD_Init+0xd8>
 8003492:	4639      	mov	r1, r7
 8003494:	463a      	mov	r2, r7
 8003496:	f04f 0c01 	mov.w	ip, #1
 800349a:	ebc1 03c1 	rsb	r3, r1, r1, lsl #3
 800349e:	eb04 0383 	add.w	r3, r4, r3, lsl #2
 80034a2:	1c4f      	adds	r7, r1, #1
 80034a4:	f883 103c 	strb.w	r1, [r3, #60]	; 0x3c
 80034a8:	f8a3 1042 	strh.w	r1, [r3, #66]	; 0x42
 80034ac:	b2f9      	uxtb	r1, r7
 80034ae:	4281      	cmp	r1, r0
 80034b0:	f883 c03d 	strb.w	ip, [r3, #61]	; 0x3d
 80034b4:	f883 203f 	strb.w	r2, [r3, #63]	; 0x3f
 80034b8:	e9c3 2211 	strd	r2, r2, [r3, #68]	; 0x44
 80034bc:	651a      	str	r2, [r3, #80]	; 0x50
 80034be:	d3ec      	bcc.n	800349a <HAL_PCD_Init+0x86>
 80034c0:	2200      	movs	r2, #0
 80034c2:	4611      	mov	r1, r2
 80034c4:	ebc2 03c2 	rsb	r3, r2, r2, lsl #3
 80034c8:	eb04 0383 	add.w	r3, r4, r3, lsl #2
 80034cc:	1c57      	adds	r7, r2, #1
 80034ce:	f883 21fc 	strb.w	r2, [r3, #508]	; 0x1fc
 80034d2:	b2fa      	uxtb	r2, r7
 80034d4:	4282      	cmp	r2, r0
 80034d6:	f883 11fd 	strb.w	r1, [r3, #509]	; 0x1fd
 80034da:	f883 11ff 	strb.w	r1, [r3, #511]	; 0x1ff
 80034de:	f8c3 1204 	str.w	r1, [r3, #516]	; 0x204
 80034e2:	f8c3 1208 	str.w	r1, [r3, #520]	; 0x208
 80034e6:	f8c3 1210 	str.w	r1, [r3, #528]	; 0x210
 80034ea:	d3eb      	bcc.n	80034c4 <HAL_PCD_Init+0xb0>
 80034ec:	cd0f      	ldmia	r5!, {r0, r1, r2, r3}
 80034ee:	466f      	mov	r7, sp
 80034f0:	f8d4 c000 	ldr.w	ip, [r4]
 80034f4:	c70f      	stmia	r7!, {r0, r1, r2, r3}
 80034f6:	cd0f      	ldmia	r5!, {r0, r1, r2, r3}
 80034f8:	c70f      	stmia	r7!, {r0, r1, r2, r3}
 80034fa:	e895 0003 	ldmia.w	r5, {r0, r1}
 80034fe:	e887 0003 	stmia.w	r7, {r0, r1}
 8003502:	4660      	mov	r0, ip
 8003504:	e896 000e 	ldmia.w	r6, {r1, r2, r3}
 8003508:	f002 fbfc 	bl	8005d04 <USB_DevInit>
 800350c:	4605      	mov	r5, r0
 800350e:	2800      	cmp	r0, #0
 8003510:	d1ac      	bne.n	800346c <HAL_PCD_Init+0x58>
 8003512:	2301      	movs	r3, #1
 8003514:	f884 0038 	strb.w	r0, [r4, #56]	; 0x38
 8003518:	6820      	ldr	r0, [r4, #0]
 800351a:	f884 33bd 	strb.w	r3, [r4, #957]	; 0x3bd
 800351e:	f002 ffa9 	bl	8006474 <USB_DevDisconnect>
 8003522:	e7a7      	b.n	8003474 <HAL_PCD_Init+0x60>
 8003524:	2501      	movs	r5, #1
 8003526:	4628      	mov	r0, r5
 8003528:	b00b      	add	sp, #44	; 0x2c
 800352a:	bdf0      	pop	{r4, r5, r6, r7, pc}

0800352c <HAL_PCD_Start>:
 800352c:	f890 33bc 	ldrb.w	r3, [r0, #956]	; 0x3bc
 8003530:	2b01      	cmp	r3, #1
 8003532:	d01a      	beq.n	800356a <HAL_PCD_Start+0x3e>
 8003534:	6a82      	ldr	r2, [r0, #40]	; 0x28
 8003536:	6803      	ldr	r3, [r0, #0]
 8003538:	2101      	movs	r1, #1
 800353a:	428a      	cmp	r2, r1
 800353c:	b510      	push	{r4, lr}
 800353e:	f880 13bc 	strb.w	r1, [r0, #956]	; 0x3bc
 8003542:	d00a      	beq.n	800355a <HAL_PCD_Start+0x2e>
 8003544:	4604      	mov	r4, r0
 8003546:	4618      	mov	r0, r3
 8003548:	f002 ff88 	bl	800645c <USB_DevConnect>
 800354c:	6820      	ldr	r0, [r4, #0]
 800354e:	f002 fbb1 	bl	8005cb4 <USB_EnableGlobalInt>
 8003552:	2000      	movs	r0, #0
 8003554:	f884 03bc 	strb.w	r0, [r4, #956]	; 0x3bc
 8003558:	bd10      	pop	{r4, pc}
 800355a:	6982      	ldr	r2, [r0, #24]
 800355c:	428a      	cmp	r2, r1
 800355e:	d0f1      	beq.n	8003544 <HAL_PCD_Start+0x18>
 8003560:	6b9a      	ldr	r2, [r3, #56]	; 0x38
 8003562:	f442 3280 	orr.w	r2, r2, #65536	; 0x10000
 8003566:	639a      	str	r2, [r3, #56]	; 0x38
 8003568:	e7ec      	b.n	8003544 <HAL_PCD_Start+0x18>
 800356a:	2002      	movs	r0, #2
 800356c:	4770      	bx	lr
 800356e:	bf00      	nop

08003570 <HAL_PCD_IRQHandler>:
 8003570:	e92d 4ff0 	stmdb	sp!, {r4, r5, r6, r7, r8, r9, sl, fp, lr}
 8003574:	6806      	ldr	r6, [r0, #0]
 8003576:	b089      	sub	sp, #36	; 0x24
 8003578:	4604      	mov	r4, r0
 800357a:	4630      	mov	r0, r6
 800357c:	f002 ffb8 	bl	80064f0 <USB_GetMode>
 8003580:	b110      	cbz	r0, 8003588 <HAL_PCD_IRQHandler+0x18>
 8003582:	b009      	add	sp, #36	; 0x24
 8003584:	e8bd 8ff0 	ldmia.w	sp!, {r4, r5, r6, r7, r8, r9, sl, fp, pc}
 8003588:	4605      	mov	r5, r0
 800358a:	6820      	ldr	r0, [r4, #0]
 800358c:	f002 ff7e 	bl	800648c <USB_ReadInterrupts>
 8003590:	2800      	cmp	r0, #0
 8003592:	d0f6      	beq.n	8003582 <HAL_PCD_IRQHandler+0x12>
 8003594:	6820      	ldr	r0, [r4, #0]
 8003596:	f002 ff79 	bl	800648c <USB_ReadInterrupts>
 800359a:	f010 0f02 	tst.w	r0, #2
 800359e:	6820      	ldr	r0, [r4, #0]
 80035a0:	bf1e      	ittt	ne
 80035a2:	6943      	ldrne	r3, [r0, #20]
 80035a4:	f003 0302 	andne.w	r3, r3, #2
 80035a8:	6143      	strne	r3, [r0, #20]
 80035aa:	f002 ff6f 	bl	800648c <USB_ReadInterrupts>
 80035ae:	f010 0f10 	tst.w	r0, #16
 80035b2:	6820      	ldr	r0, [r4, #0]
 80035b4:	d011      	beq.n	80035da <HAL_PCD_IRQHandler+0x6a>
 80035b6:	6983      	ldr	r3, [r0, #24]
 80035b8:	f023 0310 	bic.w	r3, r3, #16
 80035bc:	6183      	str	r3, [r0, #24]
 80035be:	6a37      	ldr	r7, [r6, #32]
 80035c0:	f3c7 4343 	ubfx	r3, r7, #17, #4
 80035c4:	2b02      	cmp	r3, #2
 80035c6:	f007 080f 	and.w	r8, r7, #15
 80035ca:	d05d      	beq.n	8003688 <HAL_PCD_IRQHandler+0x118>
 80035cc:	2b06      	cmp	r3, #6
 80035ce:	f000 8283 	beq.w	8003ad8 <HAL_PCD_IRQHandler+0x568>
 80035d2:	6983      	ldr	r3, [r0, #24]
 80035d4:	f043 0310 	orr.w	r3, r3, #16
 80035d8:	6183      	str	r3, [r0, #24]
 80035da:	f002 ff57 	bl	800648c <USB_ReadInterrupts>
 80035de:	f410 2f00 	tst.w	r0, #524288	; 0x80000
 80035e2:	6820      	ldr	r0, [r4, #0]
 80035e4:	f040 81c6 	bne.w	8003974 <HAL_PCD_IRQHandler+0x404>
 80035e8:	f002 ff50 	bl	800648c <USB_ReadInterrupts>
 80035ec:	f410 2f80 	tst.w	r0, #262144	; 0x40000
 80035f0:	6820      	ldr	r0, [r4, #0]
 80035f2:	f040 810a 	bne.w	800380a <HAL_PCD_IRQHandler+0x29a>
 80035f6:	f002 ff49 	bl	800648c <USB_ReadInterrupts>
 80035fa:	2800      	cmp	r0, #0
 80035fc:	db64      	blt.n	80036c8 <HAL_PCD_IRQHandler+0x158>
 80035fe:	6820      	ldr	r0, [r4, #0]
 8003600:	f002 ff44 	bl	800648c <USB_ReadInterrupts>
 8003604:	0501      	lsls	r1, r0, #20
 8003606:	d430      	bmi.n	800366a <HAL_PCD_IRQHandler+0xfa>
 8003608:	6820      	ldr	r0, [r4, #0]
 800360a:	f002 ff3f 	bl	800648c <USB_ReadInterrupts>
 800360e:	04c3      	lsls	r3, r0, #19
 8003610:	d46e      	bmi.n	80036f0 <HAL_PCD_IRQHandler+0x180>
 8003612:	6820      	ldr	r0, [r4, #0]
 8003614:	f002 ff3a 	bl	800648c <USB_ReadInterrupts>
 8003618:	f410 5f00 	tst.w	r0, #8192	; 0x2000
 800361c:	6820      	ldr	r0, [r4, #0]
 800361e:	f040 80dd 	bne.w	80037dc <HAL_PCD_IRQHandler+0x26c>
 8003622:	f002 ff33 	bl	800648c <USB_ReadInterrupts>
 8003626:	0707      	lsls	r7, r0, #28
 8003628:	f100 80cf 	bmi.w	80037ca <HAL_PCD_IRQHandler+0x25a>
 800362c:	6820      	ldr	r0, [r4, #0]
 800362e:	f002 ff2d 	bl	800648c <USB_ReadInterrupts>
 8003632:	02c6      	lsls	r6, r0, #11
 8003634:	f100 80bf 	bmi.w	80037b6 <HAL_PCD_IRQHandler+0x246>
 8003638:	6820      	ldr	r0, [r4, #0]
 800363a:	f002 ff27 	bl	800648c <USB_ReadInterrupts>
 800363e:	0285      	lsls	r5, r0, #10
 8003640:	f100 80af 	bmi.w	80037a2 <HAL_PCD_IRQHandler+0x232>
 8003644:	6820      	ldr	r0, [r4, #0]
 8003646:	f002 ff21 	bl	800648c <USB_ReadInterrupts>
 800364a:	0040      	lsls	r0, r0, #1
 800364c:	f100 80a0 	bmi.w	8003790 <HAL_PCD_IRQHandler+0x220>
 8003650:	6820      	ldr	r0, [r4, #0]
 8003652:	f002 ff1b 	bl	800648c <USB_ReadInterrupts>
 8003656:	0741      	lsls	r1, r0, #29
 8003658:	d593      	bpl.n	8003582 <HAL_PCD_IRQHandler+0x12>
 800365a:	6823      	ldr	r3, [r4, #0]
 800365c:	685d      	ldr	r5, [r3, #4]
 800365e:	076a      	lsls	r2, r5, #29
 8003660:	d40d      	bmi.n	800367e <HAL_PCD_IRQHandler+0x10e>
 8003662:	685a      	ldr	r2, [r3, #4]
 8003664:	432a      	orrs	r2, r5
 8003666:	605a      	str	r2, [r3, #4]
 8003668:	e78b      	b.n	8003582 <HAL_PCD_IRQHandler+0x12>
 800366a:	f8d6 3808 	ldr.w	r3, [r6, #2056]	; 0x808
 800366e:	07da      	lsls	r2, r3, #31
 8003670:	d426      	bmi.n	80036c0 <HAL_PCD_IRQHandler+0x150>
 8003672:	6820      	ldr	r0, [r4, #0]
 8003674:	6943      	ldr	r3, [r0, #20]
 8003676:	f403 6300 	and.w	r3, r3, #2048	; 0x800
 800367a:	6143      	str	r3, [r0, #20]
 800367c:	e7c5      	b.n	800360a <HAL_PCD_IRQHandler+0x9a>
 800367e:	4620      	mov	r0, r4
 8003680:	f004 fe70 	bl	8008364 <HAL_PCD_DisconnectCallback>
 8003684:	6823      	ldr	r3, [r4, #0]
 8003686:	e7ec      	b.n	8003662 <HAL_PCD_IRQHandler+0xf2>
 8003688:	f647 73f0 	movw	r3, #32752	; 0x7ff0
 800368c:	421f      	tst	r7, r3
 800368e:	d0a0      	beq.n	80035d2 <HAL_PCD_IRQHandler+0x62>
 8003690:	ebc8 08c8 	rsb	r8, r8, r8, lsl #3
 8003694:	eb04 0888 	add.w	r8, r4, r8, lsl #2
 8003698:	f3c7 170a 	ubfx	r7, r7, #4, #11
 800369c:	f8d8 1208 	ldr.w	r1, [r8, #520]	; 0x208
 80036a0:	463a      	mov	r2, r7
 80036a2:	4630      	mov	r0, r6
 80036a4:	f002 fe60 	bl	8006368 <USB_ReadPacket>
 80036a8:	f8d8 1208 	ldr.w	r1, [r8, #520]	; 0x208
 80036ac:	f8d8 2214 	ldr.w	r2, [r8, #532]	; 0x214
 80036b0:	6820      	ldr	r0, [r4, #0]
 80036b2:	4439      	add	r1, r7
 80036b4:	443a      	add	r2, r7
 80036b6:	f8c8 1208 	str.w	r1, [r8, #520]	; 0x208
 80036ba:	f8c8 2214 	str.w	r2, [r8, #532]	; 0x214
 80036be:	e788      	b.n	80035d2 <HAL_PCD_IRQHandler+0x62>
 80036c0:	4620      	mov	r0, r4
 80036c2:	f004 fe27 	bl	8008314 <HAL_PCD_SuspendCallback>
 80036c6:	e7d4      	b.n	8003672 <HAL_PCD_IRQHandler+0x102>
 80036c8:	f894 13f4 	ldrb.w	r1, [r4, #1012]	; 0x3f4
 80036cc:	f8d6 2804 	ldr.w	r2, [r6, #2052]	; 0x804
 80036d0:	2901      	cmp	r1, #1
 80036d2:	f022 0201 	bic.w	r2, r2, #1
 80036d6:	f8c6 2804 	str.w	r2, [r6, #2052]	; 0x804
 80036da:	f000 81d1 	beq.w	8003a80 <HAL_PCD_IRQHandler+0x510>
 80036de:	4620      	mov	r0, r4
 80036e0:	f004 fe30 	bl	8008344 <HAL_PCD_ResumeCallback>
 80036e4:	6820      	ldr	r0, [r4, #0]
 80036e6:	6943      	ldr	r3, [r0, #20]
 80036e8:	f003 4300 	and.w	r3, r3, #2147483648	; 0x80000000
 80036ec:	6143      	str	r3, [r0, #20]
 80036ee:	e787      	b.n	8003600 <HAL_PCD_IRQHandler+0x90>
 80036f0:	f506 6700 	add.w	r7, r6, #2048	; 0x800
 80036f4:	687b      	ldr	r3, [r7, #4]
 80036f6:	6820      	ldr	r0, [r4, #0]
 80036f8:	f023 0301 	bic.w	r3, r3, #1
 80036fc:	2110      	movs	r1, #16
 80036fe:	607b      	str	r3, [r7, #4]
 8003700:	f002 fbd8 	bl	8005eb4 <USB_FlushTxFifo>
 8003704:	6860      	ldr	r0, [r4, #4]
 8003706:	b1f8      	cbz	r0, 8003748 <HAL_PCD_IRQHandler+0x1d8>
 8003708:	f506 6310 	add.w	r3, r6, #2304	; 0x900
 800370c:	f64f 317f 	movw	r1, #64383	; 0xfb7f
 8003710:	6099      	str	r1, [r3, #8]
 8003712:	681a      	ldr	r2, [r3, #0]
 8003714:	f422 1200 	bic.w	r2, r2, #2097152	; 0x200000
 8003718:	601a      	str	r2, [r3, #0]
 800371a:	681a      	ldr	r2, [r3, #0]
 800371c:	f042 6200 	orr.w	r2, r2, #134217728	; 0x8000000
 8003720:	601a      	str	r2, [r3, #0]
 8003722:	f8c3 1208 	str.w	r1, [r3, #520]	; 0x208
 8003726:	f8d3 2200 	ldr.w	r2, [r3, #512]	; 0x200
 800372a:	f422 1200 	bic.w	r2, r2, #2097152	; 0x200000
 800372e:	f8c3 2200 	str.w	r2, [r3, #512]	; 0x200
 8003732:	f8d3 2200 	ldr.w	r2, [r3, #512]	; 0x200
 8003736:	3501      	adds	r5, #1
 8003738:	f042 6200 	orr.w	r2, r2, #134217728	; 0x8000000
 800373c:	4285      	cmp	r5, r0
 800373e:	f8c3 2200 	str.w	r2, [r3, #512]	; 0x200
 8003742:	f103 0320 	add.w	r3, r3, #32
 8003746:	d1e3      	bne.n	8003710 <HAL_PCD_IRQHandler+0x1a0>
 8003748:	69fb      	ldr	r3, [r7, #28]
 800374a:	6b22      	ldr	r2, [r4, #48]	; 0x30
 800374c:	f043 1301 	orr.w	r3, r3, #65537	; 0x10001
 8003750:	61fb      	str	r3, [r7, #28]
 8003752:	2a00      	cmp	r2, #0
 8003754:	f000 8189 	beq.w	8003a6a <HAL_PCD_IRQHandler+0x4fa>
 8003758:	f8d7 3084 	ldr.w	r3, [r7, #132]	; 0x84
 800375c:	f043 030b 	orr.w	r3, r3, #11
 8003760:	f8c7 3084 	str.w	r3, [r7, #132]	; 0x84
 8003764:	6c7b      	ldr	r3, [r7, #68]	; 0x44
 8003766:	f043 030b 	orr.w	r3, r3, #11
 800376a:	647b      	str	r3, [r7, #68]	; 0x44
 800376c:	f8d6 3800 	ldr.w	r3, [r6, #2048]	; 0x800
 8003770:	7c21      	ldrb	r1, [r4, #16]
 8003772:	6820      	ldr	r0, [r4, #0]
 8003774:	f423 63fe 	bic.w	r3, r3, #2032	; 0x7f0
 8003778:	f8c6 3800 	str.w	r3, [r6, #2048]	; 0x800
 800377c:	f504 7271 	add.w	r2, r4, #964	; 0x3c4
 8003780:	f002 feca 	bl	8006518 <USB_EP0_OutStart>
 8003784:	6820      	ldr	r0, [r4, #0]
 8003786:	6943      	ldr	r3, [r0, #20]
 8003788:	f403 5380 	and.w	r3, r3, #4096	; 0x1000
 800378c:	6143      	str	r3, [r0, #20]
 800378e:	e741      	b.n	8003614 <HAL_PCD_IRQHandler+0xa4>
 8003790:	4620      	mov	r0, r4
 8003792:	f004 fde3 	bl	800835c <HAL_PCD_ConnectCallback>
 8003796:	6820      	ldr	r0, [r4, #0]
 8003798:	6943      	ldr	r3, [r0, #20]
 800379a:	f003 4380 	and.w	r3, r3, #1073741824	; 0x40000000
 800379e:	6143      	str	r3, [r0, #20]
 80037a0:	e757      	b.n	8003652 <HAL_PCD_IRQHandler+0xe2>
 80037a2:	4620      	mov	r0, r4
 80037a4:	2100      	movs	r1, #0
 80037a6:	f004 fdd1 	bl	800834c <HAL_PCD_ISOOUTIncompleteCallback>
 80037aa:	6820      	ldr	r0, [r4, #0]
 80037ac:	6943      	ldr	r3, [r0, #20]
 80037ae:	f403 1300 	and.w	r3, r3, #2097152	; 0x200000
 80037b2:	6143      	str	r3, [r0, #20]
 80037b4:	e747      	b.n	8003646 <HAL_PCD_IRQHandler+0xd6>
 80037b6:	4620      	mov	r0, r4
 80037b8:	2100      	movs	r1, #0
 80037ba:	f004 fdcb 	bl	8008354 <HAL_PCD_ISOINIncompleteCallback>
 80037be:	6820      	ldr	r0, [r4, #0]
 80037c0:	6943      	ldr	r3, [r0, #20]
 80037c2:	f403 1380 	and.w	r3, r3, #1048576	; 0x100000
 80037c6:	6143      	str	r3, [r0, #20]
 80037c8:	e737      	b.n	800363a <HAL_PCD_IRQHandler+0xca>
 80037ca:	4620      	mov	r0, r4
 80037cc:	f004 fd88 	bl	80082e0 <HAL_PCD_SOFCallback>
 80037d0:	6820      	ldr	r0, [r4, #0]
 80037d2:	6943      	ldr	r3, [r0, #20]
 80037d4:	f003 0308 	and.w	r3, r3, #8
 80037d8:	6143      	str	r3, [r0, #20]
 80037da:	e728      	b.n	800362e <HAL_PCD_IRQHandler+0xbe>
 80037dc:	f002 fe8c 	bl	80064f8 <USB_ActivateSetup>
 80037e0:	6820      	ldr	r0, [r4, #0]
 80037e2:	f002 fb79 	bl	8005ed8 <USB_GetDevSpeed>
 80037e6:	60e0      	str	r0, [r4, #12]
 80037e8:	6825      	ldr	r5, [r4, #0]
 80037ea:	f000 fdf1 	bl	80043d0 <HAL_RCC_GetHCLKFreq>
 80037ee:	7b22      	ldrb	r2, [r4, #12]
 80037f0:	4601      	mov	r1, r0
 80037f2:	4628      	mov	r0, r5
 80037f4:	f002 f9e2 	bl	8005bbc <USB_SetTurnaroundTime>
 80037f8:	4620      	mov	r0, r4
 80037fa:	f004 fd75 	bl	80082e8 <HAL_PCD_ResetCallback>
 80037fe:	6820      	ldr	r0, [r4, #0]
 8003800:	6943      	ldr	r3, [r0, #20]
 8003802:	f403 5300 	and.w	r3, r3, #8192	; 0x2000
 8003806:	6143      	str	r3, [r0, #20]
 8003808:	e70b      	b.n	8003622 <HAL_PCD_IRQHandler+0xb2>
 800380a:	f002 fe4b 	bl	80064a4 <USB_ReadDevAllInEpInterrupt>
 800380e:	4680      	mov	r8, r0
 8003810:	6820      	ldr	r0, [r4, #0]
 8003812:	f1b8 0f00 	cmp.w	r8, #0
 8003816:	f43f aeee 	beq.w	80035f6 <HAL_PCD_IRQHandler+0x86>
 800381a:	f506 6310 	add.w	r3, r6, #2304	; 0x900
 800381e:	e9cd 6503 	strd	r6, r5, [sp, #12]
 8003822:	46a3      	mov	fp, r4
 8003824:	f04f 0a00 	mov.w	sl, #0
 8003828:	461e      	mov	r6, r3
 800382a:	e007      	b.n	800383c <HAL_PCD_IRQHandler+0x2cc>
 800382c:	ea5f 0858 	movs.w	r8, r8, lsr #1
 8003830:	f10a 0a01 	add.w	sl, sl, #1
 8003834:	f10b 0b1c 	add.w	fp, fp, #28
 8003838:	f000 80d3 	beq.w	80039e2 <HAL_PCD_IRQHandler+0x472>
 800383c:	f018 0f01 	tst.w	r8, #1
 8003840:	d0f4      	beq.n	800382c <HAL_PCD_IRQHandler+0x2bc>
 8003842:	fa5f f98a 	uxtb.w	r9, sl
 8003846:	4649      	mov	r1, r9
 8003848:	f002 fe3e 	bl	80064c8 <USB_ReadDevInEPInterrupt>
 800384c:	4605      	mov	r5, r0
 800384e:	07e8      	lsls	r0, r5, #31
 8003850:	d517      	bpl.n	8003882 <HAL_PCD_IRQHandler+0x312>
 8003852:	9b03      	ldr	r3, [sp, #12]
 8003854:	6921      	ldr	r1, [r4, #16]
 8003856:	f8d3 0834 	ldr.w	r0, [r3, #2100]	; 0x834
 800385a:	2701      	movs	r7, #1
 800385c:	f00a 020f 	and.w	r2, sl, #15
 8003860:	fa07 f202 	lsl.w	r2, r7, r2
 8003864:	ea20 0002 	bic.w	r0, r0, r2
 8003868:	eb06 124a 	add.w	r2, r6, sl, lsl #5
 800386c:	f8c3 0834 	str.w	r0, [r3, #2100]	; 0x834
 8003870:	4613      	mov	r3, r2
 8003872:	42b9      	cmp	r1, r7
 8003874:	609f      	str	r7, [r3, #8]
 8003876:	f000 810a 	beq.w	8003a8e <HAL_PCD_IRQHandler+0x51e>
 800387a:	4649      	mov	r1, r9
 800387c:	4620      	mov	r0, r4
 800387e:	f004 fd25 	bl	80082cc <HAL_PCD_DataInStageCallback>
 8003882:	0729      	lsls	r1, r5, #28
 8003884:	d503      	bpl.n	800388e <HAL_PCD_IRQHandler+0x31e>
 8003886:	eb06 134a 	add.w	r3, r6, sl, lsl #5
 800388a:	2208      	movs	r2, #8
 800388c:	609a      	str	r2, [r3, #8]
 800388e:	06ea      	lsls	r2, r5, #27
 8003890:	d503      	bpl.n	800389a <HAL_PCD_IRQHandler+0x32a>
 8003892:	eb06 134a 	add.w	r3, r6, sl, lsl #5
 8003896:	2210      	movs	r2, #16
 8003898:	609a      	str	r2, [r3, #8]
 800389a:	066b      	lsls	r3, r5, #25
 800389c:	d503      	bpl.n	80038a6 <HAL_PCD_IRQHandler+0x336>
 800389e:	eb06 134a 	add.w	r3, r6, sl, lsl #5
 80038a2:	2240      	movs	r2, #64	; 0x40
 80038a4:	609a      	str	r2, [r3, #8]
 80038a6:	07af      	lsls	r7, r5, #30
 80038a8:	d503      	bpl.n	80038b2 <HAL_PCD_IRQHandler+0x342>
 80038aa:	eb06 134a 	add.w	r3, r6, sl, lsl #5
 80038ae:	2202      	movs	r2, #2
 80038b0:	609a      	str	r2, [r3, #8]
 80038b2:	6827      	ldr	r7, [r4, #0]
 80038b4:	062d      	lsls	r5, r5, #24
 80038b6:	4638      	mov	r0, r7
 80038b8:	d5b8      	bpl.n	800382c <HAL_PCD_IRQHandler+0x2bc>
 80038ba:	e9db 1314 	ldrd	r1, r3, [fp, #80]	; 0x50
 80038be:	428b      	cmp	r3, r1
 80038c0:	d8b4      	bhi.n	800382c <HAL_PCD_IRQHandler+0x2bc>
 80038c2:	f507 6210 	add.w	r2, r7, #2304	; 0x900
 80038c6:	eb02 124a 	add.w	r2, r2, sl, lsl #5
 80038ca:	4610      	mov	r0, r2
 80038cc:	f8db 2044 	ldr.w	r2, [fp, #68]	; 0x44
 80038d0:	9005      	str	r0, [sp, #20]
 80038d2:	1acd      	subs	r5, r1, r3
 80038d4:	4295      	cmp	r5, r2
 80038d6:	6980      	ldr	r0, [r0, #24]
 80038d8:	9706      	str	r7, [sp, #24]
 80038da:	46ac      	mov	ip, r5
 80038dc:	bf28      	it	cs
 80038de:	4694      	movcs	ip, r2
 80038e0:	b280      	uxth	r0, r0
 80038e2:	f10c 0c03 	add.w	ip, ip, #3
 80038e6:	ebb0 0f9c 	cmp.w	r0, ip, lsr #2
 80038ea:	d331      	bcc.n	8003950 <HAL_PCD_IRQHandler+0x3e0>
 80038ec:	428b      	cmp	r3, r1
 80038ee:	d233      	bcs.n	8003958 <HAL_PCD_IRQHandler+0x3e8>
 80038f0:	b391      	cbz	r1, 8003958 <HAL_PCD_IRQHandler+0x3e8>
 80038f2:	f8cd 801c 	str.w	r8, [sp, #28]
 80038f6:	f8db 1048 	ldr.w	r1, [fp, #72]	; 0x48
 80038fa:	f8dd 8014 	ldr.w	r8, [sp, #20]
 80038fe:	e007      	b.n	8003910 <HAL_PCD_IRQHandler+0x3a0>
 8003900:	f8db 5050 	ldr.w	r5, [fp, #80]	; 0x50
 8003904:	429d      	cmp	r5, r3
 8003906:	f240 812b 	bls.w	8003b60 <HAL_PCD_IRQHandler+0x5f0>
 800390a:	f8db 2044 	ldr.w	r2, [fp, #68]	; 0x44
 800390e:	1aed      	subs	r5, r5, r3
 8003910:	4295      	cmp	r5, r2
 8003912:	bf28      	it	cs
 8003914:	4615      	movcs	r5, r2
 8003916:	7c23      	ldrb	r3, [r4, #16]
 8003918:	9300      	str	r3, [sp, #0]
 800391a:	464a      	mov	r2, r9
 800391c:	b2ab      	uxth	r3, r5
 800391e:	4638      	mov	r0, r7
 8003920:	f002 fd0c 	bl	800633c <USB_WritePacket>
 8003924:	f8d8 2018 	ldr.w	r2, [r8, #24]
 8003928:	f8db 1048 	ldr.w	r1, [fp, #72]	; 0x48
 800392c:	f8db 3054 	ldr.w	r3, [fp, #84]	; 0x54
 8003930:	4429      	add	r1, r5
 8003932:	442b      	add	r3, r5
 8003934:	b292      	uxth	r2, r2
 8003936:	3503      	adds	r5, #3
 8003938:	ebb2 0f95 	cmp.w	r2, r5, lsr #2
 800393c:	f8cb 1048 	str.w	r1, [fp, #72]	; 0x48
 8003940:	f8cb 3054 	str.w	r3, [fp, #84]	; 0x54
 8003944:	d2dc      	bcs.n	8003900 <HAL_PCD_IRQHandler+0x390>
 8003946:	f8dd 801c 	ldr.w	r8, [sp, #28]
 800394a:	6827      	ldr	r7, [r4, #0]
 800394c:	f8db 1050 	ldr.w	r1, [fp, #80]	; 0x50
 8003950:	4299      	cmp	r1, r3
 8003952:	4638      	mov	r0, r7
 8003954:	f63f af6a 	bhi.w	800382c <HAL_PCD_IRQHandler+0x2bc>
 8003958:	9b06      	ldr	r3, [sp, #24]
 800395a:	2001      	movs	r0, #1
 800395c:	f8d3 2834 	ldr.w	r2, [r3, #2100]	; 0x834
 8003960:	f00a 010f 	and.w	r1, sl, #15
 8003964:	fa00 f101 	lsl.w	r1, r0, r1
 8003968:	ea22 0201 	bic.w	r2, r2, r1
 800396c:	4638      	mov	r0, r7
 800396e:	f8c3 2834 	str.w	r2, [r3, #2100]	; 0x834
 8003972:	e75b      	b.n	800382c <HAL_PCD_IRQHandler+0x2bc>
 8003974:	f002 fd8e 	bl	8006494 <USB_ReadDevAllOutEpInterrupt>
 8003978:	4607      	mov	r7, r0
 800397a:	6820      	ldr	r0, [r4, #0]
 800397c:	2f00      	cmp	r7, #0
 800397e:	f43f ae33 	beq.w	80035e8 <HAL_PCD_IRQHandler+0x78>
 8003982:	f04f 0800 	mov.w	r8, #0
 8003986:	f506 6a30 	add.w	sl, r6, #2816	; 0xb00
 800398a:	e004      	b.n	8003996 <HAL_PCD_IRQHandler+0x426>
 800398c:	087f      	lsrs	r7, r7, #1
 800398e:	f108 0801 	add.w	r8, r8, #1
 8003992:	f43f ae29 	beq.w	80035e8 <HAL_PCD_IRQHandler+0x78>
 8003996:	07fb      	lsls	r3, r7, #31
 8003998:	d5f8      	bpl.n	800398c <HAL_PCD_IRQHandler+0x41c>
 800399a:	fa5f fb88 	uxtb.w	fp, r8
 800399e:	4659      	mov	r1, fp
 80039a0:	f002 fd88 	bl	80064b4 <USB_ReadDevOutEPInterrupt>
 80039a4:	4681      	mov	r9, r0
 80039a6:	f019 0f01 	tst.w	r9, #1
 80039aa:	6820      	ldr	r0, [r4, #0]
 80039ac:	d138      	bne.n	8003a20 <HAL_PCD_IRQHandler+0x4b0>
 80039ae:	f019 0f08 	tst.w	r9, #8
 80039b2:	d119      	bne.n	80039e8 <HAL_PCD_IRQHandler+0x478>
 80039b4:	f019 0f10 	tst.w	r9, #16
 80039b8:	d003      	beq.n	80039c2 <HAL_PCD_IRQHandler+0x452>
 80039ba:	eb0a 1348 	add.w	r3, sl, r8, lsl #5
 80039be:	2210      	movs	r2, #16
 80039c0:	609a      	str	r2, [r3, #8]
 80039c2:	f019 0f20 	tst.w	r9, #32
 80039c6:	d003      	beq.n	80039d0 <HAL_PCD_IRQHandler+0x460>
 80039c8:	eb0a 1348 	add.w	r3, sl, r8, lsl #5
 80039cc:	2220      	movs	r2, #32
 80039ce:	609a      	str	r2, [r3, #8]
 80039d0:	f419 5f00 	tst.w	r9, #8192	; 0x2000
 80039d4:	d0da      	beq.n	800398c <HAL_PCD_IRQHandler+0x41c>
 80039d6:	eb0a 1348 	add.w	r3, sl, r8, lsl #5
 80039da:	f44f 5200 	mov.w	r2, #8192	; 0x2000
 80039de:	609a      	str	r2, [r3, #8]
 80039e0:	e7d4      	b.n	800398c <HAL_PCD_IRQHandler+0x41c>
 80039e2:	e9dd 6503 	ldrd	r6, r5, [sp, #12]
 80039e6:	e606      	b.n	80035f6 <HAL_PCD_IRQHandler+0x86>
 80039e8:	ea4f 1248 	mov.w	r2, r8, lsl #5
 80039ec:	eb0a 0302 	add.w	r3, sl, r2
 80039f0:	2108      	movs	r1, #8
 80039f2:	6099      	str	r1, [r3, #8]
 80039f4:	f500 6330 	add.w	r3, r0, #2816	; 0xb00
 80039f8:	4413      	add	r3, r2
 80039fa:	6c02      	ldr	r2, [r0, #64]	; 0x40
 80039fc:	485f      	ldr	r0, [pc, #380]	; (8003b7c <HAL_PCD_IRQHandler+0x60c>)
 80039fe:	6899      	ldr	r1, [r3, #8]
 8003a00:	4282      	cmp	r2, r0
 8003a02:	d957      	bls.n	8003ab4 <HAL_PCD_IRQHandler+0x544>
 8003a04:	040a      	lsls	r2, r1, #16
 8003a06:	d502      	bpl.n	8003a0e <HAL_PCD_IRQHandler+0x49e>
 8003a08:	f44f 4200 	mov.w	r2, #32768	; 0x8000
 8003a0c:	609a      	str	r2, [r3, #8]
 8003a0e:	4620      	mov	r0, r4
 8003a10:	f004 fc4c 	bl	80082ac <HAL_PCD_SetupStageCallback>
 8003a14:	6921      	ldr	r1, [r4, #16]
 8003a16:	2901      	cmp	r1, #1
 8003a18:	f000 80a6 	beq.w	8003b68 <HAL_PCD_IRQHandler+0x5f8>
 8003a1c:	6820      	ldr	r0, [r4, #0]
 8003a1e:	e7c9      	b.n	80039b4 <HAL_PCD_IRQHandler+0x444>
 8003a20:	ea4f 1348 	mov.w	r3, r8, lsl #5
 8003a24:	eb0a 0203 	add.w	r2, sl, r3
 8003a28:	6921      	ldr	r1, [r4, #16]
 8003a2a:	f500 6e30 	add.w	lr, r0, #2816	; 0xb00
 8003a2e:	f04f 0c01 	mov.w	ip, #1
 8003a32:	4473      	add	r3, lr
 8003a34:	f8c2 c008 	str.w	ip, [r2, #8]
 8003a38:	2901      	cmp	r1, #1
 8003a3a:	f8d0 c040 	ldr.w	ip, [r0, #64]	; 0x40
 8003a3e:	689a      	ldr	r2, [r3, #8]
 8003a40:	d03d      	beq.n	8003abe <HAL_PCD_IRQHandler+0x54e>
 8003a42:	494f      	ldr	r1, [pc, #316]	; (8003b80 <HAL_PCD_IRQHandler+0x610>)
 8003a44:	458c      	cmp	ip, r1
 8003a46:	d05a      	beq.n	8003afe <HAL_PCD_IRQHandler+0x58e>
 8003a48:	f1b8 0f00 	cmp.w	r8, #0
 8003a4c:	d107      	bne.n	8003a5e <HAL_PCD_IRQHandler+0x4ee>
 8003a4e:	f8d4 3210 	ldr.w	r3, [r4, #528]	; 0x210
 8003a52:	b923      	cbnz	r3, 8003a5e <HAL_PCD_IRQHandler+0x4ee>
 8003a54:	f504 7271 	add.w	r2, r4, #964	; 0x3c4
 8003a58:	4641      	mov	r1, r8
 8003a5a:	f002 fd5d 	bl	8006518 <USB_EP0_OutStart>
 8003a5e:	4620      	mov	r0, r4
 8003a60:	4659      	mov	r1, fp
 8003a62:	f004 fc29 	bl	80082b8 <HAL_PCD_DataOutStageCallback>
 8003a66:	6820      	ldr	r0, [r4, #0]
 8003a68:	e7a1      	b.n	80039ae <HAL_PCD_IRQHandler+0x43e>
 8003a6a:	697b      	ldr	r3, [r7, #20]
 8003a6c:	f443 5300 	orr.w	r3, r3, #8192	; 0x2000
 8003a70:	f043 032b 	orr.w	r3, r3, #43	; 0x2b
 8003a74:	617b      	str	r3, [r7, #20]
 8003a76:	693b      	ldr	r3, [r7, #16]
 8003a78:	f043 030b 	orr.w	r3, r3, #11
 8003a7c:	613b      	str	r3, [r7, #16]
 8003a7e:	e675      	b.n	800376c <HAL_PCD_IRQHandler+0x1fc>
 8003a80:	2100      	movs	r1, #0
 8003a82:	f884 13f4 	strb.w	r1, [r4, #1012]	; 0x3f4
 8003a86:	4620      	mov	r0, r4
 8003a88:	f000 f9ee 	bl	8003e68 <HAL_PCDEx_LPM_Callback>
 8003a8c:	e62a      	b.n	80036e4 <HAL_PCD_IRQHandler+0x174>
 8003a8e:	e9db 2311 	ldrd	r2, r3, [fp, #68]	; 0x44
 8003a92:	4413      	add	r3, r2
 8003a94:	f8cb 3048 	str.w	r3, [fp, #72]	; 0x48
 8003a98:	f1ba 0f00 	cmp.w	sl, #0
 8003a9c:	f47f aeed 	bne.w	800387a <HAL_PCD_IRQHandler+0x30a>
 8003aa0:	6d23      	ldr	r3, [r4, #80]	; 0x50
 8003aa2:	2b00      	cmp	r3, #0
 8003aa4:	f47f aee9 	bne.w	800387a <HAL_PCD_IRQHandler+0x30a>
 8003aa8:	f504 7271 	add.w	r2, r4, #964	; 0x3c4
 8003aac:	6820      	ldr	r0, [r4, #0]
 8003aae:	f002 fd33 	bl	8006518 <USB_EP0_OutStart>
 8003ab2:	e6e2      	b.n	800387a <HAL_PCD_IRQHandler+0x30a>
 8003ab4:	4620      	mov	r0, r4
 8003ab6:	f004 fbf9 	bl	80082ac <HAL_PCD_SetupStageCallback>
 8003aba:	6820      	ldr	r0, [r4, #0]
 8003abc:	e77a      	b.n	80039b4 <HAL_PCD_IRQHandler+0x444>
 8003abe:	0711      	lsls	r1, r2, #28
 8003ac0:	d524      	bpl.n	8003b0c <HAL_PCD_IRQHandler+0x59c>
 8003ac2:	492e      	ldr	r1, [pc, #184]	; (8003b7c <HAL_PCD_IRQHandler+0x60c>)
 8003ac4:	458c      	cmp	ip, r1
 8003ac6:	f67f af72 	bls.w	80039ae <HAL_PCD_IRQHandler+0x43e>
 8003aca:	0412      	lsls	r2, r2, #16
 8003acc:	f57f af6f 	bpl.w	80039ae <HAL_PCD_IRQHandler+0x43e>
 8003ad0:	f44f 4200 	mov.w	r2, #32768	; 0x8000
 8003ad4:	609a      	str	r2, [r3, #8]
 8003ad6:	e76a      	b.n	80039ae <HAL_PCD_IRQHandler+0x43e>
 8003ad8:	2208      	movs	r2, #8
 8003ada:	f504 7171 	add.w	r1, r4, #964	; 0x3c4
 8003ade:	4630      	mov	r0, r6
 8003ae0:	ebc8 08c8 	rsb	r8, r8, r8, lsl #3
 8003ae4:	f002 fc40 	bl	8006368 <USB_ReadPacket>
 8003ae8:	eb04 0288 	add.w	r2, r4, r8, lsl #2
 8003aec:	f3c7 130a 	ubfx	r3, r7, #4, #11
 8003af0:	f8d2 1214 	ldr.w	r1, [r2, #532]	; 0x214
 8003af4:	6820      	ldr	r0, [r4, #0]
 8003af6:	440b      	add	r3, r1
 8003af8:	f8c2 3214 	str.w	r3, [r2, #532]	; 0x214
 8003afc:	e569      	b.n	80035d2 <HAL_PCD_IRQHandler+0x62>
 8003afe:	0411      	lsls	r1, r2, #16
 8003b00:	d4e6      	bmi.n	8003ad0 <HAL_PCD_IRQHandler+0x560>
 8003b02:	0691      	lsls	r1, r2, #26
 8003b04:	d5ab      	bpl.n	8003a5e <HAL_PCD_IRQHandler+0x4ee>
 8003b06:	2220      	movs	r2, #32
 8003b08:	609a      	str	r2, [r3, #8]
 8003b0a:	e7a8      	b.n	8003a5e <HAL_PCD_IRQHandler+0x4ee>
 8003b0c:	0691      	lsls	r1, r2, #26
 8003b0e:	d431      	bmi.n	8003b74 <HAL_PCD_IRQHandler+0x604>
 8003b10:	f012 0f28 	tst.w	r2, #40	; 0x28
 8003b14:	f47f af4b 	bne.w	80039ae <HAL_PCD_IRQHandler+0x43e>
 8003b18:	4918      	ldr	r1, [pc, #96]	; (8003b7c <HAL_PCD_IRQHandler+0x60c>)
 8003b1a:	458c      	cmp	ip, r1
 8003b1c:	d901      	bls.n	8003b22 <HAL_PCD_IRQHandler+0x5b2>
 8003b1e:	0412      	lsls	r2, r2, #16
 8003b20:	d4d6      	bmi.n	8003ad0 <HAL_PCD_IRQHandler+0x560>
 8003b22:	ebc8 02c8 	rsb	r2, r8, r8, lsl #3
 8003b26:	eb04 0282 	add.w	r2, r4, r2, lsl #2
 8003b2a:	6919      	ldr	r1, [r3, #16]
 8003b2c:	f8d2 3204 	ldr.w	r3, [r2, #516]	; 0x204
 8003b30:	f3c1 0112 	ubfx	r1, r1, #0, #19
 8003b34:	eba3 0c01 	sub.w	ip, r3, r1
 8003b38:	f8d2 1208 	ldr.w	r1, [r2, #520]	; 0x208
 8003b3c:	f8c2 c214 	str.w	ip, [r2, #532]	; 0x214
 8003b40:	440b      	add	r3, r1
 8003b42:	f8c2 3208 	str.w	r3, [r2, #520]	; 0x208
 8003b46:	f1b8 0f00 	cmp.w	r8, #0
 8003b4a:	d188      	bne.n	8003a5e <HAL_PCD_IRQHandler+0x4ee>
 8003b4c:	f8d4 3210 	ldr.w	r3, [r4, #528]	; 0x210
 8003b50:	2b00      	cmp	r3, #0
 8003b52:	d184      	bne.n	8003a5e <HAL_PCD_IRQHandler+0x4ee>
 8003b54:	f504 7271 	add.w	r2, r4, #964	; 0x3c4
 8003b58:	2101      	movs	r1, #1
 8003b5a:	f002 fcdd 	bl	8006518 <USB_EP0_OutStart>
 8003b5e:	e77e      	b.n	8003a5e <HAL_PCD_IRQHandler+0x4ee>
 8003b60:	f8dd 801c 	ldr.w	r8, [sp, #28]
 8003b64:	6827      	ldr	r7, [r4, #0]
 8003b66:	e6f7      	b.n	8003958 <HAL_PCD_IRQHandler+0x3e8>
 8003b68:	f504 7271 	add.w	r2, r4, #964	; 0x3c4
 8003b6c:	6820      	ldr	r0, [r4, #0]
 8003b6e:	f002 fcd3 	bl	8006518 <USB_EP0_OutStart>
 8003b72:	e753      	b.n	8003a1c <HAL_PCD_IRQHandler+0x4ac>
 8003b74:	2220      	movs	r2, #32
 8003b76:	609a      	str	r2, [r3, #8]
 8003b78:	e719      	b.n	80039ae <HAL_PCD_IRQHandler+0x43e>
 8003b7a:	bf00      	nop
 8003b7c:	4f54300a 	.word	0x4f54300a
 8003b80:	4f54310a 	.word	0x4f54310a

08003b84 <HAL_PCD_SetAddress>:
 8003b84:	f890 23bc 	ldrb.w	r2, [r0, #956]	; 0x3bc
 8003b88:	2a01      	cmp	r2, #1
 8003b8a:	d00d      	beq.n	8003ba8 <HAL_PCD_SetAddress+0x24>
 8003b8c:	b510      	push	{r4, lr}
 8003b8e:	4604      	mov	r4, r0
 8003b90:	2201      	movs	r2, #1
 8003b92:	f884 1038 	strb.w	r1, [r4, #56]	; 0x38
 8003b96:	f880 23bc 	strb.w	r2, [r0, #956]	; 0x3bc
 8003b9a:	6800      	ldr	r0, [r0, #0]
 8003b9c:	f002 fc4e 	bl	800643c <USB_SetDevAddress>
 8003ba0:	2000      	movs	r0, #0
 8003ba2:	f884 03bc 	strb.w	r0, [r4, #956]	; 0x3bc
 8003ba6:	bd10      	pop	{r4, pc}
 8003ba8:	2002      	movs	r0, #2
 8003baa:	4770      	bx	lr

08003bac <HAL_PCD_EP_Open>:
 8003bac:	b5f8      	push	{r3, r4, r5, r6, r7, lr}
 8003bae:	f001 050f 	and.w	r5, r1, #15
 8003bb2:	ebc5 04c5 	rsb	r4, r5, r5, lsl #3
 8003bb6:	ebc5 06c5 	rsb	r6, r5, r5, lsl #3
 8003bba:	0609      	lsls	r1, r1, #24
 8003bbc:	ea4f 0484 	mov.w	r4, r4, lsl #2
 8003bc0:	eb00 0686 	add.w	r6, r0, r6, lsl #2
 8003bc4:	d41e      	bmi.n	8003c04 <HAL_PCD_EP_Open+0x58>
 8003bc6:	f504 74fe 	add.w	r4, r4, #508	; 0x1fc
 8003bca:	2700      	movs	r7, #0
 8003bcc:	1901      	adds	r1, r0, r4
 8003bce:	f886 71fd 	strb.w	r7, [r6, #509]	; 0x1fd
 8003bd2:	784c      	ldrb	r4, [r1, #1]
 8003bd4:	700d      	strb	r5, [r1, #0]
 8003bd6:	608a      	str	r2, [r1, #8]
 8003bd8:	70cb      	strb	r3, [r1, #3]
 8003bda:	b104      	cbz	r4, 8003bde <HAL_PCD_EP_Open+0x32>
 8003bdc:	80cd      	strh	r5, [r1, #6]
 8003bde:	2b02      	cmp	r3, #2
 8003be0:	bf04      	itt	eq
 8003be2:	2300      	moveq	r3, #0
 8003be4:	710b      	strbeq	r3, [r1, #4]
 8003be6:	f890 33bc 	ldrb.w	r3, [r0, #956]	; 0x3bc
 8003bea:	2b01      	cmp	r3, #1
 8003bec:	d010      	beq.n	8003c10 <HAL_PCD_EP_Open+0x64>
 8003bee:	2301      	movs	r3, #1
 8003bf0:	4604      	mov	r4, r0
 8003bf2:	f880 33bc 	strb.w	r3, [r0, #956]	; 0x3bc
 8003bf6:	6800      	ldr	r0, [r0, #0]
 8003bf8:	f002 f97a 	bl	8005ef0 <USB_ActivateEndpoint>
 8003bfc:	2000      	movs	r0, #0
 8003bfe:	f884 03bc 	strb.w	r0, [r4, #956]	; 0x3bc
 8003c02:	bdf8      	pop	{r3, r4, r5, r6, r7, pc}
 8003c04:	343c      	adds	r4, #60	; 0x3c
 8003c06:	2701      	movs	r7, #1
 8003c08:	1901      	adds	r1, r0, r4
 8003c0a:	f886 703d 	strb.w	r7, [r6, #61]	; 0x3d
 8003c0e:	e7e0      	b.n	8003bd2 <HAL_PCD_EP_Open+0x26>
 8003c10:	2002      	movs	r0, #2
 8003c12:	bdf8      	pop	{r3, r4, r5, r6, r7, pc}

08003c14 <HAL_PCD_EP_Close>:
 8003c14:	f001 020f 	and.w	r2, r1, #15
 8003c18:	b538      	push	{r3, r4, r5, lr}
 8003c1a:	0609      	lsls	r1, r1, #24
 8003c1c:	ebc2 03c2 	rsb	r3, r2, r2, lsl #3
 8003c20:	ebc2 04c2 	rsb	r4, r2, r2, lsl #3
 8003c24:	ea4f 0383 	mov.w	r3, r3, lsl #2
 8003c28:	eb00 0484 	add.w	r4, r0, r4, lsl #2
 8003c2c:	d415      	bmi.n	8003c5a <HAL_PCD_EP_Close+0x46>
 8003c2e:	f503 73fe 	add.w	r3, r3, #508	; 0x1fc
 8003c32:	18c1      	adds	r1, r0, r3
 8003c34:	2500      	movs	r5, #0
 8003c36:	f884 51fd 	strb.w	r5, [r4, #509]	; 0x1fd
 8003c3a:	700a      	strb	r2, [r1, #0]
 8003c3c:	f890 33bc 	ldrb.w	r3, [r0, #956]	; 0x3bc
 8003c40:	2b01      	cmp	r3, #1
 8003c42:	d014      	beq.n	8003c6e <HAL_PCD_EP_Close+0x5a>
 8003c44:	2301      	movs	r3, #1
 8003c46:	4604      	mov	r4, r0
 8003c48:	f880 33bc 	strb.w	r3, [r0, #956]	; 0x3bc
 8003c4c:	6800      	ldr	r0, [r0, #0]
 8003c4e:	f002 f993 	bl	8005f78 <USB_DeactivateEndpoint>
 8003c52:	2000      	movs	r0, #0
 8003c54:	f884 03bc 	strb.w	r0, [r4, #956]	; 0x3bc
 8003c58:	bd38      	pop	{r3, r4, r5, pc}
 8003c5a:	333c      	adds	r3, #60	; 0x3c
 8003c5c:	18c1      	adds	r1, r0, r3
 8003c5e:	2501      	movs	r5, #1
 8003c60:	f884 503d 	strb.w	r5, [r4, #61]	; 0x3d
 8003c64:	700a      	strb	r2, [r1, #0]
 8003c66:	f890 33bc 	ldrb.w	r3, [r0, #956]	; 0x3bc
 8003c6a:	2b01      	cmp	r3, #1
 8003c6c:	d1ea      	bne.n	8003c44 <HAL_PCD_EP_Close+0x30>
 8003c6e:	2002      	movs	r0, #2
 8003c70:	bd38      	pop	{r3, r4, r5, pc}
 8003c72:	bf00      	nop

08003c74 <HAL_PCD_EP_Receive>:
 8003c74:	b538      	push	{r3, r4, r5, lr}
 8003c76:	f001 050f 	and.w	r5, r1, #15
 8003c7a:	ebc5 04c5 	rsb	r4, r5, r5, lsl #3
 8003c7e:	eb00 0484 	add.w	r4, r0, r4, lsl #2
 8003c82:	2100      	movs	r1, #0
 8003c84:	f8c4 2208 	str.w	r2, [r4, #520]	; 0x208
 8003c88:	f8c4 1214 	str.w	r1, [r4, #532]	; 0x214
 8003c8c:	f884 11fd 	strb.w	r1, [r4, #509]	; 0x1fd
 8003c90:	f8c4 3210 	str.w	r3, [r4, #528]	; 0x210
 8003c94:	f884 51fc 	strb.w	r5, [r4, #508]	; 0x1fc
 8003c98:	6903      	ldr	r3, [r0, #16]
 8003c9a:	211c      	movs	r1, #28
 8003c9c:	fb01 0105 	mla	r1, r1, r5, r0
 8003ca0:	2b01      	cmp	r3, #1
 8003ca2:	bf08      	it	eq
 8003ca4:	f8c4 220c 	streq.w	r2, [r4, #524]	; 0x20c
 8003ca8:	f501 71fe 	add.w	r1, r1, #508	; 0x1fc
 8003cac:	6800      	ldr	r0, [r0, #0]
 8003cae:	b2da      	uxtb	r2, r3
 8003cb0:	b11d      	cbz	r5, 8003cba <HAL_PCD_EP_Receive+0x46>
 8003cb2:	f002 f9c1 	bl	8006038 <USB_EPStartXfer>
 8003cb6:	2000      	movs	r0, #0
 8003cb8:	bd38      	pop	{r3, r4, r5, pc}
 8003cba:	f002 fabf 	bl	800623c <USB_EP0StartXfer>
 8003cbe:	2000      	movs	r0, #0
 8003cc0:	bd38      	pop	{r3, r4, r5, pc}
 8003cc2:	bf00      	nop

08003cc4 <HAL_PCD_EP_GetRxCount>:
 8003cc4:	f001 010f 	and.w	r1, r1, #15
 8003cc8:	ebc1 01c1 	rsb	r1, r1, r1, lsl #3
 8003ccc:	eb00 0181 	add.w	r1, r0, r1, lsl #2
 8003cd0:	f8d1 0214 	ldr.w	r0, [r1, #532]	; 0x214
 8003cd4:	4770      	bx	lr
 8003cd6:	bf00      	nop

08003cd8 <HAL_PCD_EP_Transmit>:
 8003cd8:	b570      	push	{r4, r5, r6, lr}
 8003cda:	f001 050f 	and.w	r5, r1, #15
 8003cde:	ebc5 04c5 	rsb	r4, r5, r5, lsl #3
 8003ce2:	eb00 0484 	add.w	r4, r0, r4, lsl #2
 8003ce6:	2101      	movs	r1, #1
 8003ce8:	2600      	movs	r6, #0
 8003cea:	64a2      	str	r2, [r4, #72]	; 0x48
 8003cec:	f884 103d 	strb.w	r1, [r4, #61]	; 0x3d
 8003cf0:	6523      	str	r3, [r4, #80]	; 0x50
 8003cf2:	f884 503c 	strb.w	r5, [r4, #60]	; 0x3c
 8003cf6:	6566      	str	r6, [r4, #84]	; 0x54
 8003cf8:	6903      	ldr	r3, [r0, #16]
 8003cfa:	211c      	movs	r1, #28
 8003cfc:	fb01 0105 	mla	r1, r1, r5, r0
 8003d00:	2b01      	cmp	r3, #1
 8003d02:	bf08      	it	eq
 8003d04:	64e2      	streq	r2, [r4, #76]	; 0x4c
 8003d06:	313c      	adds	r1, #60	; 0x3c
 8003d08:	6800      	ldr	r0, [r0, #0]
 8003d0a:	b2da      	uxtb	r2, r3
 8003d0c:	b11d      	cbz	r5, 8003d16 <HAL_PCD_EP_Transmit+0x3e>
 8003d0e:	f002 f993 	bl	8006038 <USB_EPStartXfer>
 8003d12:	2000      	movs	r0, #0
 8003d14:	bd70      	pop	{r4, r5, r6, pc}
 8003d16:	f002 fa91 	bl	800623c <USB_EP0StartXfer>
 8003d1a:	2000      	movs	r0, #0
 8003d1c:	bd70      	pop	{r4, r5, r6, pc}
 8003d1e:	bf00      	nop

08003d20 <HAL_PCD_EP_SetStall>:
 8003d20:	b538      	push	{r3, r4, r5, lr}
 8003d22:	6843      	ldr	r3, [r0, #4]
 8003d24:	f001 050f 	and.w	r5, r1, #15
 8003d28:	429d      	cmp	r5, r3
 8003d2a:	d81f      	bhi.n	8003d6c <HAL_PCD_EP_SetStall+0x4c>
 8003d2c:	060b      	lsls	r3, r1, #24
 8003d2e:	d41f      	bmi.n	8003d70 <HAL_PCD_EP_SetStall+0x50>
 8003d30:	ebc1 03c1 	rsb	r3, r1, r1, lsl #3
 8003d34:	241c      	movs	r4, #28
 8003d36:	fb04 0101 	mla	r1, r4, r1, r0
 8003d3a:	eb00 0383 	add.w	r3, r0, r3, lsl #2
 8003d3e:	2200      	movs	r2, #0
 8003d40:	f501 71fe 	add.w	r1, r1, #508	; 0x1fc
 8003d44:	f883 21fd 	strb.w	r2, [r3, #509]	; 0x1fd
 8003d48:	2301      	movs	r3, #1
 8003d4a:	700d      	strb	r5, [r1, #0]
 8003d4c:	708b      	strb	r3, [r1, #2]
 8003d4e:	f890 23bc 	ldrb.w	r2, [r0, #956]	; 0x3bc
 8003d52:	429a      	cmp	r2, r3
 8003d54:	d01e      	beq.n	8003d94 <HAL_PCD_EP_SetStall+0x74>
 8003d56:	4604      	mov	r4, r0
 8003d58:	f880 33bc 	strb.w	r3, [r0, #956]	; 0x3bc
 8003d5c:	6800      	ldr	r0, [r0, #0]
 8003d5e:	f002 fb15 	bl	800638c <USB_EPSetStall>
 8003d62:	b1cd      	cbz	r5, 8003d98 <HAL_PCD_EP_SetStall+0x78>
 8003d64:	2000      	movs	r0, #0
 8003d66:	f884 03bc 	strb.w	r0, [r4, #956]	; 0x3bc
 8003d6a:	bd38      	pop	{r3, r4, r5, pc}
 8003d6c:	2001      	movs	r0, #1
 8003d6e:	bd38      	pop	{r3, r4, r5, pc}
 8003d70:	ebc5 03c5 	rsb	r3, r5, r5, lsl #3
 8003d74:	211c      	movs	r1, #28
 8003d76:	fb01 0105 	mla	r1, r1, r5, r0
 8003d7a:	eb00 0383 	add.w	r3, r0, r3, lsl #2
 8003d7e:	2201      	movs	r2, #1
 8003d80:	313c      	adds	r1, #60	; 0x3c
 8003d82:	f883 203d 	strb.w	r2, [r3, #61]	; 0x3d
 8003d86:	2301      	movs	r3, #1
 8003d88:	700d      	strb	r5, [r1, #0]
 8003d8a:	708b      	strb	r3, [r1, #2]
 8003d8c:	f890 23bc 	ldrb.w	r2, [r0, #956]	; 0x3bc
 8003d90:	429a      	cmp	r2, r3
 8003d92:	d1e0      	bne.n	8003d56 <HAL_PCD_EP_SetStall+0x36>
 8003d94:	2002      	movs	r0, #2
 8003d96:	bd38      	pop	{r3, r4, r5, pc}
 8003d98:	f504 7271 	add.w	r2, r4, #964	; 0x3c4
 8003d9c:	7c21      	ldrb	r1, [r4, #16]
 8003d9e:	6820      	ldr	r0, [r4, #0]
 8003da0:	f002 fbba 	bl	8006518 <USB_EP0_OutStart>
 8003da4:	e7de      	b.n	8003d64 <HAL_PCD_EP_SetStall+0x44>
 8003da6:	bf00      	nop

08003da8 <HAL_PCD_EP_ClrStall>:
 8003da8:	b538      	push	{r3, r4, r5, lr}
 8003daa:	6843      	ldr	r3, [r0, #4]
 8003dac:	f001 020f 	and.w	r2, r1, #15
 8003db0:	429a      	cmp	r2, r3
 8003db2:	d821      	bhi.n	8003df8 <HAL_PCD_EP_ClrStall+0x50>
 8003db4:	ebc2 03c2 	rsb	r3, r2, r2, lsl #3
 8003db8:	ebc2 04c2 	rsb	r4, r2, r2, lsl #3
 8003dbc:	0609      	lsls	r1, r1, #24
 8003dbe:	ea4f 0383 	mov.w	r3, r3, lsl #2
 8003dc2:	eb00 0484 	add.w	r4, r0, r4, lsl #2
 8003dc6:	d419      	bmi.n	8003dfc <HAL_PCD_EP_ClrStall+0x54>
 8003dc8:	f503 73fe 	add.w	r3, r3, #508	; 0x1fc
 8003dcc:	18c1      	adds	r1, r0, r3
 8003dce:	2500      	movs	r5, #0
 8003dd0:	f884 51fd 	strb.w	r5, [r4, #509]	; 0x1fd
 8003dd4:	2500      	movs	r5, #0
 8003dd6:	700a      	strb	r2, [r1, #0]
 8003dd8:	708d      	strb	r5, [r1, #2]
 8003dda:	f890 33bc 	ldrb.w	r3, [r0, #956]	; 0x3bc
 8003dde:	2b01      	cmp	r3, #1
 8003de0:	d018      	beq.n	8003e14 <HAL_PCD_EP_ClrStall+0x6c>
 8003de2:	4604      	mov	r4, r0
 8003de4:	2301      	movs	r3, #1
 8003de6:	f880 33bc 	strb.w	r3, [r0, #956]	; 0x3bc
 8003dea:	6800      	ldr	r0, [r0, #0]
 8003dec:	f002 fafa 	bl	80063e4 <USB_EPClearStall>
 8003df0:	f884 53bc 	strb.w	r5, [r4, #956]	; 0x3bc
 8003df4:	4628      	mov	r0, r5
 8003df6:	bd38      	pop	{r3, r4, r5, pc}
 8003df8:	2001      	movs	r0, #1
 8003dfa:	bd38      	pop	{r3, r4, r5, pc}
 8003dfc:	333c      	adds	r3, #60	; 0x3c
 8003dfe:	18c1      	adds	r1, r0, r3
 8003e00:	2501      	movs	r5, #1
 8003e02:	f884 503d 	strb.w	r5, [r4, #61]	; 0x3d
 8003e06:	2500      	movs	r5, #0
 8003e08:	700a      	strb	r2, [r1, #0]
 8003e0a:	708d      	strb	r5, [r1, #2]
 8003e0c:	f890 33bc 	ldrb.w	r3, [r0, #956]	; 0x3bc
 8003e10:	2b01      	cmp	r3, #1
 8003e12:	d1e6      	bne.n	8003de2 <HAL_PCD_EP_ClrStall+0x3a>
 8003e14:	2002      	movs	r0, #2
 8003e16:	bd38      	pop	{r3, r4, r5, pc}

08003e18 <HAL_PCDEx_SetTxFiFo>:
 8003e18:	b430      	push	{r4, r5}
 8003e1a:	6805      	ldr	r5, [r0, #0]
 8003e1c:	0412      	lsls	r2, r2, #16
 8003e1e:	6a6c      	ldr	r4, [r5, #36]	; 0x24
 8003e20:	b1c1      	cbz	r1, 8003e54 <HAL_PCDEx_SetTxFiFo+0x3c>
 8003e22:	6aab      	ldr	r3, [r5, #40]	; 0x28
 8003e24:	3901      	subs	r1, #1
 8003e26:	eb04 4413 	add.w	r4, r4, r3, lsr #16
 8003e2a:	d00b      	beq.n	8003e44 <HAL_PCDEx_SetTxFiFo+0x2c>
 8003e2c:	2300      	movs	r3, #0
 8003e2e:	f103 0040 	add.w	r0, r3, #64	; 0x40
 8003e32:	eb05 0080 	add.w	r0, r5, r0, lsl #2
 8003e36:	3301      	adds	r3, #1
 8003e38:	6840      	ldr	r0, [r0, #4]
 8003e3a:	b2db      	uxtb	r3, r3
 8003e3c:	428b      	cmp	r3, r1
 8003e3e:	eb04 4410 	add.w	r4, r4, r0, lsr #16
 8003e42:	d3f4      	bcc.n	8003e2e <HAL_PCDEx_SetTxFiFo+0x16>
 8003e44:	3140      	adds	r1, #64	; 0x40
 8003e46:	eb05 0181 	add.w	r1, r5, r1, lsl #2
 8003e4a:	4314      	orrs	r4, r2
 8003e4c:	604c      	str	r4, [r1, #4]
 8003e4e:	2000      	movs	r0, #0
 8003e50:	bc30      	pop	{r4, r5}
 8003e52:	4770      	bx	lr
 8003e54:	4314      	orrs	r4, r2
 8003e56:	62ac      	str	r4, [r5, #40]	; 0x28
 8003e58:	2000      	movs	r0, #0
 8003e5a:	bc30      	pop	{r4, r5}
 8003e5c:	4770      	bx	lr
 8003e5e:	bf00      	nop

08003e60 <HAL_PCDEx_SetRxFiFo>:
 8003e60:	6803      	ldr	r3, [r0, #0]
 8003e62:	2000      	movs	r0, #0
 8003e64:	6259      	str	r1, [r3, #36]	; 0x24
 8003e66:	4770      	bx	lr

08003e68 <HAL_PCDEx_LPM_Callback>:
 8003e68:	4770      	bx	lr
 8003e6a:	bf00      	nop

08003e6c <HAL_RCC_OscConfig>:
 8003e6c:	2800      	cmp	r0, #0
 8003e6e:	f000 8132 	beq.w	80040d6 <HAL_RCC_OscConfig+0x26a>
 8003e72:	e92d 41f0 	stmdb	sp!, {r4, r5, r6, r7, r8, lr}
 8003e76:	6803      	ldr	r3, [r0, #0]
 8003e78:	07dd      	lsls	r5, r3, #31
 8003e7a:	b082      	sub	sp, #8
 8003e7c:	4604      	mov	r4, r0
 8003e7e:	d52f      	bpl.n	8003ee0 <HAL_RCC_OscConfig+0x74>
 8003e80:	49ac      	ldr	r1, [pc, #688]	; (8004134 <HAL_RCC_OscConfig+0x2c8>)
 8003e82:	688a      	ldr	r2, [r1, #8]
 8003e84:	f002 020c 	and.w	r2, r2, #12
 8003e88:	2a04      	cmp	r2, #4
 8003e8a:	f000 80ea 	beq.w	8004062 <HAL_RCC_OscConfig+0x1f6>
 8003e8e:	688a      	ldr	r2, [r1, #8]
 8003e90:	f002 020c 	and.w	r2, r2, #12
 8003e94:	2a08      	cmp	r2, #8
 8003e96:	f000 80e0 	beq.w	800405a <HAL_RCC_OscConfig+0x1ee>
 8003e9a:	6863      	ldr	r3, [r4, #4]
 8003e9c:	f5b3 3f80 	cmp.w	r3, #65536	; 0x10000
 8003ea0:	f000 80e9 	beq.w	8004076 <HAL_RCC_OscConfig+0x20a>
 8003ea4:	f5b3 2fa0 	cmp.w	r3, #327680	; 0x50000
 8003ea8:	f000 8178 	beq.w	800419c <HAL_RCC_OscConfig+0x330>
 8003eac:	4da1      	ldr	r5, [pc, #644]	; (8004134 <HAL_RCC_OscConfig+0x2c8>)
 8003eae:	682a      	ldr	r2, [r5, #0]
 8003eb0:	f422 3280 	bic.w	r2, r2, #65536	; 0x10000
 8003eb4:	602a      	str	r2, [r5, #0]
 8003eb6:	682a      	ldr	r2, [r5, #0]
 8003eb8:	f422 2280 	bic.w	r2, r2, #262144	; 0x40000
 8003ebc:	602a      	str	r2, [r5, #0]
 8003ebe:	2b00      	cmp	r3, #0
 8003ec0:	f040 80de 	bne.w	8004080 <HAL_RCC_OscConfig+0x214>
 8003ec4:	f7fd f83e 	bl	8000f44 <HAL_GetTick>
 8003ec8:	4606      	mov	r6, r0
 8003eca:	e005      	b.n	8003ed8 <HAL_RCC_OscConfig+0x6c>
 8003ecc:	f7fd f83a 	bl	8000f44 <HAL_GetTick>
 8003ed0:	1b80      	subs	r0, r0, r6
 8003ed2:	2864      	cmp	r0, #100	; 0x64
 8003ed4:	f200 80f2 	bhi.w	80040bc <HAL_RCC_OscConfig+0x250>
 8003ed8:	682b      	ldr	r3, [r5, #0]
 8003eda:	039b      	lsls	r3, r3, #14
 8003edc:	d4f6      	bmi.n	8003ecc <HAL_RCC_OscConfig+0x60>
 8003ede:	6823      	ldr	r3, [r4, #0]
 8003ee0:	079f      	lsls	r7, r3, #30
 8003ee2:	d475      	bmi.n	8003fd0 <HAL_RCC_OscConfig+0x164>
 8003ee4:	071a      	lsls	r2, r3, #28
 8003ee6:	d515      	bpl.n	8003f14 <HAL_RCC_OscConfig+0xa8>
 8003ee8:	6963      	ldr	r3, [r4, #20]
 8003eea:	2b00      	cmp	r3, #0
 8003eec:	f000 80a5 	beq.w	800403a <HAL_RCC_OscConfig+0x1ce>
 8003ef0:	4b91      	ldr	r3, [pc, #580]	; (8004138 <HAL_RCC_OscConfig+0x2cc>)
 8003ef2:	4d90      	ldr	r5, [pc, #576]	; (8004134 <HAL_RCC_OscConfig+0x2c8>)
 8003ef4:	2201      	movs	r2, #1
 8003ef6:	601a      	str	r2, [r3, #0]
 8003ef8:	f7fd f824 	bl	8000f44 <HAL_GetTick>
 8003efc:	4606      	mov	r6, r0
 8003efe:	e005      	b.n	8003f0c <HAL_RCC_OscConfig+0xa0>
 8003f00:	f7fd f820 	bl	8000f44 <HAL_GetTick>
 8003f04:	1b80      	subs	r0, r0, r6
 8003f06:	2802      	cmp	r0, #2
 8003f08:	f200 80d8 	bhi.w	80040bc <HAL_RCC_OscConfig+0x250>
 8003f0c:	6f6b      	ldr	r3, [r5, #116]	; 0x74
 8003f0e:	079b      	lsls	r3, r3, #30
 8003f10:	d5f6      	bpl.n	8003f00 <HAL_RCC_OscConfig+0x94>
 8003f12:	6823      	ldr	r3, [r4, #0]
 8003f14:	0758      	lsls	r0, r3, #29
 8003f16:	d53b      	bpl.n	8003f90 <HAL_RCC_OscConfig+0x124>
 8003f18:	4a86      	ldr	r2, [pc, #536]	; (8004134 <HAL_RCC_OscConfig+0x2c8>)
 8003f1a:	6c13      	ldr	r3, [r2, #64]	; 0x40
 8003f1c:	f013 5380 	ands.w	r3, r3, #268435456	; 0x10000000
 8003f20:	f040 80db 	bne.w	80040da <HAL_RCC_OscConfig+0x26e>
 8003f24:	9301      	str	r3, [sp, #4]
 8003f26:	6c13      	ldr	r3, [r2, #64]	; 0x40
 8003f28:	f043 5380 	orr.w	r3, r3, #268435456	; 0x10000000
 8003f2c:	6413      	str	r3, [r2, #64]	; 0x40
 8003f2e:	6c13      	ldr	r3, [r2, #64]	; 0x40
 8003f30:	f003 5380 	and.w	r3, r3, #268435456	; 0x10000000
 8003f34:	9301      	str	r3, [sp, #4]
 8003f36:	9b01      	ldr	r3, [sp, #4]
 8003f38:	2601      	movs	r6, #1
 8003f3a:	4d80      	ldr	r5, [pc, #512]	; (800413c <HAL_RCC_OscConfig+0x2d0>)
 8003f3c:	682a      	ldr	r2, [r5, #0]
 8003f3e:	05d1      	lsls	r1, r2, #23
 8003f40:	f140 80ac 	bpl.w	800409c <HAL_RCC_OscConfig+0x230>
 8003f44:	68a3      	ldr	r3, [r4, #8]
 8003f46:	2b01      	cmp	r3, #1
 8003f48:	f000 80c9 	beq.w	80040de <HAL_RCC_OscConfig+0x272>
 8003f4c:	2b05      	cmp	r3, #5
 8003f4e:	f000 812f 	beq.w	80041b0 <HAL_RCC_OscConfig+0x344>
 8003f52:	4d78      	ldr	r5, [pc, #480]	; (8004134 <HAL_RCC_OscConfig+0x2c8>)
 8003f54:	6f2a      	ldr	r2, [r5, #112]	; 0x70
 8003f56:	f022 0201 	bic.w	r2, r2, #1
 8003f5a:	672a      	str	r2, [r5, #112]	; 0x70
 8003f5c:	6f2a      	ldr	r2, [r5, #112]	; 0x70
 8003f5e:	f022 0204 	bic.w	r2, r2, #4
 8003f62:	672a      	str	r2, [r5, #112]	; 0x70
 8003f64:	2b00      	cmp	r3, #0
 8003f66:	f040 80bf 	bne.w	80040e8 <HAL_RCC_OscConfig+0x27c>
 8003f6a:	f7fc ffeb 	bl	8000f44 <HAL_GetTick>
 8003f6e:	f241 3788 	movw	r7, #5000	; 0x1388
 8003f72:	4680      	mov	r8, r0
 8003f74:	e006      	b.n	8003f84 <HAL_RCC_OscConfig+0x118>
 8003f76:	f7fc ffe5 	bl	8000f44 <HAL_GetTick>
 8003f7a:	eba0 0008 	sub.w	r0, r0, r8
 8003f7e:	42b8      	cmp	r0, r7
 8003f80:	f200 809c 	bhi.w	80040bc <HAL_RCC_OscConfig+0x250>
 8003f84:	6f2b      	ldr	r3, [r5, #112]	; 0x70
 8003f86:	0798      	lsls	r0, r3, #30
 8003f88:	d4f5      	bmi.n	8003f76 <HAL_RCC_OscConfig+0x10a>
 8003f8a:	2e00      	cmp	r6, #0
 8003f8c:	f040 80dc 	bne.w	8004148 <HAL_RCC_OscConfig+0x2dc>
 8003f90:	69a0      	ldr	r0, [r4, #24]
 8003f92:	b1c8      	cbz	r0, 8003fc8 <HAL_RCC_OscConfig+0x15c>
 8003f94:	4d67      	ldr	r5, [pc, #412]	; (8004134 <HAL_RCC_OscConfig+0x2c8>)
 8003f96:	68aa      	ldr	r2, [r5, #8]
 8003f98:	f002 020c 	and.w	r2, r2, #12
 8003f9c:	2a08      	cmp	r2, #8
 8003f9e:	f000 80d9 	beq.w	8004154 <HAL_RCC_OscConfig+0x2e8>
 8003fa2:	4a67      	ldr	r2, [pc, #412]	; (8004140 <HAL_RCC_OscConfig+0x2d4>)
 8003fa4:	2100      	movs	r1, #0
 8003fa6:	2802      	cmp	r0, #2
 8003fa8:	6011      	str	r1, [r2, #0]
 8003faa:	f000 810b 	beq.w	80041c4 <HAL_RCC_OscConfig+0x358>
 8003fae:	f7fc ffc9 	bl	8000f44 <HAL_GetTick>
 8003fb2:	462c      	mov	r4, r5
 8003fb4:	4605      	mov	r5, r0
 8003fb6:	e004      	b.n	8003fc2 <HAL_RCC_OscConfig+0x156>
 8003fb8:	f7fc ffc4 	bl	8000f44 <HAL_GetTick>
 8003fbc:	1b40      	subs	r0, r0, r5
 8003fbe:	2802      	cmp	r0, #2
 8003fc0:	d87c      	bhi.n	80040bc <HAL_RCC_OscConfig+0x250>
 8003fc2:	6823      	ldr	r3, [r4, #0]
 8003fc4:	019b      	lsls	r3, r3, #6
 8003fc6:	d4f7      	bmi.n	8003fb8 <HAL_RCC_OscConfig+0x14c>
 8003fc8:	2000      	movs	r0, #0
 8003fca:	b002      	add	sp, #8
 8003fcc:	e8bd 81f0 	ldmia.w	sp!, {r4, r5, r6, r7, r8, pc}
 8003fd0:	4a58      	ldr	r2, [pc, #352]	; (8004134 <HAL_RCC_OscConfig+0x2c8>)
 8003fd2:	6891      	ldr	r1, [r2, #8]
 8003fd4:	f011 0f0c 	tst.w	r1, #12
 8003fd8:	d024      	beq.n	8004024 <HAL_RCC_OscConfig+0x1b8>
 8003fda:	6891      	ldr	r1, [r2, #8]
 8003fdc:	f001 010c 	and.w	r1, r1, #12
 8003fe0:	2908      	cmp	r1, #8
 8003fe2:	d01c      	beq.n	800401e <HAL_RCC_OscConfig+0x1b2>
 8003fe4:	68e3      	ldr	r3, [r4, #12]
 8003fe6:	2b00      	cmp	r3, #0
 8003fe8:	f000 8092 	beq.w	8004110 <HAL_RCC_OscConfig+0x2a4>
 8003fec:	4b55      	ldr	r3, [pc, #340]	; (8004144 <HAL_RCC_OscConfig+0x2d8>)
 8003fee:	4d51      	ldr	r5, [pc, #324]	; (8004134 <HAL_RCC_OscConfig+0x2c8>)
 8003ff0:	2201      	movs	r2, #1
 8003ff2:	601a      	str	r2, [r3, #0]
 8003ff4:	f7fc ffa6 	bl	8000f44 <HAL_GetTick>
 8003ff8:	4606      	mov	r6, r0
 8003ffa:	e004      	b.n	8004006 <HAL_RCC_OscConfig+0x19a>
 8003ffc:	f7fc ffa2 	bl	8000f44 <HAL_GetTick>
 8004000:	1b80      	subs	r0, r0, r6
 8004002:	2802      	cmp	r0, #2
 8004004:	d85a      	bhi.n	80040bc <HAL_RCC_OscConfig+0x250>
 8004006:	682b      	ldr	r3, [r5, #0]
 8004008:	0798      	lsls	r0, r3, #30
 800400a:	d5f7      	bpl.n	8003ffc <HAL_RCC_OscConfig+0x190>
 800400c:	682b      	ldr	r3, [r5, #0]
 800400e:	6922      	ldr	r2, [r4, #16]
 8004010:	f023 03f8 	bic.w	r3, r3, #248	; 0xf8
 8004014:	ea43 03c2 	orr.w	r3, r3, r2, lsl #3
 8004018:	602b      	str	r3, [r5, #0]
 800401a:	6823      	ldr	r3, [r4, #0]
 800401c:	e762      	b.n	8003ee4 <HAL_RCC_OscConfig+0x78>
 800401e:	6852      	ldr	r2, [r2, #4]
 8004020:	0256      	lsls	r6, r2, #9
 8004022:	d4df      	bmi.n	8003fe4 <HAL_RCC_OscConfig+0x178>
 8004024:	4a43      	ldr	r2, [pc, #268]	; (8004134 <HAL_RCC_OscConfig+0x2c8>)
 8004026:	6812      	ldr	r2, [r2, #0]
 8004028:	0795      	lsls	r5, r2, #30
 800402a:	d54b      	bpl.n	80040c4 <HAL_RCC_OscConfig+0x258>
 800402c:	68e2      	ldr	r2, [r4, #12]
 800402e:	2a01      	cmp	r2, #1
 8004030:	d048      	beq.n	80040c4 <HAL_RCC_OscConfig+0x258>
 8004032:	2001      	movs	r0, #1
 8004034:	b002      	add	sp, #8
 8004036:	e8bd 81f0 	ldmia.w	sp!, {r4, r5, r6, r7, r8, pc}
 800403a:	4a3f      	ldr	r2, [pc, #252]	; (8004138 <HAL_RCC_OscConfig+0x2cc>)
 800403c:	4d3d      	ldr	r5, [pc, #244]	; (8004134 <HAL_RCC_OscConfig+0x2c8>)
 800403e:	6013      	str	r3, [r2, #0]
 8004040:	f7fc ff80 	bl	8000f44 <HAL_GetTick>
 8004044:	4606      	mov	r6, r0
 8004046:	e004      	b.n	8004052 <HAL_RCC_OscConfig+0x1e6>
 8004048:	f7fc ff7c 	bl	8000f44 <HAL_GetTick>
 800404c:	1b80      	subs	r0, r0, r6
 800404e:	2802      	cmp	r0, #2
 8004050:	d834      	bhi.n	80040bc <HAL_RCC_OscConfig+0x250>
 8004052:	6f6b      	ldr	r3, [r5, #116]	; 0x74
 8004054:	079f      	lsls	r7, r3, #30
 8004056:	d4f7      	bmi.n	8004048 <HAL_RCC_OscConfig+0x1dc>
 8004058:	e75b      	b.n	8003f12 <HAL_RCC_OscConfig+0xa6>
 800405a:	684a      	ldr	r2, [r1, #4]
 800405c:	0250      	lsls	r0, r2, #9
 800405e:	f57f af1c 	bpl.w	8003e9a <HAL_RCC_OscConfig+0x2e>
 8004062:	4a34      	ldr	r2, [pc, #208]	; (8004134 <HAL_RCC_OscConfig+0x2c8>)
 8004064:	6812      	ldr	r2, [r2, #0]
 8004066:	0391      	lsls	r1, r2, #14
 8004068:	f57f af3a 	bpl.w	8003ee0 <HAL_RCC_OscConfig+0x74>
 800406c:	6862      	ldr	r2, [r4, #4]
 800406e:	2a00      	cmp	r2, #0
 8004070:	f47f af36 	bne.w	8003ee0 <HAL_RCC_OscConfig+0x74>
 8004074:	e7dd      	b.n	8004032 <HAL_RCC_OscConfig+0x1c6>
 8004076:	4a2f      	ldr	r2, [pc, #188]	; (8004134 <HAL_RCC_OscConfig+0x2c8>)
 8004078:	6813      	ldr	r3, [r2, #0]
 800407a:	f443 3380 	orr.w	r3, r3, #65536	; 0x10000
 800407e:	6013      	str	r3, [r2, #0]
 8004080:	f7fc ff60 	bl	8000f44 <HAL_GetTick>
 8004084:	4d2b      	ldr	r5, [pc, #172]	; (8004134 <HAL_RCC_OscConfig+0x2c8>)
 8004086:	4606      	mov	r6, r0
 8004088:	e004      	b.n	8004094 <HAL_RCC_OscConfig+0x228>
 800408a:	f7fc ff5b 	bl	8000f44 <HAL_GetTick>
 800408e:	1b80      	subs	r0, r0, r6
 8004090:	2864      	cmp	r0, #100	; 0x64
 8004092:	d813      	bhi.n	80040bc <HAL_RCC_OscConfig+0x250>
 8004094:	682b      	ldr	r3, [r5, #0]
 8004096:	039a      	lsls	r2, r3, #14
 8004098:	d5f7      	bpl.n	800408a <HAL_RCC_OscConfig+0x21e>
 800409a:	e720      	b.n	8003ede <HAL_RCC_OscConfig+0x72>
 800409c:	682a      	ldr	r2, [r5, #0]
 800409e:	f442 7280 	orr.w	r2, r2, #256	; 0x100
 80040a2:	602a      	str	r2, [r5, #0]
 80040a4:	f7fc ff4e 	bl	8000f44 <HAL_GetTick>
 80040a8:	4607      	mov	r7, r0
 80040aa:	682b      	ldr	r3, [r5, #0]
 80040ac:	05da      	lsls	r2, r3, #23
 80040ae:	f53f af49 	bmi.w	8003f44 <HAL_RCC_OscConfig+0xd8>
 80040b2:	f7fc ff47 	bl	8000f44 <HAL_GetTick>
 80040b6:	1bc0      	subs	r0, r0, r7
 80040b8:	2802      	cmp	r0, #2
 80040ba:	d9f6      	bls.n	80040aa <HAL_RCC_OscConfig+0x23e>
 80040bc:	2003      	movs	r0, #3
 80040be:	b002      	add	sp, #8
 80040c0:	e8bd 81f0 	ldmia.w	sp!, {r4, r5, r6, r7, r8, pc}
 80040c4:	491b      	ldr	r1, [pc, #108]	; (8004134 <HAL_RCC_OscConfig+0x2c8>)
 80040c6:	6920      	ldr	r0, [r4, #16]
 80040c8:	680a      	ldr	r2, [r1, #0]
 80040ca:	f022 02f8 	bic.w	r2, r2, #248	; 0xf8
 80040ce:	ea42 02c0 	orr.w	r2, r2, r0, lsl #3
 80040d2:	600a      	str	r2, [r1, #0]
 80040d4:	e706      	b.n	8003ee4 <HAL_RCC_OscConfig+0x78>
 80040d6:	2001      	movs	r0, #1
 80040d8:	4770      	bx	lr
 80040da:	2600      	movs	r6, #0
 80040dc:	e72d      	b.n	8003f3a <HAL_RCC_OscConfig+0xce>
 80040de:	4a15      	ldr	r2, [pc, #84]	; (8004134 <HAL_RCC_OscConfig+0x2c8>)
 80040e0:	6f13      	ldr	r3, [r2, #112]	; 0x70
 80040e2:	f043 0301 	orr.w	r3, r3, #1
 80040e6:	6713      	str	r3, [r2, #112]	; 0x70
 80040e8:	f7fc ff2c 	bl	8000f44 <HAL_GetTick>
 80040ec:	4d11      	ldr	r5, [pc, #68]	; (8004134 <HAL_RCC_OscConfig+0x2c8>)
 80040ee:	4680      	mov	r8, r0
 80040f0:	f241 3788 	movw	r7, #5000	; 0x1388
 80040f4:	e005      	b.n	8004102 <HAL_RCC_OscConfig+0x296>
 80040f6:	f7fc ff25 	bl	8000f44 <HAL_GetTick>
 80040fa:	eba0 0008 	sub.w	r0, r0, r8
 80040fe:	42b8      	cmp	r0, r7
 8004100:	d8dc      	bhi.n	80040bc <HAL_RCC_OscConfig+0x250>
 8004102:	6f2b      	ldr	r3, [r5, #112]	; 0x70
 8004104:	079b      	lsls	r3, r3, #30
 8004106:	d5f6      	bpl.n	80040f6 <HAL_RCC_OscConfig+0x28a>
 8004108:	2e00      	cmp	r6, #0
 800410a:	f43f af41 	beq.w	8003f90 <HAL_RCC_OscConfig+0x124>
 800410e:	e01b      	b.n	8004148 <HAL_RCC_OscConfig+0x2dc>
 8004110:	4a0c      	ldr	r2, [pc, #48]	; (8004144 <HAL_RCC_OscConfig+0x2d8>)
 8004112:	4d08      	ldr	r5, [pc, #32]	; (8004134 <HAL_RCC_OscConfig+0x2c8>)
 8004114:	6013      	str	r3, [r2, #0]
 8004116:	f7fc ff15 	bl	8000f44 <HAL_GetTick>
 800411a:	4606      	mov	r6, r0
 800411c:	e004      	b.n	8004128 <HAL_RCC_OscConfig+0x2bc>
 800411e:	f7fc ff11 	bl	8000f44 <HAL_GetTick>
 8004122:	1b80      	subs	r0, r0, r6
 8004124:	2802      	cmp	r0, #2
 8004126:	d8c9      	bhi.n	80040bc <HAL_RCC_OscConfig+0x250>
 8004128:	682b      	ldr	r3, [r5, #0]
 800412a:	0799      	lsls	r1, r3, #30
 800412c:	d4f7      	bmi.n	800411e <HAL_RCC_OscConfig+0x2b2>
 800412e:	6823      	ldr	r3, [r4, #0]
 8004130:	e6d8      	b.n	8003ee4 <HAL_RCC_OscConfig+0x78>
 8004132:	bf00      	nop
 8004134:	40023800 	.word	0x40023800
 8004138:	42470e80 	.word	0x42470e80
 800413c:	40007000 	.word	0x40007000
 8004140:	42470060 	.word	0x42470060
 8004144:	42470000 	.word	0x42470000
 8004148:	4a35      	ldr	r2, [pc, #212]	; (8004220 <HAL_RCC_OscConfig+0x3b4>)
 800414a:	6c13      	ldr	r3, [r2, #64]	; 0x40
 800414c:	f023 5380 	bic.w	r3, r3, #268435456	; 0x10000000
 8004150:	6413      	str	r3, [r2, #64]	; 0x40
 8004152:	e71d      	b.n	8003f90 <HAL_RCC_OscConfig+0x124>
 8004154:	2801      	cmp	r0, #1
 8004156:	f43f af6d 	beq.w	8004034 <HAL_RCC_OscConfig+0x1c8>
 800415a:	686b      	ldr	r3, [r5, #4]
 800415c:	69e2      	ldr	r2, [r4, #28]
 800415e:	f403 0180 	and.w	r1, r3, #4194304	; 0x400000
 8004162:	4291      	cmp	r1, r2
 8004164:	f47f af65 	bne.w	8004032 <HAL_RCC_OscConfig+0x1c6>
 8004168:	6a22      	ldr	r2, [r4, #32]
 800416a:	f003 013f 	and.w	r1, r3, #63	; 0x3f
 800416e:	4291      	cmp	r1, r2
 8004170:	f47f af5f 	bne.w	8004032 <HAL_RCC_OscConfig+0x1c6>
 8004174:	f647 72c0 	movw	r2, #32704	; 0x7fc0
 8004178:	6a61      	ldr	r1, [r4, #36]	; 0x24
 800417a:	401a      	ands	r2, r3
 800417c:	428a      	cmp	r2, r1
 800417e:	f47f af58 	bne.w	8004032 <HAL_RCC_OscConfig+0x1c6>
 8004182:	6aa2      	ldr	r2, [r4, #40]	; 0x28
 8004184:	f403 3140 	and.w	r1, r3, #196608	; 0x30000
 8004188:	4291      	cmp	r1, r2
 800418a:	f47f af52 	bne.w	8004032 <HAL_RCC_OscConfig+0x1c6>
 800418e:	6ae0      	ldr	r0, [r4, #44]	; 0x2c
 8004190:	f003 6370 	and.w	r3, r3, #251658240	; 0xf000000
 8004194:	1a18      	subs	r0, r3, r0
 8004196:	bf18      	it	ne
 8004198:	2001      	movne	r0, #1
 800419a:	e74b      	b.n	8004034 <HAL_RCC_OscConfig+0x1c8>
 800419c:	4b20      	ldr	r3, [pc, #128]	; (8004220 <HAL_RCC_OscConfig+0x3b4>)
 800419e:	681a      	ldr	r2, [r3, #0]
 80041a0:	f442 2280 	orr.w	r2, r2, #262144	; 0x40000
 80041a4:	601a      	str	r2, [r3, #0]
 80041a6:	681a      	ldr	r2, [r3, #0]
 80041a8:	f442 3280 	orr.w	r2, r2, #65536	; 0x10000
 80041ac:	601a      	str	r2, [r3, #0]
 80041ae:	e767      	b.n	8004080 <HAL_RCC_OscConfig+0x214>
 80041b0:	4b1b      	ldr	r3, [pc, #108]	; (8004220 <HAL_RCC_OscConfig+0x3b4>)
 80041b2:	6f1a      	ldr	r2, [r3, #112]	; 0x70
 80041b4:	f042 0204 	orr.w	r2, r2, #4
 80041b8:	671a      	str	r2, [r3, #112]	; 0x70
 80041ba:	6f1a      	ldr	r2, [r3, #112]	; 0x70
 80041bc:	f042 0201 	orr.w	r2, r2, #1
 80041c0:	671a      	str	r2, [r3, #112]	; 0x70
 80041c2:	e791      	b.n	80040e8 <HAL_RCC_OscConfig+0x27c>
 80041c4:	f7fc febe 	bl	8000f44 <HAL_GetTick>
 80041c8:	4606      	mov	r6, r0
 80041ca:	e005      	b.n	80041d8 <HAL_RCC_OscConfig+0x36c>
 80041cc:	f7fc feba 	bl	8000f44 <HAL_GetTick>
 80041d0:	1b80      	subs	r0, r0, r6
 80041d2:	2802      	cmp	r0, #2
 80041d4:	f63f af72 	bhi.w	80040bc <HAL_RCC_OscConfig+0x250>
 80041d8:	682b      	ldr	r3, [r5, #0]
 80041da:	0199      	lsls	r1, r3, #6
 80041dc:	d4f6      	bmi.n	80041cc <HAL_RCC_OscConfig+0x360>
 80041de:	e9d4 3607 	ldrd	r3, r6, [r4, #28]
 80041e2:	e9d4 0209 	ldrd	r0, r2, [r4, #36]	; 0x24
 80041e6:	6ae1      	ldr	r1, [r4, #44]	; 0x2c
 80041e8:	4c0d      	ldr	r4, [pc, #52]	; (8004220 <HAL_RCC_OscConfig+0x3b4>)
 80041ea:	4333      	orrs	r3, r6
 80041ec:	ea43 1380 	orr.w	r3, r3, r0, lsl #6
 80041f0:	0852      	lsrs	r2, r2, #1
 80041f2:	ea43 6301 	orr.w	r3, r3, r1, lsl #24
 80041f6:	3a01      	subs	r2, #1
 80041f8:	490a      	ldr	r1, [pc, #40]	; (8004224 <HAL_RCC_OscConfig+0x3b8>)
 80041fa:	ea43 4302 	orr.w	r3, r3, r2, lsl #16
 80041fe:	2201      	movs	r2, #1
 8004200:	606b      	str	r3, [r5, #4]
 8004202:	600a      	str	r2, [r1, #0]
 8004204:	f7fc fe9e 	bl	8000f44 <HAL_GetTick>
 8004208:	4605      	mov	r5, r0
 800420a:	e005      	b.n	8004218 <HAL_RCC_OscConfig+0x3ac>
 800420c:	f7fc fe9a 	bl	8000f44 <HAL_GetTick>
 8004210:	1b40      	subs	r0, r0, r5
 8004212:	2802      	cmp	r0, #2
 8004214:	f63f af52 	bhi.w	80040bc <HAL_RCC_OscConfig+0x250>
 8004218:	6823      	ldr	r3, [r4, #0]
 800421a:	019a      	lsls	r2, r3, #6
 800421c:	d5f6      	bpl.n	800420c <HAL_RCC_OscConfig+0x3a0>
 800421e:	e6d3      	b.n	8003fc8 <HAL_RCC_OscConfig+0x15c>
 8004220:	40023800 	.word	0x40023800
 8004224:	42470060 	.word	0x42470060

08004228 <HAL_RCC_GetSysClockFreq>:
 8004228:	4917      	ldr	r1, [pc, #92]	; (8004288 <HAL_RCC_GetSysClockFreq+0x60>)
 800422a:	b508      	push	{r3, lr}
 800422c:	688b      	ldr	r3, [r1, #8]
 800422e:	f003 030c 	and.w	r3, r3, #12
 8004232:	2b04      	cmp	r3, #4
 8004234:	d01b      	beq.n	800426e <HAL_RCC_GetSysClockFreq+0x46>
 8004236:	2b08      	cmp	r3, #8
 8004238:	d117      	bne.n	800426a <HAL_RCC_GetSysClockFreq+0x42>
 800423a:	684a      	ldr	r2, [r1, #4]
 800423c:	684b      	ldr	r3, [r1, #4]
 800423e:	f413 0380 	ands.w	r3, r3, #4194304	; 0x400000
 8004242:	f002 023f 	and.w	r2, r2, #63	; 0x3f
 8004246:	d114      	bne.n	8004272 <HAL_RCC_GetSysClockFreq+0x4a>
 8004248:	6849      	ldr	r1, [r1, #4]
 800424a:	4810      	ldr	r0, [pc, #64]	; (800428c <HAL_RCC_GetSysClockFreq+0x64>)
 800424c:	f3c1 1188 	ubfx	r1, r1, #6, #9
 8004250:	fba1 0100 	umull	r0, r1, r1, r0
 8004254:	f7fc fcac 	bl	8000bb0 <__aeabi_uldivmod>
 8004258:	4b0b      	ldr	r3, [pc, #44]	; (8004288 <HAL_RCC_GetSysClockFreq+0x60>)
 800425a:	685b      	ldr	r3, [r3, #4]
 800425c:	f3c3 4301 	ubfx	r3, r3, #16, #2
 8004260:	3301      	adds	r3, #1
 8004262:	005b      	lsls	r3, r3, #1
 8004264:	fbb0 f0f3 	udiv	r0, r0, r3
 8004268:	bd08      	pop	{r3, pc}
 800426a:	4808      	ldr	r0, [pc, #32]	; (800428c <HAL_RCC_GetSysClockFreq+0x64>)
 800426c:	bd08      	pop	{r3, pc}
 800426e:	4808      	ldr	r0, [pc, #32]	; (8004290 <HAL_RCC_GetSysClockFreq+0x68>)
 8004270:	bd08      	pop	{r3, pc}
 8004272:	684b      	ldr	r3, [r1, #4]
 8004274:	4806      	ldr	r0, [pc, #24]	; (8004290 <HAL_RCC_GetSysClockFreq+0x68>)
 8004276:	f3c3 1388 	ubfx	r3, r3, #6, #9
 800427a:	fba3 0100 	umull	r0, r1, r3, r0
 800427e:	2300      	movs	r3, #0
 8004280:	f7fc fc96 	bl	8000bb0 <__aeabi_uldivmod>
 8004284:	e7e8      	b.n	8004258 <HAL_RCC_GetSysClockFreq+0x30>
 8004286:	bf00      	nop
 8004288:	40023800 	.word	0x40023800
 800428c:	00f42400 	.word	0x00f42400
 8004290:	00bb8000 	.word	0x00bb8000

08004294 <HAL_RCC_ClockConfig>:
 8004294:	b160      	cbz	r0, 80042b0 <HAL_RCC_ClockConfig+0x1c>
 8004296:	4a49      	ldr	r2, [pc, #292]	; (80043bc <HAL_RCC_ClockConfig+0x128>)
 8004298:	6813      	ldr	r3, [r2, #0]
 800429a:	f003 030f 	and.w	r3, r3, #15
 800429e:	428b      	cmp	r3, r1
 80042a0:	d208      	bcs.n	80042b4 <HAL_RCC_ClockConfig+0x20>
 80042a2:	b2cb      	uxtb	r3, r1
 80042a4:	7013      	strb	r3, [r2, #0]
 80042a6:	6813      	ldr	r3, [r2, #0]
 80042a8:	f003 030f 	and.w	r3, r3, #15
 80042ac:	428b      	cmp	r3, r1
 80042ae:	d001      	beq.n	80042b4 <HAL_RCC_ClockConfig+0x20>
 80042b0:	2001      	movs	r0, #1
 80042b2:	4770      	bx	lr
 80042b4:	6803      	ldr	r3, [r0, #0]
 80042b6:	e92d 41f0 	stmdb	sp!, {r4, r5, r6, r7, r8, lr}
 80042ba:	079d      	lsls	r5, r3, #30
 80042bc:	d514      	bpl.n	80042e8 <HAL_RCC_ClockConfig+0x54>
 80042be:	075c      	lsls	r4, r3, #29
 80042c0:	d504      	bpl.n	80042cc <HAL_RCC_ClockConfig+0x38>
 80042c2:	4c3f      	ldr	r4, [pc, #252]	; (80043c0 <HAL_RCC_ClockConfig+0x12c>)
 80042c4:	68a2      	ldr	r2, [r4, #8]
 80042c6:	f442 52e0 	orr.w	r2, r2, #7168	; 0x1c00
 80042ca:	60a2      	str	r2, [r4, #8]
 80042cc:	071a      	lsls	r2, r3, #28
 80042ce:	d504      	bpl.n	80042da <HAL_RCC_ClockConfig+0x46>
 80042d0:	4c3b      	ldr	r4, [pc, #236]	; (80043c0 <HAL_RCC_ClockConfig+0x12c>)
 80042d2:	68a2      	ldr	r2, [r4, #8]
 80042d4:	f442 4260 	orr.w	r2, r2, #57344	; 0xe000
 80042d8:	60a2      	str	r2, [r4, #8]
 80042da:	4c39      	ldr	r4, [pc, #228]	; (80043c0 <HAL_RCC_ClockConfig+0x12c>)
 80042dc:	6885      	ldr	r5, [r0, #8]
 80042de:	68a2      	ldr	r2, [r4, #8]
 80042e0:	f022 02f0 	bic.w	r2, r2, #240	; 0xf0
 80042e4:	432a      	orrs	r2, r5
 80042e6:	60a2      	str	r2, [r4, #8]
 80042e8:	07df      	lsls	r7, r3, #31
 80042ea:	4604      	mov	r4, r0
 80042ec:	460d      	mov	r5, r1
 80042ee:	d522      	bpl.n	8004336 <HAL_RCC_ClockConfig+0xa2>
 80042f0:	6842      	ldr	r2, [r0, #4]
 80042f2:	2a01      	cmp	r2, #1
 80042f4:	d057      	beq.n	80043a6 <HAL_RCC_ClockConfig+0x112>
 80042f6:	1e93      	subs	r3, r2, #2
 80042f8:	2b01      	cmp	r3, #1
 80042fa:	4b31      	ldr	r3, [pc, #196]	; (80043c0 <HAL_RCC_ClockConfig+0x12c>)
 80042fc:	681b      	ldr	r3, [r3, #0]
 80042fe:	d959      	bls.n	80043b4 <HAL_RCC_ClockConfig+0x120>
 8004300:	0799      	lsls	r1, r3, #30
 8004302:	d525      	bpl.n	8004350 <HAL_RCC_ClockConfig+0xbc>
 8004304:	4e2e      	ldr	r6, [pc, #184]	; (80043c0 <HAL_RCC_ClockConfig+0x12c>)
 8004306:	68b3      	ldr	r3, [r6, #8]
 8004308:	f023 0303 	bic.w	r3, r3, #3
 800430c:	4313      	orrs	r3, r2
 800430e:	60b3      	str	r3, [r6, #8]
 8004310:	f7fc fe18 	bl	8000f44 <HAL_GetTick>
 8004314:	f241 3788 	movw	r7, #5000	; 0x1388
 8004318:	4680      	mov	r8, r0
 800431a:	e005      	b.n	8004328 <HAL_RCC_ClockConfig+0x94>
 800431c:	f7fc fe12 	bl	8000f44 <HAL_GetTick>
 8004320:	eba0 0008 	sub.w	r0, r0, r8
 8004324:	42b8      	cmp	r0, r7
 8004326:	d843      	bhi.n	80043b0 <HAL_RCC_ClockConfig+0x11c>
 8004328:	68b3      	ldr	r3, [r6, #8]
 800432a:	6862      	ldr	r2, [r4, #4]
 800432c:	f003 030c 	and.w	r3, r3, #12
 8004330:	ebb3 0f82 	cmp.w	r3, r2, lsl #2
 8004334:	d1f2      	bne.n	800431c <HAL_RCC_ClockConfig+0x88>
 8004336:	4a21      	ldr	r2, [pc, #132]	; (80043bc <HAL_RCC_ClockConfig+0x128>)
 8004338:	6813      	ldr	r3, [r2, #0]
 800433a:	f003 030f 	and.w	r3, r3, #15
 800433e:	42ab      	cmp	r3, r5
 8004340:	d909      	bls.n	8004356 <HAL_RCC_ClockConfig+0xc2>
 8004342:	b2eb      	uxtb	r3, r5
 8004344:	7013      	strb	r3, [r2, #0]
 8004346:	6813      	ldr	r3, [r2, #0]
 8004348:	f003 030f 	and.w	r3, r3, #15
 800434c:	42ab      	cmp	r3, r5
 800434e:	d002      	beq.n	8004356 <HAL_RCC_ClockConfig+0xc2>
 8004350:	2001      	movs	r0, #1
 8004352:	e8bd 81f0 	ldmia.w	sp!, {r4, r5, r6, r7, r8, pc}
 8004356:	6823      	ldr	r3, [r4, #0]
 8004358:	075a      	lsls	r2, r3, #29
 800435a:	d506      	bpl.n	800436a <HAL_RCC_ClockConfig+0xd6>
 800435c:	4918      	ldr	r1, [pc, #96]	; (80043c0 <HAL_RCC_ClockConfig+0x12c>)
 800435e:	68e0      	ldr	r0, [r4, #12]
 8004360:	688a      	ldr	r2, [r1, #8]
 8004362:	f422 52e0 	bic.w	r2, r2, #7168	; 0x1c00
 8004366:	4302      	orrs	r2, r0
 8004368:	608a      	str	r2, [r1, #8]
 800436a:	071b      	lsls	r3, r3, #28
 800436c:	d412      	bmi.n	8004394 <HAL_RCC_ClockConfig+0x100>
 800436e:	f7ff ff5b 	bl	8004228 <HAL_RCC_GetSysClockFreq>
 8004372:	4b13      	ldr	r3, [pc, #76]	; (80043c0 <HAL_RCC_ClockConfig+0x12c>)
 8004374:	4c13      	ldr	r4, [pc, #76]	; (80043c4 <HAL_RCC_ClockConfig+0x130>)
 8004376:	689b      	ldr	r3, [r3, #8]
 8004378:	4913      	ldr	r1, [pc, #76]	; (80043c8 <HAL_RCC_ClockConfig+0x134>)
 800437a:	4a14      	ldr	r2, [pc, #80]	; (80043cc <HAL_RCC_ClockConfig+0x138>)
 800437c:	f3c3 1303 	ubfx	r3, r3, #4, #4
 8004380:	5ce3      	ldrb	r3, [r4, r3]
 8004382:	fa20 f303 	lsr.w	r3, r0, r3
 8004386:	6808      	ldr	r0, [r1, #0]
 8004388:	6013      	str	r3, [r2, #0]
 800438a:	f7fc fd91 	bl	8000eb0 <HAL_InitTick>
 800438e:	2000      	movs	r0, #0
 8004390:	e8bd 81f0 	ldmia.w	sp!, {r4, r5, r6, r7, r8, pc}
 8004394:	4a0a      	ldr	r2, [pc, #40]	; (80043c0 <HAL_RCC_ClockConfig+0x12c>)
 8004396:	6921      	ldr	r1, [r4, #16]
 8004398:	6893      	ldr	r3, [r2, #8]
 800439a:	f423 4360 	bic.w	r3, r3, #57344	; 0xe000
 800439e:	ea43 03c1 	orr.w	r3, r3, r1, lsl #3
 80043a2:	6093      	str	r3, [r2, #8]
 80043a4:	e7e3      	b.n	800436e <HAL_RCC_ClockConfig+0xda>
 80043a6:	4b06      	ldr	r3, [pc, #24]	; (80043c0 <HAL_RCC_ClockConfig+0x12c>)
 80043a8:	681b      	ldr	r3, [r3, #0]
 80043aa:	039e      	lsls	r6, r3, #14
 80043ac:	d4aa      	bmi.n	8004304 <HAL_RCC_ClockConfig+0x70>
 80043ae:	e7cf      	b.n	8004350 <HAL_RCC_ClockConfig+0xbc>
 80043b0:	2003      	movs	r0, #3
 80043b2:	e7ed      	b.n	8004390 <HAL_RCC_ClockConfig+0xfc>
 80043b4:	0198      	lsls	r0, r3, #6
 80043b6:	d4a5      	bmi.n	8004304 <HAL_RCC_ClockConfig+0x70>
 80043b8:	e7ca      	b.n	8004350 <HAL_RCC_ClockConfig+0xbc>
 80043ba:	bf00      	nop
 80043bc:	40023c00 	.word	0x40023c00
 80043c0:	40023800 	.word	0x40023800
 80043c4:	0800a930 	.word	0x0800a930
 80043c8:	20000004 	.word	0x20000004
 80043cc:	20000128 	.word	0x20000128

080043d0 <HAL_RCC_GetHCLKFreq>:
 80043d0:	4b01      	ldr	r3, [pc, #4]	; (80043d8 <HAL_RCC_GetHCLKFreq+0x8>)
 80043d2:	6818      	ldr	r0, [r3, #0]
 80043d4:	4770      	bx	lr
 80043d6:	bf00      	nop
 80043d8:	20000128 	.word	0x20000128

080043dc <HAL_RCC_GetPCLK1Freq>:
 80043dc:	4b04      	ldr	r3, [pc, #16]	; (80043f0 <HAL_RCC_GetPCLK1Freq+0x14>)
 80043de:	4a05      	ldr	r2, [pc, #20]	; (80043f4 <HAL_RCC_GetPCLK1Freq+0x18>)
 80043e0:	689b      	ldr	r3, [r3, #8]
 80043e2:	4905      	ldr	r1, [pc, #20]	; (80043f8 <HAL_RCC_GetPCLK1Freq+0x1c>)
 80043e4:	f3c3 2382 	ubfx	r3, r3, #10, #3
 80043e8:	6808      	ldr	r0, [r1, #0]
 80043ea:	5cd3      	ldrb	r3, [r2, r3]
 80043ec:	40d8      	lsrs	r0, r3
 80043ee:	4770      	bx	lr
 80043f0:	40023800 	.word	0x40023800
 80043f4:	0800a940 	.word	0x0800a940
 80043f8:	20000128 	.word	0x20000128

080043fc <HAL_RCCEx_PeriphCLKConfig>:
 80043fc:	b5f0      	push	{r4, r5, r6, r7, lr}
 80043fe:	4604      	mov	r4, r0
 8004400:	6800      	ldr	r0, [r0, #0]
 8004402:	f010 0f05 	tst.w	r0, #5
 8004406:	b083      	sub	sp, #12
 8004408:	d10a      	bne.n	8004420 <HAL_RCCEx_PeriphCLKConfig+0x24>
 800440a:	0785      	lsls	r5, r0, #30
 800440c:	d442      	bmi.n	8004494 <HAL_RCCEx_PeriphCLKConfig+0x98>
 800440e:	f010 0008 	ands.w	r0, r0, #8
 8004412:	d003      	beq.n	800441c <HAL_RCCEx_PeriphCLKConfig+0x20>
 8004414:	4b48      	ldr	r3, [pc, #288]	; (8004538 <HAL_RCCEx_PeriphCLKConfig+0x13c>)
 8004416:	7c22      	ldrb	r2, [r4, #16]
 8004418:	601a      	str	r2, [r3, #0]
 800441a:	2000      	movs	r0, #0
 800441c:	b003      	add	sp, #12
 800441e:	bdf0      	pop	{r4, r5, r6, r7, pc}
 8004420:	4b46      	ldr	r3, [pc, #280]	; (800453c <HAL_RCCEx_PeriphCLKConfig+0x140>)
 8004422:	4d47      	ldr	r5, [pc, #284]	; (8004540 <HAL_RCCEx_PeriphCLKConfig+0x144>)
 8004424:	2200      	movs	r2, #0
 8004426:	601a      	str	r2, [r3, #0]
 8004428:	f7fc fd8c 	bl	8000f44 <HAL_GetTick>
 800442c:	4606      	mov	r6, r0
 800442e:	e004      	b.n	800443a <HAL_RCCEx_PeriphCLKConfig+0x3e>
 8004430:	f7fc fd88 	bl	8000f44 <HAL_GetTick>
 8004434:	1b80      	subs	r0, r0, r6
 8004436:	2802      	cmp	r0, #2
 8004438:	d829      	bhi.n	800448e <HAL_RCCEx_PeriphCLKConfig+0x92>
 800443a:	682b      	ldr	r3, [r5, #0]
 800443c:	011b      	lsls	r3, r3, #4
 800443e:	d4f7      	bmi.n	8004430 <HAL_RCCEx_PeriphCLKConfig+0x34>
 8004440:	e9d4 1301 	ldrd	r1, r3, [r4, #4]
 8004444:	4a3d      	ldr	r2, [pc, #244]	; (800453c <HAL_RCCEx_PeriphCLKConfig+0x140>)
 8004446:	4e3e      	ldr	r6, [pc, #248]	; (8004540 <HAL_RCCEx_PeriphCLKConfig+0x144>)
 8004448:	071b      	lsls	r3, r3, #28
 800444a:	ea43 1381 	orr.w	r3, r3, r1, lsl #6
 800444e:	2101      	movs	r1, #1
 8004450:	f8c5 3084 	str.w	r3, [r5, #132]	; 0x84
 8004454:	6011      	str	r1, [r2, #0]
 8004456:	f7fc fd75 	bl	8000f44 <HAL_GetTick>
 800445a:	4605      	mov	r5, r0
 800445c:	e004      	b.n	8004468 <HAL_RCCEx_PeriphCLKConfig+0x6c>
 800445e:	f7fc fd71 	bl	8000f44 <HAL_GetTick>
 8004462:	1b40      	subs	r0, r0, r5
 8004464:	2802      	cmp	r0, #2
 8004466:	d812      	bhi.n	800448e <HAL_RCCEx_PeriphCLKConfig+0x92>
 8004468:	6833      	ldr	r3, [r6, #0]
 800446a:	011f      	lsls	r7, r3, #4
 800446c:	d5f7      	bpl.n	800445e <HAL_RCCEx_PeriphCLKConfig+0x62>
 800446e:	6820      	ldr	r0, [r4, #0]
 8004470:	e7cb      	b.n	800440a <HAL_RCCEx_PeriphCLKConfig+0xe>
 8004472:	460d      	mov	r5, r1
 8004474:	f7fc fd66 	bl	8000f44 <HAL_GetTick>
 8004478:	f241 3688 	movw	r6, #5000	; 0x1388
 800447c:	4607      	mov	r7, r0
 800447e:	6f2b      	ldr	r3, [r5, #112]	; 0x70
 8004480:	079b      	lsls	r3, r3, #30
 8004482:	d43a      	bmi.n	80044fa <HAL_RCCEx_PeriphCLKConfig+0xfe>
 8004484:	f7fc fd5e 	bl	8000f44 <HAL_GetTick>
 8004488:	1bc0      	subs	r0, r0, r7
 800448a:	42b0      	cmp	r0, r6
 800448c:	d9f7      	bls.n	800447e <HAL_RCCEx_PeriphCLKConfig+0x82>
 800448e:	2003      	movs	r0, #3
 8004490:	b003      	add	sp, #12
 8004492:	bdf0      	pop	{r4, r5, r6, r7, pc}
 8004494:	4b2a      	ldr	r3, [pc, #168]	; (8004540 <HAL_RCCEx_PeriphCLKConfig+0x144>)
 8004496:	4d2b      	ldr	r5, [pc, #172]	; (8004544 <HAL_RCCEx_PeriphCLKConfig+0x148>)
 8004498:	2200      	movs	r2, #0
 800449a:	9201      	str	r2, [sp, #4]
 800449c:	6c1a      	ldr	r2, [r3, #64]	; 0x40
 800449e:	f042 5280 	orr.w	r2, r2, #268435456	; 0x10000000
 80044a2:	641a      	str	r2, [r3, #64]	; 0x40
 80044a4:	6c1b      	ldr	r3, [r3, #64]	; 0x40
 80044a6:	f003 5380 	and.w	r3, r3, #268435456	; 0x10000000
 80044aa:	9301      	str	r3, [sp, #4]
 80044ac:	9b01      	ldr	r3, [sp, #4]
 80044ae:	682b      	ldr	r3, [r5, #0]
 80044b0:	f443 7380 	orr.w	r3, r3, #256	; 0x100
 80044b4:	602b      	str	r3, [r5, #0]
 80044b6:	f7fc fd45 	bl	8000f44 <HAL_GetTick>
 80044ba:	4606      	mov	r6, r0
 80044bc:	e004      	b.n	80044c8 <HAL_RCCEx_PeriphCLKConfig+0xcc>
 80044be:	f7fc fd41 	bl	8000f44 <HAL_GetTick>
 80044c2:	1b80      	subs	r0, r0, r6
 80044c4:	2802      	cmp	r0, #2
 80044c6:	d8e2      	bhi.n	800448e <HAL_RCCEx_PeriphCLKConfig+0x92>
 80044c8:	682b      	ldr	r3, [r5, #0]
 80044ca:	05d9      	lsls	r1, r3, #23
 80044cc:	d5f7      	bpl.n	80044be <HAL_RCCEx_PeriphCLKConfig+0xc2>
 80044ce:	491c      	ldr	r1, [pc, #112]	; (8004540 <HAL_RCCEx_PeriphCLKConfig+0x144>)
 80044d0:	68e3      	ldr	r3, [r4, #12]
 80044d2:	6f0a      	ldr	r2, [r1, #112]	; 0x70
 80044d4:	f412 7240 	ands.w	r2, r2, #768	; 0x300
 80044d8:	f403 7040 	and.w	r0, r3, #768	; 0x300
 80044dc:	d010      	beq.n	8004500 <HAL_RCCEx_PeriphCLKConfig+0x104>
 80044de:	4282      	cmp	r2, r0
 80044e0:	d00e      	beq.n	8004500 <HAL_RCCEx_PeriphCLKConfig+0x104>
 80044e2:	6f0b      	ldr	r3, [r1, #112]	; 0x70
 80044e4:	4a18      	ldr	r2, [pc, #96]	; (8004548 <HAL_RCCEx_PeriphCLKConfig+0x14c>)
 80044e6:	f423 7340 	bic.w	r3, r3, #768	; 0x300
 80044ea:	2501      	movs	r5, #1
 80044ec:	2000      	movs	r0, #0
 80044ee:	6015      	str	r5, [r2, #0]
 80044f0:	6010      	str	r0, [r2, #0]
 80044f2:	670b      	str	r3, [r1, #112]	; 0x70
 80044f4:	6f0b      	ldr	r3, [r1, #112]	; 0x70
 80044f6:	07da      	lsls	r2, r3, #31
 80044f8:	d4bb      	bmi.n	8004472 <HAL_RCCEx_PeriphCLKConfig+0x76>
 80044fa:	68e3      	ldr	r3, [r4, #12]
 80044fc:	f403 7040 	and.w	r0, r3, #768	; 0x300
 8004500:	f5b0 7f40 	cmp.w	r0, #768	; 0x300
 8004504:	d00c      	beq.n	8004520 <HAL_RCCEx_PeriphCLKConfig+0x124>
 8004506:	490e      	ldr	r1, [pc, #56]	; (8004540 <HAL_RCCEx_PeriphCLKConfig+0x144>)
 8004508:	688a      	ldr	r2, [r1, #8]
 800450a:	f422 12f8 	bic.w	r2, r2, #2031616	; 0x1f0000
 800450e:	608a      	str	r2, [r1, #8]
 8004510:	4a0b      	ldr	r2, [pc, #44]	; (8004540 <HAL_RCCEx_PeriphCLKConfig+0x144>)
 8004512:	6f11      	ldr	r1, [r2, #112]	; 0x70
 8004514:	f3c3 030b 	ubfx	r3, r3, #0, #12
 8004518:	430b      	orrs	r3, r1
 800451a:	6713      	str	r3, [r2, #112]	; 0x70
 800451c:	6820      	ldr	r0, [r4, #0]
 800451e:	e776      	b.n	800440e <HAL_RCCEx_PeriphCLKConfig+0x12>
 8004520:	4807      	ldr	r0, [pc, #28]	; (8004540 <HAL_RCCEx_PeriphCLKConfig+0x144>)
 8004522:	6882      	ldr	r2, [r0, #8]
 8004524:	f023 4170 	bic.w	r1, r3, #4026531840	; 0xf0000000
 8004528:	f422 12f8 	bic.w	r2, r2, #2031616	; 0x1f0000
 800452c:	f421 7140 	bic.w	r1, r1, #768	; 0x300
 8004530:	430a      	orrs	r2, r1
 8004532:	6082      	str	r2, [r0, #8]
 8004534:	e7ec      	b.n	8004510 <HAL_RCCEx_PeriphCLKConfig+0x114>
 8004536:	bf00      	nop
 8004538:	424711e0 	.word	0x424711e0
 800453c:	42470068 	.word	0x42470068
 8004540:	40023800 	.word	0x40023800
 8004544:	40007000 	.word	0x40007000
 8004548:	42470e40 	.word	0x42470e40

0800454c <HAL_RCCEx_GetPeriphCLKFreq>:
 800454c:	2801      	cmp	r0, #1
 800454e:	d109      	bne.n	8004564 <HAL_RCCEx_GetPeriphCLKFreq+0x18>
 8004550:	4a12      	ldr	r2, [pc, #72]	; (800459c <HAL_RCCEx_GetPeriphCLKFreq+0x50>)
 8004552:	6893      	ldr	r3, [r2, #8]
 8004554:	f413 0300 	ands.w	r3, r3, #8388608	; 0x800000
 8004558:	d006      	beq.n	8004568 <HAL_RCCEx_GetPeriphCLKFreq+0x1c>
 800455a:	2b01      	cmp	r3, #1
 800455c:	4810      	ldr	r0, [pc, #64]	; (80045a0 <HAL_RCCEx_GetPeriphCLKFreq+0x54>)
 800455e:	bf18      	it	ne
 8004560:	2000      	movne	r0, #0
 8004562:	4770      	bx	lr
 8004564:	2000      	movs	r0, #0
 8004566:	4770      	bx	lr
 8004568:	6853      	ldr	r3, [r2, #4]
 800456a:	f413 0f80 	tst.w	r3, #4194304	; 0x400000
 800456e:	6853      	ldr	r3, [r2, #4]
 8004570:	bf14      	ite	ne
 8004572:	480b      	ldrne	r0, [pc, #44]	; (80045a0 <HAL_RCCEx_GetPeriphCLKFreq+0x54>)
 8004574:	480b      	ldreq	r0, [pc, #44]	; (80045a4 <HAL_RCCEx_GetPeriphCLKFreq+0x58>)
 8004576:	f003 033f 	and.w	r3, r3, #63	; 0x3f
 800457a:	fbb0 f0f3 	udiv	r0, r0, r3
 800457e:	4b07      	ldr	r3, [pc, #28]	; (800459c <HAL_RCCEx_GetPeriphCLKFreq+0x50>)
 8004580:	f8d3 2084 	ldr.w	r2, [r3, #132]	; 0x84
 8004584:	f8d3 3084 	ldr.w	r3, [r3, #132]	; 0x84
 8004588:	f3c2 1288 	ubfx	r2, r2, #6, #9
 800458c:	fb00 f002 	mul.w	r0, r0, r2
 8004590:	f3c3 7302 	ubfx	r3, r3, #28, #3
 8004594:	fbb0 f0f3 	udiv	r0, r0, r3
 8004598:	4770      	bx	lr
 800459a:	bf00      	nop
 800459c:	40023800 	.word	0x40023800
 80045a0:	00bb8000 	.word	0x00bb8000
 80045a4:	00f42400 	.word	0x00f42400

080045a8 <SD_FindSCR>:
 80045a8:	e92d 43f0 	stmdb	sp!, {r4, r5, r6, r7, r8, r9, lr}
 80045ac:	b089      	sub	sp, #36	; 0x24
 80045ae:	4605      	mov	r5, r0
 80045b0:	460f      	mov	r7, r1
 80045b2:	f7fc fcc7 	bl	8000f44 <HAL_GetTick>
 80045b6:	2300      	movs	r3, #0
 80045b8:	4606      	mov	r6, r0
 80045ba:	2108      	movs	r1, #8
 80045bc:	6828      	ldr	r0, [r5, #0]
 80045be:	9300      	str	r3, [sp, #0]
 80045c0:	9301      	str	r3, [sp, #4]
 80045c2:	f001 f907 	bl	80057d4 <SDMMC_CmdBlockLength>
 80045c6:	4604      	mov	r4, r0
 80045c8:	b118      	cbz	r0, 80045d2 <SD_FindSCR+0x2a>
 80045ca:	4620      	mov	r0, r4
 80045cc:	b009      	add	sp, #36	; 0x24
 80045ce:	e8bd 83f0 	ldmia.w	sp!, {r4, r5, r6, r7, r8, r9, pc}
 80045d2:	6d29      	ldr	r1, [r5, #80]	; 0x50
 80045d4:	6828      	ldr	r0, [r5, #0]
 80045d6:	0409      	lsls	r1, r1, #16
 80045d8:	f001 f9cc 	bl	8005974 <SDMMC_CmdAppCommand>
 80045dc:	4604      	mov	r4, r0
 80045de:	2800      	cmp	r0, #0
 80045e0:	d1f3      	bne.n	80045ca <SD_FindSCR+0x22>
 80045e2:	f04f 32ff 	mov.w	r2, #4294967295
 80045e6:	2308      	movs	r3, #8
 80045e8:	2130      	movs	r1, #48	; 0x30
 80045ea:	9006      	str	r0, [sp, #24]
 80045ec:	9202      	str	r2, [sp, #8]
 80045ee:	9303      	str	r3, [sp, #12]
 80045f0:	2202      	movs	r2, #2
 80045f2:	2301      	movs	r3, #1
 80045f4:	9104      	str	r1, [sp, #16]
 80045f6:	6828      	ldr	r0, [r5, #0]
 80045f8:	9205      	str	r2, [sp, #20]
 80045fa:	a902      	add	r1, sp, #8
 80045fc:	9307      	str	r3, [sp, #28]
 80045fe:	f001 f8d5 	bl	80057ac <SDIO_ConfigData>
 8004602:	6828      	ldr	r0, [r5, #0]
 8004604:	f001 f9e8 	bl	80059d8 <SDMMC_CmdSendSCR>
 8004608:	4604      	mov	r4, r0
 800460a:	2800      	cmp	r0, #0
 800460c:	d1dd      	bne.n	80045ca <SD_FindSCR+0x22>
 800460e:	4681      	mov	r9, r0
 8004610:	f240 482a 	movw	r8, #1066	; 0x42a
 8004614:	e004      	b.n	8004620 <SD_FindSCR+0x78>
 8004616:	f7fc fc95 	bl	8000f44 <HAL_GetTick>
 800461a:	1b80      	subs	r0, r0, r6
 800461c:	3001      	adds	r0, #1
 800461e:	d023      	beq.n	8004668 <SD_FindSCR+0xc0>
 8004620:	6828      	ldr	r0, [r5, #0]
 8004622:	6b43      	ldr	r3, [r0, #52]	; 0x34
 8004624:	ea13 0f08 	tst.w	r3, r8
 8004628:	6b43      	ldr	r3, [r0, #52]	; 0x34
 800462a:	d10b      	bne.n	8004644 <SD_FindSCR+0x9c>
 800462c:	029b      	lsls	r3, r3, #10
 800462e:	d5f2      	bpl.n	8004616 <SD_FindSCR+0x6e>
 8004630:	f001 f8a2 	bl	8005778 <SDIO_ReadFIFO>
 8004634:	ab08      	add	r3, sp, #32
 8004636:	eb03 0389 	add.w	r3, r3, r9, lsl #2
 800463a:	f109 0901 	add.w	r9, r9, #1
 800463e:	f843 0c20 	str.w	r0, [r3, #-32]
 8004642:	e7e8      	b.n	8004616 <SD_FindSCR+0x6e>
 8004644:	0719      	lsls	r1, r3, #28
 8004646:	d412      	bmi.n	800466e <SD_FindSCR+0xc6>
 8004648:	6b43      	ldr	r3, [r0, #52]	; 0x34
 800464a:	079a      	lsls	r2, r3, #30
 800464c:	d412      	bmi.n	8004674 <SD_FindSCR+0xcc>
 800464e:	6b43      	ldr	r3, [r0, #52]	; 0x34
 8004650:	069b      	lsls	r3, r3, #26
 8004652:	d412      	bmi.n	800467a <SD_FindSCR+0xd2>
 8004654:	e9dd 3200 	ldrd	r3, r2, [sp]
 8004658:	f240 513a 	movw	r1, #1338	; 0x53a
 800465c:	ba12      	rev	r2, r2
 800465e:	ba1b      	rev	r3, r3
 8004660:	6381      	str	r1, [r0, #56]	; 0x38
 8004662:	e9c7 2300 	strd	r2, r3, [r7]
 8004666:	e7b0      	b.n	80045ca <SD_FindSCR+0x22>
 8004668:	f04f 4400 	mov.w	r4, #2147483648	; 0x80000000
 800466c:	e7ad      	b.n	80045ca <SD_FindSCR+0x22>
 800466e:	2408      	movs	r4, #8
 8004670:	6384      	str	r4, [r0, #56]	; 0x38
 8004672:	e7aa      	b.n	80045ca <SD_FindSCR+0x22>
 8004674:	2402      	movs	r4, #2
 8004676:	6384      	str	r4, [r0, #56]	; 0x38
 8004678:	e7a7      	b.n	80045ca <SD_FindSCR+0x22>
 800467a:	2420      	movs	r4, #32
 800467c:	6384      	str	r4, [r0, #56]	; 0x38
 800467e:	e7a4      	b.n	80045ca <SD_FindSCR+0x22>

08004680 <HAL_SD_ReadBlocks>:
 8004680:	e92d 4ff0 	stmdb	sp!, {r4, r5, r6, r7, r8, r9, sl, fp, lr}
 8004684:	460d      	mov	r5, r1
 8004686:	b087      	sub	sp, #28
 8004688:	4604      	mov	r4, r0
 800468a:	4616      	mov	r6, r2
 800468c:	461f      	mov	r7, r3
 800468e:	f7fc fc59 	bl	8000f44 <HAL_GetTick>
 8004692:	b365      	cbz	r5, 80046ee <HAL_SD_ReadBlocks+0x6e>
 8004694:	4680      	mov	r8, r0
 8004696:	f894 0034 	ldrb.w	r0, [r4, #52]	; 0x34
 800469a:	b2c0      	uxtb	r0, r0
 800469c:	2801      	cmp	r0, #1
 800469e:	d007      	beq.n	80046b0 <HAL_SD_ReadBlocks+0x30>
 80046a0:	6ba3      	ldr	r3, [r4, #56]	; 0x38
 80046a2:	f043 5300 	orr.w	r3, r3, #536870912	; 0x20000000
 80046a6:	63a3      	str	r3, [r4, #56]	; 0x38
 80046a8:	2001      	movs	r0, #1
 80046aa:	b007      	add	sp, #28
 80046ac:	e8bd 8ff0 	ldmia.w	sp!, {r4, r5, r6, r7, r8, r9, sl, fp, pc}
 80046b0:	6de2      	ldr	r2, [r4, #92]	; 0x5c
 80046b2:	19f3      	adds	r3, r6, r7
 80046b4:	2100      	movs	r1, #0
 80046b6:	4293      	cmp	r3, r2
 80046b8:	63a1      	str	r1, [r4, #56]	; 0x38
 80046ba:	d820      	bhi.n	80046fe <HAL_SD_ReadBlocks+0x7e>
 80046bc:	6c63      	ldr	r3, [r4, #68]	; 0x44
 80046be:	6820      	ldr	r0, [r4, #0]
 80046c0:	2203      	movs	r2, #3
 80046c2:	2b01      	cmp	r3, #1
 80046c4:	f884 2034 	strb.w	r2, [r4, #52]	; 0x34
 80046c8:	62c1      	str	r1, [r0, #44]	; 0x2c
 80046ca:	f44f 7100 	mov.w	r1, #512	; 0x200
 80046ce:	bf18      	it	ne
 80046d0:	0276      	lslne	r6, r6, #9
 80046d2:	f001 f87f 	bl	80057d4 <SDMMC_CmdBlockLength>
 80046d6:	b1c8      	cbz	r0, 800470c <HAL_SD_ReadBlocks+0x8c>
 80046d8:	6823      	ldr	r3, [r4, #0]
 80046da:	4a7a      	ldr	r2, [pc, #488]	; (80048c4 <HAL_SD_ReadBlocks+0x244>)
 80046dc:	639a      	str	r2, [r3, #56]	; 0x38
 80046de:	6ba3      	ldr	r3, [r4, #56]	; 0x38
 80046e0:	2201      	movs	r2, #1
 80046e2:	4318      	orrs	r0, r3
 80046e4:	63a0      	str	r0, [r4, #56]	; 0x38
 80046e6:	4610      	mov	r0, r2
 80046e8:	f884 2034 	strb.w	r2, [r4, #52]	; 0x34
 80046ec:	e7dd      	b.n	80046aa <HAL_SD_ReadBlocks+0x2a>
 80046ee:	6ba3      	ldr	r3, [r4, #56]	; 0x38
 80046f0:	2001      	movs	r0, #1
 80046f2:	f043 6300 	orr.w	r3, r3, #134217728	; 0x8000000
 80046f6:	63a3      	str	r3, [r4, #56]	; 0x38
 80046f8:	b007      	add	sp, #28
 80046fa:	e8bd 8ff0 	ldmia.w	sp!, {r4, r5, r6, r7, r8, r9, sl, fp, pc}
 80046fe:	6ba3      	ldr	r3, [r4, #56]	; 0x38
 8004700:	f043 7300 	orr.w	r3, r3, #33554432	; 0x2000000
 8004704:	63a3      	str	r3, [r4, #56]	; 0x38
 8004706:	b007      	add	sp, #28
 8004708:	e8bd 8ff0 	ldmia.w	sp!, {r4, r5, r6, r7, r8, r9, sl, fp, pc}
 800470c:	f04f 31ff 	mov.w	r1, #4294967295
 8004710:	027a      	lsls	r2, r7, #9
 8004712:	2390      	movs	r3, #144	; 0x90
 8004714:	9004      	str	r0, [sp, #16]
 8004716:	f04f 0a01 	mov.w	sl, #1
 800471a:	9100      	str	r1, [sp, #0]
 800471c:	f04f 0902 	mov.w	r9, #2
 8004720:	4669      	mov	r1, sp
 8004722:	6820      	ldr	r0, [r4, #0]
 8004724:	9201      	str	r2, [sp, #4]
 8004726:	e9cd 3902 	strd	r3, r9, [sp, #8]
 800472a:	f8cd a014 	str.w	sl, [sp, #20]
 800472e:	f001 f83d 	bl	80057ac <SDIO_ConfigData>
 8004732:	4557      	cmp	r7, sl
 8004734:	d944      	bls.n	80047c0 <HAL_SD_ReadBlocks+0x140>
 8004736:	f8c4 9030 	str.w	r9, [r4, #48]	; 0x30
 800473a:	4631      	mov	r1, r6
 800473c:	6820      	ldr	r0, [r4, #0]
 800473e:	f001 f867 	bl	8005810 <SDMMC_CmdReadMultiBlock>
 8004742:	6823      	ldr	r3, [r4, #0]
 8004744:	bb80      	cbnz	r0, 80047a8 <HAL_SD_ReadBlocks+0x128>
 8004746:	f8dd a004 	ldr.w	sl, [sp, #4]
 800474a:	f240 3b2a 	movw	fp, #810	; 0x32a
 800474e:	e007      	b.n	8004760 <HAL_SD_ReadBlocks+0xe0>
 8004750:	f7fc fbf8 	bl	8000f44 <HAL_GetTick>
 8004754:	9b10      	ldr	r3, [sp, #64]	; 0x40
 8004756:	eba0 0008 	sub.w	r0, r0, r8
 800475a:	4298      	cmp	r0, r3
 800475c:	6823      	ldr	r3, [r4, #0]
 800475e:	d278      	bcs.n	8004852 <HAL_SD_ReadBlocks+0x1d2>
 8004760:	6b5a      	ldr	r2, [r3, #52]	; 0x34
 8004762:	ea12 0f0b 	tst.w	r2, fp
 8004766:	6b5a      	ldr	r2, [r3, #52]	; 0x34
 8004768:	d131      	bne.n	80047ce <HAL_SD_ReadBlocks+0x14e>
 800476a:	0412      	lsls	r2, r2, #16
 800476c:	d5f0      	bpl.n	8004750 <HAL_SD_ReadBlocks+0xd0>
 800476e:	f1ba 0f00 	cmp.w	sl, #0
 8004772:	d0ed      	beq.n	8004750 <HAL_SD_ReadBlocks+0xd0>
 8004774:	1d2e      	adds	r6, r5, #4
 8004776:	f105 0924 	add.w	r9, r5, #36	; 0x24
 800477a:	e000      	b.n	800477e <HAL_SD_ReadBlocks+0xfe>
 800477c:	6823      	ldr	r3, [r4, #0]
 800477e:	4618      	mov	r0, r3
 8004780:	f000 fffa 	bl	8005778 <SDIO_ReadFIFO>
 8004784:	f806 0c04 	strb.w	r0, [r6, #-4]
 8004788:	0a02      	lsrs	r2, r0, #8
 800478a:	0c03      	lsrs	r3, r0, #16
 800478c:	0e00      	lsrs	r0, r0, #24
 800478e:	f806 2c03 	strb.w	r2, [r6, #-3]
 8004792:	f806 3c02 	strb.w	r3, [r6, #-2]
 8004796:	f806 0c01 	strb.w	r0, [r6, #-1]
 800479a:	3604      	adds	r6, #4
 800479c:	45b1      	cmp	r9, r6
 800479e:	d1ed      	bne.n	800477c <HAL_SD_ReadBlocks+0xfc>
 80047a0:	3520      	adds	r5, #32
 80047a2:	f1aa 0a20 	sub.w	sl, sl, #32
 80047a6:	e7d3      	b.n	8004750 <HAL_SD_ReadBlocks+0xd0>
 80047a8:	4a46      	ldr	r2, [pc, #280]	; (80048c4 <HAL_SD_ReadBlocks+0x244>)
 80047aa:	639a      	str	r2, [r3, #56]	; 0x38
 80047ac:	6ba3      	ldr	r3, [r4, #56]	; 0x38
 80047ae:	2201      	movs	r2, #1
 80047b0:	4318      	orrs	r0, r3
 80047b2:	2300      	movs	r3, #0
 80047b4:	63a0      	str	r0, [r4, #56]	; 0x38
 80047b6:	f884 2034 	strb.w	r2, [r4, #52]	; 0x34
 80047ba:	4610      	mov	r0, r2
 80047bc:	6323      	str	r3, [r4, #48]	; 0x30
 80047be:	e774      	b.n	80046aa <HAL_SD_ReadBlocks+0x2a>
 80047c0:	f8c4 a030 	str.w	sl, [r4, #48]	; 0x30
 80047c4:	4631      	mov	r1, r6
 80047c6:	6820      	ldr	r0, [r4, #0]
 80047c8:	f001 f812 	bl	80057f0 <SDMMC_CmdReadSingleBlock>
 80047cc:	e7b9      	b.n	8004742 <HAL_SD_ReadBlocks+0xc2>
 80047ce:	05d6      	lsls	r6, r2, #23
 80047d0:	d50a      	bpl.n	80047e8 <HAL_SD_ReadBlocks+0x168>
 80047d2:	2f01      	cmp	r7, #1
 80047d4:	d908      	bls.n	80047e8 <HAL_SD_ReadBlocks+0x168>
 80047d6:	6c62      	ldr	r2, [r4, #68]	; 0x44
 80047d8:	2a03      	cmp	r2, #3
 80047da:	d005      	beq.n	80047e8 <HAL_SD_ReadBlocks+0x168>
 80047dc:	4618      	mov	r0, r3
 80047de:	f001 f845 	bl	800586c <SDMMC_CmdStopTransfer>
 80047e2:	6823      	ldr	r3, [r4, #0]
 80047e4:	2800      	cmp	r0, #0
 80047e6:	d1df      	bne.n	80047a8 <HAL_SD_ReadBlocks+0x128>
 80047e8:	6b5a      	ldr	r2, [r3, #52]	; 0x34
 80047ea:	f012 0208 	ands.w	r2, r2, #8
 80047ee:	d13d      	bne.n	800486c <HAL_SD_ReadBlocks+0x1ec>
 80047f0:	6b59      	ldr	r1, [r3, #52]	; 0x34
 80047f2:	f011 0102 	ands.w	r1, r1, #2
 80047f6:	d146      	bne.n	8004886 <HAL_SD_ReadBlocks+0x206>
 80047f8:	6b5a      	ldr	r2, [r3, #52]	; 0x34
 80047fa:	0690      	lsls	r0, r2, #26
 80047fc:	d44f      	bmi.n	800489e <HAL_SD_ReadBlocks+0x21e>
 80047fe:	3504      	adds	r5, #4
 8004800:	e01b      	b.n	800483a <HAL_SD_ReadBlocks+0x1ba>
 8004802:	f1ba 0f00 	cmp.w	sl, #0
 8004806:	d01c      	beq.n	8004842 <HAL_SD_ReadBlocks+0x1c2>
 8004808:	f000 ffb6 	bl	8005778 <SDIO_ReadFIFO>
 800480c:	0c03      	lsrs	r3, r0, #16
 800480e:	0a02      	lsrs	r2, r0, #8
 8004810:	f805 0c04 	strb.w	r0, [r5, #-4]
 8004814:	0e00      	lsrs	r0, r0, #24
 8004816:	f805 3c02 	strb.w	r3, [r5, #-2]
 800481a:	f805 2c03 	strb.w	r2, [r5, #-3]
 800481e:	f805 0c01 	strb.w	r0, [r5, #-1]
 8004822:	f7fc fb8f 	bl	8000f44 <HAL_GetTick>
 8004826:	9b10      	ldr	r3, [sp, #64]	; 0x40
 8004828:	eba0 0008 	sub.w	r0, r0, r8
 800482c:	4298      	cmp	r0, r3
 800482e:	f1aa 0a04 	sub.w	sl, sl, #4
 8004832:	f105 0504 	add.w	r5, r5, #4
 8004836:	6823      	ldr	r3, [r4, #0]
 8004838:	d23d      	bcs.n	80048b6 <HAL_SD_ReadBlocks+0x236>
 800483a:	6b5a      	ldr	r2, [r3, #52]	; 0x34
 800483c:	0292      	lsls	r2, r2, #10
 800483e:	4618      	mov	r0, r3
 8004840:	d4df      	bmi.n	8004802 <HAL_SD_ReadBlocks+0x182>
 8004842:	f240 513a 	movw	r1, #1338	; 0x53a
 8004846:	2201      	movs	r2, #1
 8004848:	6399      	str	r1, [r3, #56]	; 0x38
 800484a:	2000      	movs	r0, #0
 800484c:	f884 2034 	strb.w	r2, [r4, #52]	; 0x34
 8004850:	e72b      	b.n	80046aa <HAL_SD_ReadBlocks+0x2a>
 8004852:	4a1c      	ldr	r2, [pc, #112]	; (80048c4 <HAL_SD_ReadBlocks+0x244>)
 8004854:	639a      	str	r2, [r3, #56]	; 0x38
 8004856:	6ba3      	ldr	r3, [r4, #56]	; 0x38
 8004858:	2101      	movs	r1, #1
 800485a:	f043 4300 	orr.w	r3, r3, #2147483648	; 0x80000000
 800485e:	2200      	movs	r2, #0
 8004860:	63a3      	str	r3, [r4, #56]	; 0x38
 8004862:	2003      	movs	r0, #3
 8004864:	f884 1034 	strb.w	r1, [r4, #52]	; 0x34
 8004868:	6322      	str	r2, [r4, #48]	; 0x30
 800486a:	e71e      	b.n	80046aa <HAL_SD_ReadBlocks+0x2a>
 800486c:	4a15      	ldr	r2, [pc, #84]	; (80048c4 <HAL_SD_ReadBlocks+0x244>)
 800486e:	639a      	str	r2, [r3, #56]	; 0x38
 8004870:	6ba3      	ldr	r3, [r4, #56]	; 0x38
 8004872:	2201      	movs	r2, #1
 8004874:	f043 0308 	orr.w	r3, r3, #8
 8004878:	2100      	movs	r1, #0
 800487a:	63a3      	str	r3, [r4, #56]	; 0x38
 800487c:	4610      	mov	r0, r2
 800487e:	f884 2034 	strb.w	r2, [r4, #52]	; 0x34
 8004882:	6321      	str	r1, [r4, #48]	; 0x30
 8004884:	e711      	b.n	80046aa <HAL_SD_ReadBlocks+0x2a>
 8004886:	490f      	ldr	r1, [pc, #60]	; (80048c4 <HAL_SD_ReadBlocks+0x244>)
 8004888:	6399      	str	r1, [r3, #56]	; 0x38
 800488a:	6ba3      	ldr	r3, [r4, #56]	; 0x38
 800488c:	2101      	movs	r1, #1
 800488e:	f043 0302 	orr.w	r3, r3, #2
 8004892:	63a3      	str	r3, [r4, #56]	; 0x38
 8004894:	4608      	mov	r0, r1
 8004896:	f884 1034 	strb.w	r1, [r4, #52]	; 0x34
 800489a:	6322      	str	r2, [r4, #48]	; 0x30
 800489c:	e705      	b.n	80046aa <HAL_SD_ReadBlocks+0x2a>
 800489e:	4a09      	ldr	r2, [pc, #36]	; (80048c4 <HAL_SD_ReadBlocks+0x244>)
 80048a0:	639a      	str	r2, [r3, #56]	; 0x38
 80048a2:	6ba3      	ldr	r3, [r4, #56]	; 0x38
 80048a4:	2201      	movs	r2, #1
 80048a6:	f043 0320 	orr.w	r3, r3, #32
 80048aa:	63a3      	str	r3, [r4, #56]	; 0x38
 80048ac:	4610      	mov	r0, r2
 80048ae:	f884 2034 	strb.w	r2, [r4, #52]	; 0x34
 80048b2:	6321      	str	r1, [r4, #48]	; 0x30
 80048b4:	e6f9      	b.n	80046aa <HAL_SD_ReadBlocks+0x2a>
 80048b6:	4a03      	ldr	r2, [pc, #12]	; (80048c4 <HAL_SD_ReadBlocks+0x244>)
 80048b8:	639a      	str	r2, [r3, #56]	; 0x38
 80048ba:	6ba3      	ldr	r3, [r4, #56]	; 0x38
 80048bc:	2201      	movs	r2, #1
 80048be:	f043 4300 	orr.w	r3, r3, #2147483648	; 0x80000000
 80048c2:	e7d9      	b.n	8004878 <HAL_SD_ReadBlocks+0x1f8>
 80048c4:	004005ff 	.word	0x004005ff

080048c8 <HAL_SD_WriteBlocks>:
 80048c8:	e92d 47f0 	stmdb	sp!, {r4, r5, r6, r7, r8, r9, sl, lr}
 80048cc:	460d      	mov	r5, r1
 80048ce:	b088      	sub	sp, #32
 80048d0:	4604      	mov	r4, r0
 80048d2:	4616      	mov	r6, r2
 80048d4:	461f      	mov	r7, r3
 80048d6:	f7fc fb35 	bl	8000f44 <HAL_GetTick>
 80048da:	b365      	cbz	r5, 8004936 <HAL_SD_WriteBlocks+0x6e>
 80048dc:	4680      	mov	r8, r0
 80048de:	f894 0034 	ldrb.w	r0, [r4, #52]	; 0x34
 80048e2:	b2c0      	uxtb	r0, r0
 80048e4:	2801      	cmp	r0, #1
 80048e6:	d007      	beq.n	80048f8 <HAL_SD_WriteBlocks+0x30>
 80048e8:	6ba3      	ldr	r3, [r4, #56]	; 0x38
 80048ea:	f043 5300 	orr.w	r3, r3, #536870912	; 0x20000000
 80048ee:	63a3      	str	r3, [r4, #56]	; 0x38
 80048f0:	2001      	movs	r0, #1
 80048f2:	b008      	add	sp, #32
 80048f4:	e8bd 87f0 	ldmia.w	sp!, {r4, r5, r6, r7, r8, r9, sl, pc}
 80048f8:	6de2      	ldr	r2, [r4, #92]	; 0x5c
 80048fa:	19f3      	adds	r3, r6, r7
 80048fc:	2100      	movs	r1, #0
 80048fe:	4293      	cmp	r3, r2
 8004900:	63a1      	str	r1, [r4, #56]	; 0x38
 8004902:	d820      	bhi.n	8004946 <HAL_SD_WriteBlocks+0x7e>
 8004904:	6c63      	ldr	r3, [r4, #68]	; 0x44
 8004906:	6820      	ldr	r0, [r4, #0]
 8004908:	2203      	movs	r2, #3
 800490a:	2b01      	cmp	r3, #1
 800490c:	f884 2034 	strb.w	r2, [r4, #52]	; 0x34
 8004910:	62c1      	str	r1, [r0, #44]	; 0x2c
 8004912:	f44f 7100 	mov.w	r1, #512	; 0x200
 8004916:	bf18      	it	ne
 8004918:	0276      	lslne	r6, r6, #9
 800491a:	f000 ff5b 	bl	80057d4 <SDMMC_CmdBlockLength>
 800491e:	b1c8      	cbz	r0, 8004954 <HAL_SD_WriteBlocks+0x8c>
 8004920:	6823      	ldr	r3, [r4, #0]
 8004922:	4a5e      	ldr	r2, [pc, #376]	; (8004a9c <HAL_SD_WriteBlocks+0x1d4>)
 8004924:	639a      	str	r2, [r3, #56]	; 0x38
 8004926:	6ba3      	ldr	r3, [r4, #56]	; 0x38
 8004928:	2201      	movs	r2, #1
 800492a:	4318      	orrs	r0, r3
 800492c:	63a0      	str	r0, [r4, #56]	; 0x38
 800492e:	4610      	mov	r0, r2
 8004930:	f884 2034 	strb.w	r2, [r4, #52]	; 0x34
 8004934:	e7dd      	b.n	80048f2 <HAL_SD_WriteBlocks+0x2a>
 8004936:	6ba3      	ldr	r3, [r4, #56]	; 0x38
 8004938:	2001      	movs	r0, #1
 800493a:	f043 6300 	orr.w	r3, r3, #134217728	; 0x8000000
 800493e:	63a3      	str	r3, [r4, #56]	; 0x38
 8004940:	b008      	add	sp, #32
 8004942:	e8bd 87f0 	ldmia.w	sp!, {r4, r5, r6, r7, r8, r9, sl, pc}
 8004946:	6ba3      	ldr	r3, [r4, #56]	; 0x38
 8004948:	f043 7300 	orr.w	r3, r3, #33554432	; 0x2000000
 800494c:	63a3      	str	r3, [r4, #56]	; 0x38
 800494e:	b008      	add	sp, #32
 8004950:	e8bd 87f0 	ldmia.w	sp!, {r4, r5, r6, r7, r8, r9, sl, pc}
 8004954:	f04f 33ff 	mov.w	r3, #4294967295
 8004958:	0279      	lsls	r1, r7, #9
 800495a:	e9cd 0005 	strd	r0, r0, [sp, #20]
 800495e:	2290      	movs	r2, #144	; 0x90
 8004960:	9302      	str	r3, [sp, #8]
 8004962:	9103      	str	r1, [sp, #12]
 8004964:	2301      	movs	r3, #1
 8004966:	a902      	add	r1, sp, #8
 8004968:	6820      	ldr	r0, [r4, #0]
 800496a:	9204      	str	r2, [sp, #16]
 800496c:	9307      	str	r3, [sp, #28]
 800496e:	f000 ff1d 	bl	80057ac <SDIO_ConfigData>
 8004972:	2f01      	cmp	r7, #1
 8004974:	d93a      	bls.n	80049ec <HAL_SD_WriteBlocks+0x124>
 8004976:	2320      	movs	r3, #32
 8004978:	4631      	mov	r1, r6
 800497a:	6323      	str	r3, [r4, #48]	; 0x30
 800497c:	6820      	ldr	r0, [r4, #0]
 800497e:	f000 ff65 	bl	800584c <SDMMC_CmdWriteMultiBlock>
 8004982:	6823      	ldr	r3, [r4, #0]
 8004984:	bb30      	cbnz	r0, 80049d4 <HAL_SD_WriteBlocks+0x10c>
 8004986:	f8dd a00c 	ldr.w	sl, [sp, #12]
 800498a:	f240 391a 	movw	r9, #794	; 0x31a
 800498e:	e007      	b.n	80049a0 <HAL_SD_WriteBlocks+0xd8>
 8004990:	f7fc fad8 	bl	8000f44 <HAL_GetTick>
 8004994:	9b10      	ldr	r3, [sp, #64]	; 0x40
 8004996:	eba0 0008 	sub.w	r0, r0, r8
 800499a:	4298      	cmp	r0, r3
 800499c:	6823      	ldr	r3, [r4, #0]
 800499e:	d251      	bcs.n	8004a44 <HAL_SD_WriteBlocks+0x17c>
 80049a0:	6b5a      	ldr	r2, [r3, #52]	; 0x34
 80049a2:	ea12 0f09 	tst.w	r2, r9
 80049a6:	6b5a      	ldr	r2, [r3, #52]	; 0x34
 80049a8:	d127      	bne.n	80049fa <HAL_SD_WriteBlocks+0x132>
 80049aa:	0451      	lsls	r1, r2, #17
 80049ac:	d5f0      	bpl.n	8004990 <HAL_SD_WriteBlocks+0xc8>
 80049ae:	f1ba 0f00 	cmp.w	sl, #0
 80049b2:	d0ed      	beq.n	8004990 <HAL_SD_WriteBlocks+0xc8>
 80049b4:	f105 0620 	add.w	r6, r5, #32
 80049b8:	e000      	b.n	80049bc <HAL_SD_WriteBlocks+0xf4>
 80049ba:	6823      	ldr	r3, [r4, #0]
 80049bc:	f855 2b04 	ldr.w	r2, [r5], #4
 80049c0:	9201      	str	r2, [sp, #4]
 80049c2:	4618      	mov	r0, r3
 80049c4:	a901      	add	r1, sp, #4
 80049c6:	f000 fedb 	bl	8005780 <SDIO_WriteFIFO>
 80049ca:	42b5      	cmp	r5, r6
 80049cc:	d1f5      	bne.n	80049ba <HAL_SD_WriteBlocks+0xf2>
 80049ce:	f1aa 0a20 	sub.w	sl, sl, #32
 80049d2:	e7dd      	b.n	8004990 <HAL_SD_WriteBlocks+0xc8>
 80049d4:	4a31      	ldr	r2, [pc, #196]	; (8004a9c <HAL_SD_WriteBlocks+0x1d4>)
 80049d6:	639a      	str	r2, [r3, #56]	; 0x38
 80049d8:	6ba3      	ldr	r3, [r4, #56]	; 0x38
 80049da:	2201      	movs	r2, #1
 80049dc:	4318      	orrs	r0, r3
 80049de:	2300      	movs	r3, #0
 80049e0:	63a0      	str	r0, [r4, #56]	; 0x38
 80049e2:	f884 2034 	strb.w	r2, [r4, #52]	; 0x34
 80049e6:	4610      	mov	r0, r2
 80049e8:	6323      	str	r3, [r4, #48]	; 0x30
 80049ea:	e782      	b.n	80048f2 <HAL_SD_WriteBlocks+0x2a>
 80049ec:	2310      	movs	r3, #16
 80049ee:	4631      	mov	r1, r6
 80049f0:	6323      	str	r3, [r4, #48]	; 0x30
 80049f2:	6820      	ldr	r0, [r4, #0]
 80049f4:	f000 ff1c 	bl	8005830 <SDMMC_CmdWriteSingleBlock>
 80049f8:	e7c3      	b.n	8004982 <HAL_SD_WriteBlocks+0xba>
 80049fa:	05d2      	lsls	r2, r2, #23
 80049fc:	d50a      	bpl.n	8004a14 <HAL_SD_WriteBlocks+0x14c>
 80049fe:	2f01      	cmp	r7, #1
 8004a00:	d908      	bls.n	8004a14 <HAL_SD_WriteBlocks+0x14c>
 8004a02:	6c62      	ldr	r2, [r4, #68]	; 0x44
 8004a04:	2a03      	cmp	r2, #3
 8004a06:	d005      	beq.n	8004a14 <HAL_SD_WriteBlocks+0x14c>
 8004a08:	4618      	mov	r0, r3
 8004a0a:	f000 ff2f 	bl	800586c <SDMMC_CmdStopTransfer>
 8004a0e:	6823      	ldr	r3, [r4, #0]
 8004a10:	2800      	cmp	r0, #0
 8004a12:	d1df      	bne.n	80049d4 <HAL_SD_WriteBlocks+0x10c>
 8004a14:	6b5a      	ldr	r2, [r3, #52]	; 0x34
 8004a16:	f012 0208 	ands.w	r2, r2, #8
 8004a1a:	d11e      	bne.n	8004a5a <HAL_SD_WriteBlocks+0x192>
 8004a1c:	6b59      	ldr	r1, [r3, #52]	; 0x34
 8004a1e:	f011 0102 	ands.w	r1, r1, #2
 8004a22:	d127      	bne.n	8004a74 <HAL_SD_WriteBlocks+0x1ac>
 8004a24:	6b5a      	ldr	r2, [r3, #52]	; 0x34
 8004a26:	f012 0210 	ands.w	r2, r2, #16
 8004a2a:	d02f      	beq.n	8004a8c <HAL_SD_WriteBlocks+0x1c4>
 8004a2c:	4a1b      	ldr	r2, [pc, #108]	; (8004a9c <HAL_SD_WriteBlocks+0x1d4>)
 8004a2e:	639a      	str	r2, [r3, #56]	; 0x38
 8004a30:	6ba3      	ldr	r3, [r4, #56]	; 0x38
 8004a32:	2201      	movs	r2, #1
 8004a34:	f043 0310 	orr.w	r3, r3, #16
 8004a38:	63a3      	str	r3, [r4, #56]	; 0x38
 8004a3a:	4610      	mov	r0, r2
 8004a3c:	f884 2034 	strb.w	r2, [r4, #52]	; 0x34
 8004a40:	6321      	str	r1, [r4, #48]	; 0x30
 8004a42:	e756      	b.n	80048f2 <HAL_SD_WriteBlocks+0x2a>
 8004a44:	4a15      	ldr	r2, [pc, #84]	; (8004a9c <HAL_SD_WriteBlocks+0x1d4>)
 8004a46:	639a      	str	r2, [r3, #56]	; 0x38
 8004a48:	6ba3      	ldr	r3, [r4, #56]	; 0x38
 8004a4a:	63a3      	str	r3, [r4, #56]	; 0x38
 8004a4c:	2201      	movs	r2, #1
 8004a4e:	2300      	movs	r3, #0
 8004a50:	f884 2034 	strb.w	r2, [r4, #52]	; 0x34
 8004a54:	2003      	movs	r0, #3
 8004a56:	6323      	str	r3, [r4, #48]	; 0x30
 8004a58:	e74b      	b.n	80048f2 <HAL_SD_WriteBlocks+0x2a>
 8004a5a:	4a10      	ldr	r2, [pc, #64]	; (8004a9c <HAL_SD_WriteBlocks+0x1d4>)
 8004a5c:	639a      	str	r2, [r3, #56]	; 0x38
 8004a5e:	6ba3      	ldr	r3, [r4, #56]	; 0x38
 8004a60:	2201      	movs	r2, #1
 8004a62:	f043 0308 	orr.w	r3, r3, #8
 8004a66:	2100      	movs	r1, #0
 8004a68:	63a3      	str	r3, [r4, #56]	; 0x38
 8004a6a:	4610      	mov	r0, r2
 8004a6c:	f884 2034 	strb.w	r2, [r4, #52]	; 0x34
 8004a70:	6321      	str	r1, [r4, #48]	; 0x30
 8004a72:	e73e      	b.n	80048f2 <HAL_SD_WriteBlocks+0x2a>
 8004a74:	4909      	ldr	r1, [pc, #36]	; (8004a9c <HAL_SD_WriteBlocks+0x1d4>)
 8004a76:	6399      	str	r1, [r3, #56]	; 0x38
 8004a78:	6ba3      	ldr	r3, [r4, #56]	; 0x38
 8004a7a:	2101      	movs	r1, #1
 8004a7c:	f043 0302 	orr.w	r3, r3, #2
 8004a80:	63a3      	str	r3, [r4, #56]	; 0x38
 8004a82:	4608      	mov	r0, r1
 8004a84:	f884 1034 	strb.w	r1, [r4, #52]	; 0x34
 8004a88:	6322      	str	r2, [r4, #48]	; 0x30
 8004a8a:	e732      	b.n	80048f2 <HAL_SD_WriteBlocks+0x2a>
 8004a8c:	f240 553a 	movw	r5, #1338	; 0x53a
 8004a90:	2101      	movs	r1, #1
 8004a92:	639d      	str	r5, [r3, #56]	; 0x38
 8004a94:	4610      	mov	r0, r2
 8004a96:	f884 1034 	strb.w	r1, [r4, #52]	; 0x34
 8004a9a:	e72a      	b.n	80048f2 <HAL_SD_WriteBlocks+0x2a>
 8004a9c:	004005ff 	.word	0x004005ff

08004aa0 <HAL_SD_GetCardCSD>:
 8004aa0:	6e42      	ldr	r2, [r0, #100]	; 0x64
 8004aa2:	b4f0      	push	{r4, r5, r6, r7}
 8004aa4:	4603      	mov	r3, r0
 8004aa6:	0f94      	lsrs	r4, r2, #30
 8004aa8:	f3c2 6083 	ubfx	r0, r2, #26, #4
 8004aac:	700c      	strb	r4, [r1, #0]
 8004aae:	f3c2 6501 	ubfx	r5, r2, #24, #2
 8004ab2:	7048      	strb	r0, [r1, #1]
 8004ab4:	f3c2 4407 	ubfx	r4, r2, #16, #8
 8004ab8:	f3c2 2007 	ubfx	r0, r2, #8, #8
 8004abc:	b2d2      	uxtb	r2, r2
 8004abe:	708d      	strb	r5, [r1, #2]
 8004ac0:	70cc      	strb	r4, [r1, #3]
 8004ac2:	7108      	strb	r0, [r1, #4]
 8004ac4:	714a      	strb	r2, [r1, #5]
 8004ac6:	6e9a      	ldr	r2, [r3, #104]	; 0x68
 8004ac8:	0d15      	lsrs	r5, r2, #20
 8004aca:	f3c2 4403 	ubfx	r4, r2, #16, #4
 8004ace:	80cd      	strh	r5, [r1, #6]
 8004ad0:	720c      	strb	r4, [r1, #8]
 8004ad2:	f3c2 35c0 	ubfx	r5, r2, #15, #1
 8004ad6:	f3c2 3480 	ubfx	r4, r2, #14, #1
 8004ada:	724d      	strb	r5, [r1, #9]
 8004adc:	2000      	movs	r0, #0
 8004ade:	728c      	strb	r4, [r1, #10]
 8004ae0:	f3c2 3540 	ubfx	r5, r2, #13, #1
 8004ae4:	f3c2 3400 	ubfx	r4, r2, #12, #1
 8004ae8:	72cd      	strb	r5, [r1, #11]
 8004aea:	730c      	strb	r4, [r1, #12]
 8004aec:	7348      	strb	r0, [r1, #13]
 8004aee:	6c58      	ldr	r0, [r3, #68]	; 0x44
 8004af0:	2800      	cmp	r0, #0
 8004af2:	d16c      	bne.n	8004bce <HAL_SD_GetCardCSD+0x12e>
 8004af4:	6ed8      	ldr	r0, [r3, #108]	; 0x6c
 8004af6:	f640 74fc 	movw	r4, #4092	; 0xffc
 8004afa:	ea04 0282 	and.w	r2, r4, r2, lsl #2
 8004afe:	ea42 7290 	orr.w	r2, r2, r0, lsr #30
 8004b02:	610a      	str	r2, [r1, #16]
 8004b04:	f3c0 5542 	ubfx	r5, r0, #21, #3
 8004b08:	f3c0 4482 	ubfx	r4, r0, #18, #3
 8004b0c:	f3c0 32c2 	ubfx	r2, r0, #15, #3
 8004b10:	f3c0 67c2 	ubfx	r7, r0, #27, #3
 8004b14:	f3c0 6602 	ubfx	r6, r0, #24, #3
 8004b18:	750f      	strb	r7, [r1, #20]
 8004b1a:	754e      	strb	r6, [r1, #21]
 8004b1c:	758d      	strb	r5, [r1, #22]
 8004b1e:	75cc      	strb	r4, [r1, #23]
 8004b20:	760a      	strb	r2, [r1, #24]
 8004b22:	690a      	ldr	r2, [r1, #16]
 8004b24:	7e0c      	ldrb	r4, [r1, #24]
 8004b26:	f004 0407 	and.w	r4, r4, #7
 8004b2a:	3402      	adds	r4, #2
 8004b2c:	3201      	adds	r2, #1
 8004b2e:	40a2      	lsls	r2, r4
 8004b30:	655a      	str	r2, [r3, #84]	; 0x54
 8004b32:	7a0d      	ldrb	r5, [r1, #8]
 8004b34:	2401      	movs	r4, #1
 8004b36:	f005 050f 	and.w	r5, r5, #15
 8004b3a:	40ac      	lsls	r4, r5
 8004b3c:	0a65      	lsrs	r5, r4, #9
 8004b3e:	fb02 f205 	mul.w	r2, r2, r5
 8004b42:	e9c3 4216 	strd	r4, r2, [r3, #88]	; 0x58
 8004b46:	f44f 7500 	mov.w	r5, #512	; 0x200
 8004b4a:	661d      	str	r5, [r3, #96]	; 0x60
 8004b4c:	f3c0 3480 	ubfx	r4, r0, #14, #1
 8004b50:	f3c0 12c6 	ubfx	r2, r0, #7, #7
 8004b54:	f000 007f 	and.w	r0, r0, #127	; 0x7f
 8004b58:	764c      	strb	r4, [r1, #25]
 8004b5a:	768a      	strb	r2, [r1, #26]
 8004b5c:	76c8      	strb	r0, [r1, #27]
 8004b5e:	6f1b      	ldr	r3, [r3, #112]	; 0x70
 8004b60:	0fda      	lsrs	r2, r3, #31
 8004b62:	770a      	strb	r2, [r1, #28]
 8004b64:	f3c3 7541 	ubfx	r5, r3, #29, #2
 8004b68:	f3c3 6482 	ubfx	r4, r3, #26, #3
 8004b6c:	f3c3 5283 	ubfx	r2, r3, #22, #4
 8004b70:	774d      	strb	r5, [r1, #29]
 8004b72:	2000      	movs	r0, #0
 8004b74:	778c      	strb	r4, [r1, #30]
 8004b76:	f3c3 5540 	ubfx	r5, r3, #21, #1
 8004b7a:	77ca      	strb	r2, [r1, #31]
 8004b7c:	f3c3 4400 	ubfx	r4, r3, #16, #1
 8004b80:	f3c3 32c0 	ubfx	r2, r3, #15, #1
 8004b84:	f881 5020 	strb.w	r5, [r1, #32]
 8004b88:	f881 0021 	strb.w	r0, [r1, #33]	; 0x21
 8004b8c:	f3c3 3580 	ubfx	r5, r3, #14, #1
 8004b90:	f881 4022 	strb.w	r4, [r1, #34]	; 0x22
 8004b94:	f881 2023 	strb.w	r2, [r1, #35]	; 0x23
 8004b98:	f3c3 3440 	ubfx	r4, r3, #13, #1
 8004b9c:	f3c3 3200 	ubfx	r2, r3, #12, #1
 8004ba0:	f881 5024 	strb.w	r5, [r1, #36]	; 0x24
 8004ba4:	f881 4025 	strb.w	r4, [r1, #37]	; 0x25
 8004ba8:	f3c3 2581 	ubfx	r5, r3, #10, #2
 8004bac:	f881 2026 	strb.w	r2, [r1, #38]	; 0x26
 8004bb0:	f3c3 2401 	ubfx	r4, r3, #8, #2
 8004bb4:	2201      	movs	r2, #1
 8004bb6:	f3c3 0346 	ubfx	r3, r3, #1, #7
 8004bba:	f881 5027 	strb.w	r5, [r1, #39]	; 0x27
 8004bbe:	f881 4028 	strb.w	r4, [r1, #40]	; 0x28
 8004bc2:	f881 3029 	strb.w	r3, [r1, #41]	; 0x29
 8004bc6:	f881 202a 	strb.w	r2, [r1, #42]	; 0x2a
 8004bca:	bcf0      	pop	{r4, r5, r6, r7}
 8004bcc:	4770      	bx	lr
 8004bce:	2801      	cmp	r0, #1
 8004bd0:	d00c      	beq.n	8004bec <HAL_SD_GetCardCSD+0x14c>
 8004bd2:	681a      	ldr	r2, [r3, #0]
 8004bd4:	490e      	ldr	r1, [pc, #56]	; (8004c10 <HAL_SD_GetCardCSD+0x170>)
 8004bd6:	6391      	str	r1, [r2, #56]	; 0x38
 8004bd8:	6b9a      	ldr	r2, [r3, #56]	; 0x38
 8004bda:	2101      	movs	r1, #1
 8004bdc:	f042 5280 	orr.w	r2, r2, #268435456	; 0x10000000
 8004be0:	639a      	str	r2, [r3, #56]	; 0x38
 8004be2:	4608      	mov	r0, r1
 8004be4:	f883 1034 	strb.w	r1, [r3, #52]	; 0x34
 8004be8:	bcf0      	pop	{r4, r5, r6, r7}
 8004bea:	4770      	bx	lr
 8004bec:	6ed8      	ldr	r0, [r3, #108]	; 0x6c
 8004bee:	0412      	lsls	r2, r2, #16
 8004bf0:	f402 127c 	and.w	r2, r2, #4128768	; 0x3f0000
 8004bf4:	ea42 4210 	orr.w	r2, r2, r0, lsr #16
 8004bf8:	610a      	str	r2, [r1, #16]
 8004bfa:	690a      	ldr	r2, [r1, #16]
 8004bfc:	3201      	adds	r2, #1
 8004bfe:	0292      	lsls	r2, r2, #10
 8004c00:	f44f 7400 	mov.w	r4, #512	; 0x200
 8004c04:	655a      	str	r2, [r3, #84]	; 0x54
 8004c06:	e9c3 4216 	strd	r4, r2, [r3, #88]	; 0x58
 8004c0a:	661c      	str	r4, [r3, #96]	; 0x60
 8004c0c:	e79e      	b.n	8004b4c <HAL_SD_GetCardCSD+0xac>
 8004c0e:	bf00      	nop
 8004c10:	004005ff 	.word	0x004005ff

08004c14 <HAL_SD_InitCard>:
 8004c14:	b5f0      	push	{r4, r5, r6, r7, lr}
 8004c16:	2300      	movs	r3, #0
 8004c18:	b099      	sub	sp, #100	; 0x64
 8004c1a:	e9cd 330a 	strd	r3, r3, [sp, #40]	; 0x28
 8004c1e:	2276      	movs	r2, #118	; 0x76
 8004c20:	920c      	str	r2, [sp, #48]	; 0x30
 8004c22:	aa0a      	add	r2, sp, #40	; 0x28
 8004c24:	4604      	mov	r4, r0
 8004c26:	ca07      	ldmia	r2, {r0, r1, r2}
 8004c28:	6825      	ldr	r5, [r4, #0]
 8004c2a:	9309      	str	r3, [sp, #36]	; 0x24
 8004c2c:	e88d 0007 	stmia.w	sp, {r0, r1, r2}
 8004c30:	e9cd 3307 	strd	r3, r3, [sp, #28]
 8004c34:	ab07      	add	r3, sp, #28
 8004c36:	cb0e      	ldmia	r3, {r1, r2, r3}
 8004c38:	4628      	mov	r0, r5
 8004c3a:	f000 fd81 	bl	8005740 <SDIO_Init>
 8004c3e:	b118      	cbz	r0, 8004c48 <HAL_SD_InitCard+0x34>
 8004c40:	2501      	movs	r5, #1
 8004c42:	4628      	mov	r0, r5
 8004c44:	b019      	add	sp, #100	; 0x64
 8004c46:	bdf0      	pop	{r4, r5, r6, r7, pc}
 8004c48:	4e76      	ldr	r6, [pc, #472]	; (8004e24 <HAL_SD_InitCard+0x210>)
 8004c4a:	4605      	mov	r5, r0
 8004c4c:	2701      	movs	r7, #1
 8004c4e:	6820      	ldr	r0, [r4, #0]
 8004c50:	6035      	str	r5, [r6, #0]
 8004c52:	f000 fd9b 	bl	800578c <SDIO_PowerState_ON>
 8004c56:	6037      	str	r7, [r6, #0]
 8004c58:	6820      	ldr	r0, [r4, #0]
 8004c5a:	9506      	str	r5, [sp, #24]
 8004c5c:	f000 fe28 	bl	80058b0 <SDMMC_CmdGoIdleState>
 8004c60:	4606      	mov	r6, r0
 8004c62:	b140      	cbz	r0, 8004c76 <HAL_SD_InitCard+0x62>
 8004c64:	2501      	movs	r5, #1
 8004c66:	f884 5034 	strb.w	r5, [r4, #52]	; 0x34
 8004c6a:	6ba3      	ldr	r3, [r4, #56]	; 0x38
 8004c6c:	4628      	mov	r0, r5
 8004c6e:	431e      	orrs	r6, r3
 8004c70:	63a6      	str	r6, [r4, #56]	; 0x38
 8004c72:	b019      	add	sp, #100	; 0x64
 8004c74:	bdf0      	pop	{r4, r5, r6, r7, pc}
 8004c76:	6820      	ldr	r0, [r4, #0]
 8004c78:	f000 fe40 	bl	80058fc <SDMMC_CmdOperCond>
 8004c7c:	2800      	cmp	r0, #0
 8004c7e:	f040 80a7 	bne.w	8004dd0 <HAL_SD_InitCard+0x1bc>
 8004c82:	64a7      	str	r7, [r4, #72]	; 0x48
 8004c84:	2100      	movs	r1, #0
 8004c86:	6820      	ldr	r0, [r4, #0]
 8004c88:	f000 fe74 	bl	8005974 <SDMMC_CmdAppCommand>
 8004c8c:	bb10      	cbnz	r0, 8004cd4 <HAL_SD_InitCard+0xc0>
 8004c8e:	9a06      	ldr	r2, [sp, #24]
 8004c90:	f64f 73fe 	movw	r3, #65534	; 0xfffe
 8004c94:	429a      	cmp	r2, r3
 8004c96:	d84c      	bhi.n	8004d32 <HAL_SD_InitCard+0x11e>
 8004c98:	4d63      	ldr	r5, [pc, #396]	; (8004e28 <HAL_SD_InitCard+0x214>)
 8004c9a:	f64f 77fe 	movw	r7, #65534	; 0xfffe
 8004c9e:	e00b      	b.n	8004cb8 <HAL_SD_InitCard+0xa4>
 8004ca0:	6820      	ldr	r0, [r4, #0]
 8004ca2:	f000 fd7f 	bl	80057a4 <SDIO_GetResponse>
 8004ca6:	9b06      	ldr	r3, [sp, #24]
 8004ca8:	3301      	adds	r3, #1
 8004caa:	9306      	str	r3, [sp, #24]
 8004cac:	9b06      	ldr	r3, [sp, #24]
 8004cae:	42bb      	cmp	r3, r7
 8004cb0:	ea4f 72d0 	mov.w	r2, r0, lsr #31
 8004cb4:	d811      	bhi.n	8004cda <HAL_SD_InitCard+0xc6>
 8004cb6:	b982      	cbnz	r2, 8004cda <HAL_SD_InitCard+0xc6>
 8004cb8:	2100      	movs	r1, #0
 8004cba:	6820      	ldr	r0, [r4, #0]
 8004cbc:	f000 fe5a 	bl	8005974 <SDMMC_CmdAppCommand>
 8004cc0:	4629      	mov	r1, r5
 8004cc2:	4606      	mov	r6, r0
 8004cc4:	2800      	cmp	r0, #0
 8004cc6:	d1cd      	bne.n	8004c64 <HAL_SD_InitCard+0x50>
 8004cc8:	6820      	ldr	r0, [r4, #0]
 8004cca:	f000 fe63 	bl	8005994 <SDMMC_CmdAppOperCommand>
 8004cce:	4601      	mov	r1, r0
 8004cd0:	2800      	cmp	r0, #0
 8004cd2:	d0e5      	beq.n	8004ca0 <HAL_SD_InitCard+0x8c>
 8004cd4:	f04f 5680 	mov.w	r6, #268435456	; 0x10000000
 8004cd8:	e7c4      	b.n	8004c64 <HAL_SD_InitCard+0x50>
 8004cda:	9a06      	ldr	r2, [sp, #24]
 8004cdc:	f64f 73fe 	movw	r3, #65534	; 0xfffe
 8004ce0:	429a      	cmp	r2, r3
 8004ce2:	d82b      	bhi.n	8004d3c <HAL_SD_InitCard+0x128>
 8004ce4:	0043      	lsls	r3, r0, #1
 8004ce6:	f140 8083 	bpl.w	8004df0 <HAL_SD_InitCard+0x1dc>
 8004cea:	2301      	movs	r3, #1
 8004cec:	6463      	str	r3, [r4, #68]	; 0x44
 8004cee:	2301      	movs	r3, #1
 8004cf0:	6820      	ldr	r0, [r4, #0]
 8004cf2:	f8ad 3016 	strh.w	r3, [sp, #22]
 8004cf6:	f000 fd51 	bl	800579c <SDIO_GetPowerState>
 8004cfa:	2800      	cmp	r0, #0
 8004cfc:	d075      	beq.n	8004dea <HAL_SD_InitCard+0x1d6>
 8004cfe:	6c62      	ldr	r2, [r4, #68]	; 0x44
 8004d00:	6823      	ldr	r3, [r4, #0]
 8004d02:	2a03      	cmp	r2, #3
 8004d04:	d11d      	bne.n	8004d42 <HAL_SD_InitCard+0x12e>
 8004d06:	4618      	mov	r0, r3
 8004d08:	2104      	movs	r1, #4
 8004d0a:	f000 fd4b 	bl	80057a4 <SDIO_GetResponse>
 8004d0e:	0d00      	lsrs	r0, r0, #20
 8004d10:	64e0      	str	r0, [r4, #76]	; 0x4c
 8004d12:	a90d      	add	r1, sp, #52	; 0x34
 8004d14:	4620      	mov	r0, r4
 8004d16:	f7ff fec3 	bl	8004aa0 <HAL_SD_GetCardCSD>
 8004d1a:	4605      	mov	r5, r0
 8004d1c:	2800      	cmp	r0, #0
 8004d1e:	d06a      	beq.n	8004df6 <HAL_SD_InitCard+0x1e2>
 8004d20:	f04f 5080 	mov.w	r0, #268435456	; 0x10000000
 8004d24:	2501      	movs	r5, #1
 8004d26:	f884 5034 	strb.w	r5, [r4, #52]	; 0x34
 8004d2a:	6ba1      	ldr	r1, [r4, #56]	; 0x38
 8004d2c:	4308      	orrs	r0, r1
 8004d2e:	63a0      	str	r0, [r4, #56]	; 0x38
 8004d30:	e787      	b.n	8004c42 <HAL_SD_InitCard+0x2e>
 8004d32:	9a06      	ldr	r2, [sp, #24]
 8004d34:	f64f 73fe 	movw	r3, #65534	; 0xfffe
 8004d38:	429a      	cmp	r2, r3
 8004d3a:	d959      	bls.n	8004df0 <HAL_SD_InitCard+0x1dc>
 8004d3c:	f04f 7680 	mov.w	r6, #16777216	; 0x1000000
 8004d40:	e790      	b.n	8004c64 <HAL_SD_InitCard+0x50>
 8004d42:	4618      	mov	r0, r3
 8004d44:	f000 fe5a 	bl	80059fc <SDMMC_CmdSendCID>
 8004d48:	2800      	cmp	r0, #0
 8004d4a:	d1eb      	bne.n	8004d24 <HAL_SD_InitCard+0x110>
 8004d4c:	4601      	mov	r1, r0
 8004d4e:	6820      	ldr	r0, [r4, #0]
 8004d50:	f000 fd28 	bl	80057a4 <SDIO_GetResponse>
 8004d54:	2104      	movs	r1, #4
 8004d56:	6760      	str	r0, [r4, #116]	; 0x74
 8004d58:	6820      	ldr	r0, [r4, #0]
 8004d5a:	f000 fd23 	bl	80057a4 <SDIO_GetResponse>
 8004d5e:	2108      	movs	r1, #8
 8004d60:	67a0      	str	r0, [r4, #120]	; 0x78
 8004d62:	6820      	ldr	r0, [r4, #0]
 8004d64:	f000 fd1e 	bl	80057a4 <SDIO_GetResponse>
 8004d68:	210c      	movs	r1, #12
 8004d6a:	67e0      	str	r0, [r4, #124]	; 0x7c
 8004d6c:	6820      	ldr	r0, [r4, #0]
 8004d6e:	f000 fd19 	bl	80057a4 <SDIO_GetResponse>
 8004d72:	6c63      	ldr	r3, [r4, #68]	; 0x44
 8004d74:	f8c4 0080 	str.w	r0, [r4, #128]	; 0x80
 8004d78:	2b03      	cmp	r3, #3
 8004d7a:	d050      	beq.n	8004e1e <HAL_SD_InitCard+0x20a>
 8004d7c:	f10d 0116 	add.w	r1, sp, #22
 8004d80:	6820      	ldr	r0, [r4, #0]
 8004d82:	f000 fe57 	bl	8005a34 <SDMMC_CmdSetRelAdd>
 8004d86:	2800      	cmp	r0, #0
 8004d88:	d1cc      	bne.n	8004d24 <HAL_SD_InitCard+0x110>
 8004d8a:	6c62      	ldr	r2, [r4, #68]	; 0x44
 8004d8c:	6823      	ldr	r3, [r4, #0]
 8004d8e:	2a03      	cmp	r2, #3
 8004d90:	d0b9      	beq.n	8004d06 <HAL_SD_InitCard+0xf2>
 8004d92:	f8bd 1016 	ldrh.w	r1, [sp, #22]
 8004d96:	6521      	str	r1, [r4, #80]	; 0x50
 8004d98:	4618      	mov	r0, r3
 8004d9a:	0409      	lsls	r1, r1, #16
 8004d9c:	f000 fe3c 	bl	8005a18 <SDMMC_CmdSendCSD>
 8004da0:	2800      	cmp	r0, #0
 8004da2:	d1bf      	bne.n	8004d24 <HAL_SD_InitCard+0x110>
 8004da4:	4601      	mov	r1, r0
 8004da6:	6820      	ldr	r0, [r4, #0]
 8004da8:	f000 fcfc 	bl	80057a4 <SDIO_GetResponse>
 8004dac:	2104      	movs	r1, #4
 8004dae:	6660      	str	r0, [r4, #100]	; 0x64
 8004db0:	6820      	ldr	r0, [r4, #0]
 8004db2:	f000 fcf7 	bl	80057a4 <SDIO_GetResponse>
 8004db6:	2108      	movs	r1, #8
 8004db8:	66a0      	str	r0, [r4, #104]	; 0x68
 8004dba:	6820      	ldr	r0, [r4, #0]
 8004dbc:	f000 fcf2 	bl	80057a4 <SDIO_GetResponse>
 8004dc0:	210c      	movs	r1, #12
 8004dc2:	66e0      	str	r0, [r4, #108]	; 0x6c
 8004dc4:	6820      	ldr	r0, [r4, #0]
 8004dc6:	f000 fced 	bl	80057a4 <SDIO_GetResponse>
 8004dca:	6823      	ldr	r3, [r4, #0]
 8004dcc:	6720      	str	r0, [r4, #112]	; 0x70
 8004dce:	e79a      	b.n	8004d06 <HAL_SD_InitCard+0xf2>
 8004dd0:	64a6      	str	r6, [r4, #72]	; 0x48
 8004dd2:	6820      	ldr	r0, [r4, #0]
 8004dd4:	f000 fd6c 	bl	80058b0 <SDMMC_CmdGoIdleState>
 8004dd8:	4606      	mov	r6, r0
 8004dda:	2800      	cmp	r0, #0
 8004ddc:	f47f af42 	bne.w	8004c64 <HAL_SD_InitCard+0x50>
 8004de0:	6ca3      	ldr	r3, [r4, #72]	; 0x48
 8004de2:	2b01      	cmp	r3, #1
 8004de4:	f47f af53 	bne.w	8004c8e <HAL_SD_InitCard+0x7a>
 8004de8:	e74c      	b.n	8004c84 <HAL_SD_InitCard+0x70>
 8004dea:	f04f 6080 	mov.w	r0, #67108864	; 0x4000000
 8004dee:	e799      	b.n	8004d24 <HAL_SD_InitCard+0x110>
 8004df0:	2300      	movs	r3, #0
 8004df2:	6463      	str	r3, [r4, #68]	; 0x44
 8004df4:	e77b      	b.n	8004cee <HAL_SD_InitCard+0xda>
 8004df6:	6d22      	ldr	r2, [r4, #80]	; 0x50
 8004df8:	6820      	ldr	r0, [r4, #0]
 8004dfa:	0412      	lsls	r2, r2, #16
 8004dfc:	462b      	mov	r3, r5
 8004dfe:	f000 fd47 	bl	8005890 <SDMMC_CmdSelDesel>
 8004e02:	2800      	cmp	r0, #0
 8004e04:	d18e      	bne.n	8004d24 <HAL_SD_InitCard+0x110>
 8004e06:	1d23      	adds	r3, r4, #4
 8004e08:	f854 6b10 	ldr.w	r6, [r4], #16
 8004e0c:	e894 0007 	ldmia.w	r4, {r0, r1, r2}
 8004e10:	e88d 0007 	stmia.w	sp, {r0, r1, r2}
 8004e14:	4630      	mov	r0, r6
 8004e16:	cb0e      	ldmia	r3, {r1, r2, r3}
 8004e18:	f000 fc92 	bl	8005740 <SDIO_Init>
 8004e1c:	e711      	b.n	8004c42 <HAL_SD_InitCard+0x2e>
 8004e1e:	6823      	ldr	r3, [r4, #0]
 8004e20:	e771      	b.n	8004d06 <HAL_SD_InitCard+0xf2>
 8004e22:	bf00      	nop
 8004e24:	422580a0 	.word	0x422580a0
 8004e28:	c1100000 	.word	0xc1100000

08004e2c <HAL_SD_Init>:
 8004e2c:	b308      	cbz	r0, 8004e72 <HAL_SD_Init+0x46>
 8004e2e:	f890 3034 	ldrb.w	r3, [r0, #52]	; 0x34
 8004e32:	b510      	push	{r4, lr}
 8004e34:	f003 02ff 	and.w	r2, r3, #255	; 0xff
 8004e38:	4604      	mov	r4, r0
 8004e3a:	b173      	cbz	r3, 8004e5a <HAL_SD_Init+0x2e>
 8004e3c:	2303      	movs	r3, #3
 8004e3e:	f884 3034 	strb.w	r3, [r4, #52]	; 0x34
 8004e42:	4620      	mov	r0, r4
 8004e44:	f7ff fee6 	bl	8004c14 <HAL_SD_InitCard>
 8004e48:	b928      	cbnz	r0, 8004e56 <HAL_SD_Init+0x2a>
 8004e4a:	2301      	movs	r3, #1
 8004e4c:	63a0      	str	r0, [r4, #56]	; 0x38
 8004e4e:	6320      	str	r0, [r4, #48]	; 0x30
 8004e50:	f884 3034 	strb.w	r3, [r4, #52]	; 0x34
 8004e54:	bd10      	pop	{r4, pc}
 8004e56:	2001      	movs	r0, #1
 8004e58:	bd10      	pop	{r4, pc}
 8004e5a:	7702      	strb	r2, [r0, #28]
 8004e5c:	f002 ff98 	bl	8007d90 <HAL_SD_MspInit>
 8004e60:	2303      	movs	r3, #3
 8004e62:	f884 3034 	strb.w	r3, [r4, #52]	; 0x34
 8004e66:	4620      	mov	r0, r4
 8004e68:	f7ff fed4 	bl	8004c14 <HAL_SD_InitCard>
 8004e6c:	2800      	cmp	r0, #0
 8004e6e:	d0ec      	beq.n	8004e4a <HAL_SD_Init+0x1e>
 8004e70:	e7f1      	b.n	8004e56 <HAL_SD_Init+0x2a>
 8004e72:	2001      	movs	r0, #1
 8004e74:	4770      	bx	lr
 8004e76:	bf00      	nop

08004e78 <HAL_SD_GetCardInfo>:
 8004e78:	b470      	push	{r4, r5, r6}
 8004e7a:	e9d0 4211 	ldrd	r4, r2, [r0, #68]	; 0x44
 8004e7e:	e9d0 3613 	ldrd	r3, r6, [r0, #76]	; 0x4c
 8004e82:	6d45      	ldr	r5, [r0, #84]	; 0x54
 8004e84:	600c      	str	r4, [r1, #0]
 8004e86:	604a      	str	r2, [r1, #4]
 8004e88:	6d84      	ldr	r4, [r0, #88]	; 0x58
 8004e8a:	608b      	str	r3, [r1, #8]
 8004e8c:	e9d0 2317 	ldrd	r2, r3, [r0, #92]	; 0x5c
 8004e90:	e9c1 6503 	strd	r6, r5, [r1, #12]
 8004e94:	e9c1 4205 	strd	r4, r2, [r1, #20]
 8004e98:	2000      	movs	r0, #0
 8004e9a:	61cb      	str	r3, [r1, #28]
 8004e9c:	bc70      	pop	{r4, r5, r6}
 8004e9e:	4770      	bx	lr

08004ea0 <HAL_SD_ConfigWideBusOperation>:
 8004ea0:	b570      	push	{r4, r5, r6, lr}
 8004ea2:	6c42      	ldr	r2, [r0, #68]	; 0x44
 8004ea4:	2303      	movs	r3, #3
 8004ea6:	2a03      	cmp	r2, #3
 8004ea8:	f880 3034 	strb.w	r3, [r0, #52]	; 0x34
 8004eac:	b08a      	sub	sp, #40	; 0x28
 8004eae:	4604      	mov	r4, r0
 8004eb0:	6803      	ldr	r3, [r0, #0]
 8004eb2:	460e      	mov	r6, r1
 8004eb4:	d029      	beq.n	8004f0a <HAL_SD_ConfigWideBusOperation+0x6a>
 8004eb6:	f5b1 5f80 	cmp.w	r1, #4096	; 0x1000
 8004eba:	d026      	beq.n	8004f0a <HAL_SD_ConfigWideBusOperation+0x6a>
 8004ebc:	f5b1 6f00 	cmp.w	r1, #2048	; 0x800
 8004ec0:	d050      	beq.n	8004f64 <HAL_SD_ConfigWideBusOperation+0xc4>
 8004ec2:	2900      	cmp	r1, #0
 8004ec4:	d02f      	beq.n	8004f26 <HAL_SD_ConfigWideBusOperation+0x86>
 8004ec6:	6b82      	ldr	r2, [r0, #56]	; 0x38
 8004ec8:	f042 6200 	orr.w	r2, r2, #134217728	; 0x8000000
 8004ecc:	6382      	str	r2, [r0, #56]	; 0x38
 8004ece:	6ba5      	ldr	r5, [r4, #56]	; 0x38
 8004ed0:	bb15      	cbnz	r5, 8004f18 <HAL_SD_ConfigWideBusOperation+0x78>
 8004ed2:	e9d4 1205 	ldrd	r1, r2, [r4, #20]
 8004ed6:	e9cd 6107 	strd	r6, r1, [sp, #28]
 8004eda:	9209      	str	r2, [sp, #36]	; 0x24
 8004edc:	aa0a      	add	r2, sp, #40	; 0x28
 8004ede:	e912 0007 	ldmdb	r2, {r0, r1, r2}
 8004ee2:	6866      	ldr	r6, [r4, #4]
 8004ee4:	9604      	str	r6, [sp, #16]
 8004ee6:	68a6      	ldr	r6, [r4, #8]
 8004ee8:	9605      	str	r6, [sp, #20]
 8004eea:	68e6      	ldr	r6, [r4, #12]
 8004eec:	9606      	str	r6, [sp, #24]
 8004eee:	e88d 0007 	stmia.w	sp, {r0, r1, r2}
 8004ef2:	ae04      	add	r6, sp, #16
 8004ef4:	4618      	mov	r0, r3
 8004ef6:	e896 000e 	ldmia.w	r6, {r1, r2, r3}
 8004efa:	f000 fc21 	bl	8005740 <SDIO_Init>
 8004efe:	2301      	movs	r3, #1
 8004f00:	4628      	mov	r0, r5
 8004f02:	f884 3034 	strb.w	r3, [r4, #52]	; 0x34
 8004f06:	b00a      	add	sp, #40	; 0x28
 8004f08:	bd70      	pop	{r4, r5, r6, pc}
 8004f0a:	6ba2      	ldr	r2, [r4, #56]	; 0x38
 8004f0c:	f042 5280 	orr.w	r2, r2, #268435456	; 0x10000000
 8004f10:	63a2      	str	r2, [r4, #56]	; 0x38
 8004f12:	6ba5      	ldr	r5, [r4, #56]	; 0x38
 8004f14:	2d00      	cmp	r5, #0
 8004f16:	d0dc      	beq.n	8004ed2 <HAL_SD_ConfigWideBusOperation+0x32>
 8004f18:	4a25      	ldr	r2, [pc, #148]	; (8004fb0 <HAL_SD_ConfigWideBusOperation+0x110>)
 8004f1a:	639a      	str	r2, [r3, #56]	; 0x38
 8004f1c:	2001      	movs	r0, #1
 8004f1e:	f884 0034 	strb.w	r0, [r4, #52]	; 0x34
 8004f22:	b00a      	add	sp, #40	; 0x28
 8004f24:	bd70      	pop	{r4, r5, r6, pc}
 8004f26:	4618      	mov	r0, r3
 8004f28:	e9cd 1104 	strd	r1, r1, [sp, #16]
 8004f2c:	f000 fc3a 	bl	80057a4 <SDIO_GetResponse>
 8004f30:	0181      	lsls	r1, r0, #6
 8004f32:	d420      	bmi.n	8004f76 <HAL_SD_ConfigWideBusOperation+0xd6>
 8004f34:	a904      	add	r1, sp, #16
 8004f36:	4620      	mov	r0, r4
 8004f38:	f7ff fb36 	bl	80045a8 <SD_FindSCR>
 8004f3c:	b968      	cbnz	r0, 8004f5a <HAL_SD_ConfigWideBusOperation+0xba>
 8004f3e:	9a05      	ldr	r2, [sp, #20]
 8004f40:	6823      	ldr	r3, [r4, #0]
 8004f42:	03d2      	lsls	r2, r2, #15
 8004f44:	d531      	bpl.n	8004faa <HAL_SD_ConfigWideBusOperation+0x10a>
 8004f46:	6d21      	ldr	r1, [r4, #80]	; 0x50
 8004f48:	4618      	mov	r0, r3
 8004f4a:	0409      	lsls	r1, r1, #16
 8004f4c:	f000 fd12 	bl	8005974 <SDMMC_CmdAppCommand>
 8004f50:	b918      	cbnz	r0, 8004f5a <HAL_SD_ConfigWideBusOperation+0xba>
 8004f52:	4601      	mov	r1, r0
 8004f54:	6820      	ldr	r0, [r4, #0]
 8004f56:	f000 fd2f 	bl	80059b8 <SDMMC_CmdBusWidth>
 8004f5a:	6823      	ldr	r3, [r4, #0]
 8004f5c:	6ba2      	ldr	r2, [r4, #56]	; 0x38
 8004f5e:	4310      	orrs	r0, r2
 8004f60:	63a0      	str	r0, [r4, #56]	; 0x38
 8004f62:	e7d6      	b.n	8004f12 <HAL_SD_ConfigWideBusOperation+0x72>
 8004f64:	2200      	movs	r2, #0
 8004f66:	4618      	mov	r0, r3
 8004f68:	4611      	mov	r1, r2
 8004f6a:	e9cd 2204 	strd	r2, r2, [sp, #16]
 8004f6e:	f000 fc19 	bl	80057a4 <SDIO_GetResponse>
 8004f72:	0185      	lsls	r5, r0, #6
 8004f74:	d503      	bpl.n	8004f7e <HAL_SD_ConfigWideBusOperation+0xde>
 8004f76:	6823      	ldr	r3, [r4, #0]
 8004f78:	f44f 6000 	mov.w	r0, #2048	; 0x800
 8004f7c:	e7ee      	b.n	8004f5c <HAL_SD_ConfigWideBusOperation+0xbc>
 8004f7e:	a904      	add	r1, sp, #16
 8004f80:	4620      	mov	r0, r4
 8004f82:	f7ff fb11 	bl	80045a8 <SD_FindSCR>
 8004f86:	2800      	cmp	r0, #0
 8004f88:	d1e7      	bne.n	8004f5a <HAL_SD_ConfigWideBusOperation+0xba>
 8004f8a:	9a05      	ldr	r2, [sp, #20]
 8004f8c:	6823      	ldr	r3, [r4, #0]
 8004f8e:	0350      	lsls	r0, r2, #13
 8004f90:	d50b      	bpl.n	8004faa <HAL_SD_ConfigWideBusOperation+0x10a>
 8004f92:	6d21      	ldr	r1, [r4, #80]	; 0x50
 8004f94:	4618      	mov	r0, r3
 8004f96:	0409      	lsls	r1, r1, #16
 8004f98:	f000 fcec 	bl	8005974 <SDMMC_CmdAppCommand>
 8004f9c:	2800      	cmp	r0, #0
 8004f9e:	d1dc      	bne.n	8004f5a <HAL_SD_ConfigWideBusOperation+0xba>
 8004fa0:	2102      	movs	r1, #2
 8004fa2:	6820      	ldr	r0, [r4, #0]
 8004fa4:	f000 fd08 	bl	80059b8 <SDMMC_CmdBusWidth>
 8004fa8:	e7d7      	b.n	8004f5a <HAL_SD_ConfigWideBusOperation+0xba>
 8004faa:	f04f 6080 	mov.w	r0, #67108864	; 0x4000000
 8004fae:	e7d5      	b.n	8004f5c <HAL_SD_ConfigWideBusOperation+0xbc>
 8004fb0:	004005ff 	.word	0x004005ff

08004fb4 <HAL_SD_GetCardState>:
 8004fb4:	6d01      	ldr	r1, [r0, #80]	; 0x50
 8004fb6:	b510      	push	{r4, lr}
 8004fb8:	0409      	lsls	r1, r1, #16
 8004fba:	4604      	mov	r4, r0
 8004fbc:	6800      	ldr	r0, [r0, #0]
 8004fbe:	f000 fd8f 	bl	8005ae0 <SDMMC_CmdSendStatus>
 8004fc2:	b120      	cbz	r0, 8004fce <HAL_SD_GetCardState+0x1a>
 8004fc4:	6ba1      	ldr	r1, [r4, #56]	; 0x38
 8004fc6:	4308      	orrs	r0, r1
 8004fc8:	63a0      	str	r0, [r4, #56]	; 0x38
 8004fca:	2000      	movs	r0, #0
 8004fcc:	bd10      	pop	{r4, pc}
 8004fce:	4601      	mov	r1, r0
 8004fd0:	6820      	ldr	r0, [r4, #0]
 8004fd2:	f000 fbe7 	bl	80057a4 <SDIO_GetResponse>
 8004fd6:	f3c0 2043 	ubfx	r0, r0, #9, #4
 8004fda:	bd10      	pop	{r4, pc}

08004fdc <TIM_OC1_SetConfig>:
 8004fdc:	b4f0      	push	{r4, r5, r6, r7}
 8004fde:	6a04      	ldr	r4, [r0, #32]
 8004fe0:	f8d1 c008 	ldr.w	ip, [r1, #8]
 8004fe4:	680e      	ldr	r6, [r1, #0]
 8004fe6:	4d12      	ldr	r5, [pc, #72]	; (8005030 <TIM_OC1_SetConfig+0x54>)
 8004fe8:	f024 0401 	bic.w	r4, r4, #1
 8004fec:	6204      	str	r4, [r0, #32]
 8004fee:	6a03      	ldr	r3, [r0, #32]
 8004ff0:	6847      	ldr	r7, [r0, #4]
 8004ff2:	6982      	ldr	r2, [r0, #24]
 8004ff4:	f023 0302 	bic.w	r3, r3, #2
 8004ff8:	f022 0273 	bic.w	r2, r2, #115	; 0x73
 8004ffc:	42a8      	cmp	r0, r5
 8004ffe:	ea43 030c 	orr.w	r3, r3, ip
 8005002:	ea42 0206 	orr.w	r2, r2, r6
 8005006:	d006      	beq.n	8005016 <TIM_OC1_SetConfig+0x3a>
 8005008:	6849      	ldr	r1, [r1, #4]
 800500a:	6047      	str	r7, [r0, #4]
 800500c:	6182      	str	r2, [r0, #24]
 800500e:	bcf0      	pop	{r4, r5, r6, r7}
 8005010:	6341      	str	r1, [r0, #52]	; 0x34
 8005012:	6203      	str	r3, [r0, #32]
 8005014:	4770      	bx	lr
 8005016:	e9d1 4505 	ldrd	r4, r5, [r1, #20]
 800501a:	68ce      	ldr	r6, [r1, #12]
 800501c:	f023 0308 	bic.w	r3, r3, #8
 8005020:	f427 7740 	bic.w	r7, r7, #768	; 0x300
 8005024:	4333      	orrs	r3, r6
 8005026:	432c      	orrs	r4, r5
 8005028:	f023 0304 	bic.w	r3, r3, #4
 800502c:	4327      	orrs	r7, r4
 800502e:	e7eb      	b.n	8005008 <TIM_OC1_SetConfig+0x2c>
 8005030:	40010000 	.word	0x40010000

08005034 <TIM_OC3_SetConfig>:
 8005034:	b4f0      	push	{r4, r5, r6, r7}
 8005036:	6a04      	ldr	r4, [r0, #32]
 8005038:	f8d1 c008 	ldr.w	ip, [r1, #8]
 800503c:	680e      	ldr	r6, [r1, #0]
 800503e:	4d13      	ldr	r5, [pc, #76]	; (800508c <TIM_OC3_SetConfig+0x58>)
 8005040:	f424 7480 	bic.w	r4, r4, #256	; 0x100
 8005044:	6204      	str	r4, [r0, #32]
 8005046:	6a03      	ldr	r3, [r0, #32]
 8005048:	6847      	ldr	r7, [r0, #4]
 800504a:	69c2      	ldr	r2, [r0, #28]
 800504c:	f423 7300 	bic.w	r3, r3, #512	; 0x200
 8005050:	f022 0273 	bic.w	r2, r2, #115	; 0x73
 8005054:	42a8      	cmp	r0, r5
 8005056:	ea43 230c 	orr.w	r3, r3, ip, lsl #8
 800505a:	ea42 0206 	orr.w	r2, r2, r6
 800505e:	d006      	beq.n	800506e <TIM_OC3_SetConfig+0x3a>
 8005060:	6849      	ldr	r1, [r1, #4]
 8005062:	6047      	str	r7, [r0, #4]
 8005064:	61c2      	str	r2, [r0, #28]
 8005066:	bcf0      	pop	{r4, r5, r6, r7}
 8005068:	63c1      	str	r1, [r0, #60]	; 0x3c
 800506a:	6203      	str	r3, [r0, #32]
 800506c:	4770      	bx	lr
 800506e:	e9d1 4505 	ldrd	r4, r5, [r1, #20]
 8005072:	68ce      	ldr	r6, [r1, #12]
 8005074:	f423 6300 	bic.w	r3, r3, #2048	; 0x800
 8005078:	f427 5740 	bic.w	r7, r7, #12288	; 0x3000
 800507c:	ea43 2306 	orr.w	r3, r3, r6, lsl #8
 8005080:	432c      	orrs	r4, r5
 8005082:	f423 6380 	bic.w	r3, r3, #1024	; 0x400
 8005086:	ea47 1704 	orr.w	r7, r7, r4, lsl #4
 800508a:	e7e9      	b.n	8005060 <TIM_OC3_SetConfig+0x2c>
 800508c:	40010000 	.word	0x40010000

08005090 <TIM_OC4_SetConfig>:
 8005090:	b4f0      	push	{r4, r5, r6, r7}
 8005092:	6a04      	ldr	r4, [r0, #32]
 8005094:	688f      	ldr	r7, [r1, #8]
 8005096:	680e      	ldr	r6, [r1, #0]
 8005098:	4d0e      	ldr	r5, [pc, #56]	; (80050d4 <TIM_OC4_SetConfig+0x44>)
 800509a:	f424 5480 	bic.w	r4, r4, #4096	; 0x1000
 800509e:	6204      	str	r4, [r0, #32]
 80050a0:	6a03      	ldr	r3, [r0, #32]
 80050a2:	6844      	ldr	r4, [r0, #4]
 80050a4:	69c2      	ldr	r2, [r0, #28]
 80050a6:	f423 5300 	bic.w	r3, r3, #8192	; 0x2000
 80050aa:	f422 42e6 	bic.w	r2, r2, #29440	; 0x7300
 80050ae:	42a8      	cmp	r0, r5
 80050b0:	ea43 3307 	orr.w	r3, r3, r7, lsl #12
 80050b4:	ea42 2206 	orr.w	r2, r2, r6, lsl #8
 80050b8:	d104      	bne.n	80050c4 <TIM_OC4_SetConfig+0x34>
 80050ba:	694d      	ldr	r5, [r1, #20]
 80050bc:	f424 4480 	bic.w	r4, r4, #16384	; 0x4000
 80050c0:	ea44 1485 	orr.w	r4, r4, r5, lsl #6
 80050c4:	6849      	ldr	r1, [r1, #4]
 80050c6:	6044      	str	r4, [r0, #4]
 80050c8:	61c2      	str	r2, [r0, #28]
 80050ca:	bcf0      	pop	{r4, r5, r6, r7}
 80050cc:	6401      	str	r1, [r0, #64]	; 0x40
 80050ce:	6203      	str	r3, [r0, #32]
 80050d0:	4770      	bx	lr
 80050d2:	bf00      	nop
 80050d4:	40010000 	.word	0x40010000

080050d8 <HAL_TIM_PeriodElapsedCallback>:
 80050d8:	4770      	bx	lr
 80050da:	bf00      	nop

080050dc <HAL_TIM_OC_DelayElapsedCallback>:
 80050dc:	4770      	bx	lr
 80050de:	bf00      	nop

080050e0 <HAL_TIM_IC_CaptureCallback>:
 80050e0:	4770      	bx	lr
 80050e2:	bf00      	nop

080050e4 <HAL_TIM_PWM_PulseFinishedCallback>:
 80050e4:	4770      	bx	lr
 80050e6:	bf00      	nop

080050e8 <HAL_TIM_TriggerCallback>:
 80050e8:	4770      	bx	lr
 80050ea:	bf00      	nop

080050ec <HAL_TIM_IRQHandler>:
 80050ec:	6803      	ldr	r3, [r0, #0]
 80050ee:	691a      	ldr	r2, [r3, #16]
 80050f0:	0791      	lsls	r1, r2, #30
 80050f2:	b510      	push	{r4, lr}
 80050f4:	4604      	mov	r4, r0
 80050f6:	d502      	bpl.n	80050fe <HAL_TIM_IRQHandler+0x12>
 80050f8:	68da      	ldr	r2, [r3, #12]
 80050fa:	0792      	lsls	r2, r2, #30
 80050fc:	d45f      	bmi.n	80051be <HAL_TIM_IRQHandler+0xd2>
 80050fe:	691a      	ldr	r2, [r3, #16]
 8005100:	0750      	lsls	r0, r2, #29
 8005102:	d502      	bpl.n	800510a <HAL_TIM_IRQHandler+0x1e>
 8005104:	68da      	ldr	r2, [r3, #12]
 8005106:	0751      	lsls	r1, r2, #29
 8005108:	d446      	bmi.n	8005198 <HAL_TIM_IRQHandler+0xac>
 800510a:	691a      	ldr	r2, [r3, #16]
 800510c:	0712      	lsls	r2, r2, #28
 800510e:	d502      	bpl.n	8005116 <HAL_TIM_IRQHandler+0x2a>
 8005110:	68da      	ldr	r2, [r3, #12]
 8005112:	0710      	lsls	r0, r2, #28
 8005114:	d42e      	bmi.n	8005174 <HAL_TIM_IRQHandler+0x88>
 8005116:	691a      	ldr	r2, [r3, #16]
 8005118:	06d2      	lsls	r2, r2, #27
 800511a:	d502      	bpl.n	8005122 <HAL_TIM_IRQHandler+0x36>
 800511c:	68da      	ldr	r2, [r3, #12]
 800511e:	06d0      	lsls	r0, r2, #27
 8005120:	d418      	bmi.n	8005154 <HAL_TIM_IRQHandler+0x68>
 8005122:	691a      	ldr	r2, [r3, #16]
 8005124:	07d1      	lsls	r1, r2, #31
 8005126:	d502      	bpl.n	800512e <HAL_TIM_IRQHandler+0x42>
 8005128:	68da      	ldr	r2, [r3, #12]
 800512a:	07d2      	lsls	r2, r2, #31
 800512c:	d45d      	bmi.n	80051ea <HAL_TIM_IRQHandler+0xfe>
 800512e:	691a      	ldr	r2, [r3, #16]
 8005130:	0610      	lsls	r0, r2, #24
 8005132:	d502      	bpl.n	800513a <HAL_TIM_IRQHandler+0x4e>
 8005134:	68da      	ldr	r2, [r3, #12]
 8005136:	0611      	lsls	r1, r2, #24
 8005138:	d45f      	bmi.n	80051fa <HAL_TIM_IRQHandler+0x10e>
 800513a:	691a      	ldr	r2, [r3, #16]
 800513c:	0652      	lsls	r2, r2, #25
 800513e:	d502      	bpl.n	8005146 <HAL_TIM_IRQHandler+0x5a>
 8005140:	68da      	ldr	r2, [r3, #12]
 8005142:	0650      	lsls	r0, r2, #25
 8005144:	d461      	bmi.n	800520a <HAL_TIM_IRQHandler+0x11e>
 8005146:	691a      	ldr	r2, [r3, #16]
 8005148:	0691      	lsls	r1, r2, #26
 800514a:	d502      	bpl.n	8005152 <HAL_TIM_IRQHandler+0x66>
 800514c:	68da      	ldr	r2, [r3, #12]
 800514e:	0692      	lsls	r2, r2, #26
 8005150:	d443      	bmi.n	80051da <HAL_TIM_IRQHandler+0xee>
 8005152:	bd10      	pop	{r4, pc}
 8005154:	f06f 0210 	mvn.w	r2, #16
 8005158:	611a      	str	r2, [r3, #16]
 800515a:	69db      	ldr	r3, [r3, #28]
 800515c:	2208      	movs	r2, #8
 800515e:	f413 7f40 	tst.w	r3, #768	; 0x300
 8005162:	7722      	strb	r2, [r4, #28]
 8005164:	4620      	mov	r0, r4
 8005166:	d064      	beq.n	8005232 <HAL_TIM_IRQHandler+0x146>
 8005168:	f7ff ffba 	bl	80050e0 <HAL_TIM_IC_CaptureCallback>
 800516c:	2200      	movs	r2, #0
 800516e:	6823      	ldr	r3, [r4, #0]
 8005170:	7722      	strb	r2, [r4, #28]
 8005172:	e7d6      	b.n	8005122 <HAL_TIM_IRQHandler+0x36>
 8005174:	f06f 0208 	mvn.w	r2, #8
 8005178:	611a      	str	r2, [r3, #16]
 800517a:	69db      	ldr	r3, [r3, #28]
 800517c:	2204      	movs	r2, #4
 800517e:	0799      	lsls	r1, r3, #30
 8005180:	7722      	strb	r2, [r4, #28]
 8005182:	4620      	mov	r0, r4
 8005184:	d152      	bne.n	800522c <HAL_TIM_IRQHandler+0x140>
 8005186:	f7ff ffa9 	bl	80050dc <HAL_TIM_OC_DelayElapsedCallback>
 800518a:	4620      	mov	r0, r4
 800518c:	f7ff ffaa 	bl	80050e4 <HAL_TIM_PWM_PulseFinishedCallback>
 8005190:	2200      	movs	r2, #0
 8005192:	6823      	ldr	r3, [r4, #0]
 8005194:	7722      	strb	r2, [r4, #28]
 8005196:	e7be      	b.n	8005116 <HAL_TIM_IRQHandler+0x2a>
 8005198:	f06f 0204 	mvn.w	r2, #4
 800519c:	611a      	str	r2, [r3, #16]
 800519e:	699b      	ldr	r3, [r3, #24]
 80051a0:	2202      	movs	r2, #2
 80051a2:	f413 7f40 	tst.w	r3, #768	; 0x300
 80051a6:	7722      	strb	r2, [r4, #28]
 80051a8:	4620      	mov	r0, r4
 80051aa:	d13c      	bne.n	8005226 <HAL_TIM_IRQHandler+0x13a>
 80051ac:	f7ff ff96 	bl	80050dc <HAL_TIM_OC_DelayElapsedCallback>
 80051b0:	4620      	mov	r0, r4
 80051b2:	f7ff ff97 	bl	80050e4 <HAL_TIM_PWM_PulseFinishedCallback>
 80051b6:	2200      	movs	r2, #0
 80051b8:	6823      	ldr	r3, [r4, #0]
 80051ba:	7722      	strb	r2, [r4, #28]
 80051bc:	e7a5      	b.n	800510a <HAL_TIM_IRQHandler+0x1e>
 80051be:	f06f 0202 	mvn.w	r2, #2
 80051c2:	611a      	str	r2, [r3, #16]
 80051c4:	699b      	ldr	r3, [r3, #24]
 80051c6:	2201      	movs	r2, #1
 80051c8:	079b      	lsls	r3, r3, #30
 80051ca:	7702      	strb	r2, [r0, #28]
 80051cc:	d025      	beq.n	800521a <HAL_TIM_IRQHandler+0x12e>
 80051ce:	f7ff ff87 	bl	80050e0 <HAL_TIM_IC_CaptureCallback>
 80051d2:	2200      	movs	r2, #0
 80051d4:	6823      	ldr	r3, [r4, #0]
 80051d6:	7722      	strb	r2, [r4, #28]
 80051d8:	e791      	b.n	80050fe <HAL_TIM_IRQHandler+0x12>
 80051da:	f06f 0220 	mvn.w	r2, #32
 80051de:	4620      	mov	r0, r4
 80051e0:	611a      	str	r2, [r3, #16]
 80051e2:	e8bd 4010 	ldmia.w	sp!, {r4, lr}
 80051e6:	f000 b9c3 	b.w	8005570 <HAL_TIMEx_CommutCallback>
 80051ea:	f06f 0201 	mvn.w	r2, #1
 80051ee:	611a      	str	r2, [r3, #16]
 80051f0:	4620      	mov	r0, r4
 80051f2:	f7ff ff71 	bl	80050d8 <HAL_TIM_PeriodElapsedCallback>
 80051f6:	6823      	ldr	r3, [r4, #0]
 80051f8:	e799      	b.n	800512e <HAL_TIM_IRQHandler+0x42>
 80051fa:	f06f 0280 	mvn.w	r2, #128	; 0x80
 80051fe:	611a      	str	r2, [r3, #16]
 8005200:	4620      	mov	r0, r4
 8005202:	f000 f9b7 	bl	8005574 <HAL_TIMEx_BreakCallback>
 8005206:	6823      	ldr	r3, [r4, #0]
 8005208:	e797      	b.n	800513a <HAL_TIM_IRQHandler+0x4e>
 800520a:	f06f 0240 	mvn.w	r2, #64	; 0x40
 800520e:	611a      	str	r2, [r3, #16]
 8005210:	4620      	mov	r0, r4
 8005212:	f7ff ff69 	bl	80050e8 <HAL_TIM_TriggerCallback>
 8005216:	6823      	ldr	r3, [r4, #0]
 8005218:	e795      	b.n	8005146 <HAL_TIM_IRQHandler+0x5a>
 800521a:	f7ff ff5f 	bl	80050dc <HAL_TIM_OC_DelayElapsedCallback>
 800521e:	4620      	mov	r0, r4
 8005220:	f7ff ff60 	bl	80050e4 <HAL_TIM_PWM_PulseFinishedCallback>
 8005224:	e7d5      	b.n	80051d2 <HAL_TIM_IRQHandler+0xe6>
 8005226:	f7ff ff5b 	bl	80050e0 <HAL_TIM_IC_CaptureCallback>
 800522a:	e7c4      	b.n	80051b6 <HAL_TIM_IRQHandler+0xca>
 800522c:	f7ff ff58 	bl	80050e0 <HAL_TIM_IC_CaptureCallback>
 8005230:	e7ae      	b.n	8005190 <HAL_TIM_IRQHandler+0xa4>
 8005232:	f7ff ff53 	bl	80050dc <HAL_TIM_OC_DelayElapsedCallback>
 8005236:	4620      	mov	r0, r4
 8005238:	f7ff ff54 	bl	80050e4 <HAL_TIM_PWM_PulseFinishedCallback>
 800523c:	e796      	b.n	800516c <HAL_TIM_IRQHandler+0x80>
 800523e:	bf00      	nop

08005240 <TIM_Base_SetConfig>:
 8005240:	b4f0      	push	{r4, r5, r6, r7}
 8005242:	4d24      	ldr	r5, [pc, #144]	; (80052d4 <TIM_Base_SetConfig+0x94>)
 8005244:	6803      	ldr	r3, [r0, #0]
 8005246:	694e      	ldr	r6, [r1, #20]
 8005248:	688c      	ldr	r4, [r1, #8]
 800524a:	680a      	ldr	r2, [r1, #0]
 800524c:	42a8      	cmp	r0, r5
 800524e:	d02d      	beq.n	80052ac <TIM_Base_SetConfig+0x6c>
 8005250:	f1b0 4f80 	cmp.w	r0, #1073741824	; 0x40000000
 8005254:	d018      	beq.n	8005288 <TIM_Base_SetConfig+0x48>
 8005256:	f5a5 457c 	sub.w	r5, r5, #64512	; 0xfc00
 800525a:	42a8      	cmp	r0, r5
 800525c:	d014      	beq.n	8005288 <TIM_Base_SetConfig+0x48>
 800525e:	f505 6580 	add.w	r5, r5, #1024	; 0x400
 8005262:	42a8      	cmp	r0, r5
 8005264:	d010      	beq.n	8005288 <TIM_Base_SetConfig+0x48>
 8005266:	f505 6580 	add.w	r5, r5, #1024	; 0x400
 800526a:	42a8      	cmp	r0, r5
 800526c:	d00c      	beq.n	8005288 <TIM_Base_SetConfig+0x48>
 800526e:	f505 359a 	add.w	r5, r5, #78848	; 0x13400
 8005272:	42a8      	cmp	r0, r5
 8005274:	d00c      	beq.n	8005290 <TIM_Base_SetConfig+0x50>
 8005276:	f505 6580 	add.w	r5, r5, #1024	; 0x400
 800527a:	42a8      	cmp	r0, r5
 800527c:	d008      	beq.n	8005290 <TIM_Base_SetConfig+0x50>
 800527e:	f505 6580 	add.w	r5, r5, #1024	; 0x400
 8005282:	42a8      	cmp	r0, r5
 8005284:	d108      	bne.n	8005298 <TIM_Base_SetConfig+0x58>
 8005286:	e003      	b.n	8005290 <TIM_Base_SetConfig+0x50>
 8005288:	684d      	ldr	r5, [r1, #4]
 800528a:	f023 0370 	bic.w	r3, r3, #112	; 0x70
 800528e:	432b      	orrs	r3, r5
 8005290:	68c9      	ldr	r1, [r1, #12]
 8005292:	f423 7340 	bic.w	r3, r3, #768	; 0x300
 8005296:	430b      	orrs	r3, r1
 8005298:	f023 0380 	bic.w	r3, r3, #128	; 0x80
 800529c:	4333      	orrs	r3, r6
 800529e:	6003      	str	r3, [r0, #0]
 80052a0:	2301      	movs	r3, #1
 80052a2:	62c4      	str	r4, [r0, #44]	; 0x2c
 80052a4:	6282      	str	r2, [r0, #40]	; 0x28
 80052a6:	bcf0      	pop	{r4, r5, r6, r7}
 80052a8:	6143      	str	r3, [r0, #20]
 80052aa:	4770      	bx	lr
 80052ac:	684f      	ldr	r7, [r1, #4]
 80052ae:	68cd      	ldr	r5, [r1, #12]
 80052b0:	f023 0370 	bic.w	r3, r3, #112	; 0x70
 80052b4:	433b      	orrs	r3, r7
 80052b6:	f423 7340 	bic.w	r3, r3, #768	; 0x300
 80052ba:	432b      	orrs	r3, r5
 80052bc:	f023 0380 	bic.w	r3, r3, #128	; 0x80
 80052c0:	4333      	orrs	r3, r6
 80052c2:	6003      	str	r3, [r0, #0]
 80052c4:	62c4      	str	r4, [r0, #44]	; 0x2c
 80052c6:	6282      	str	r2, [r0, #40]	; 0x28
 80052c8:	690b      	ldr	r3, [r1, #16]
 80052ca:	6303      	str	r3, [r0, #48]	; 0x30
 80052cc:	2301      	movs	r3, #1
 80052ce:	6143      	str	r3, [r0, #20]
 80052d0:	bcf0      	pop	{r4, r5, r6, r7}
 80052d2:	4770      	bx	lr
 80052d4:	40010000 	.word	0x40010000

080052d8 <HAL_TIM_PWM_Init>:
 80052d8:	b1b8      	cbz	r0, 800530a <HAL_TIM_PWM_Init+0x32>
 80052da:	f890 303d 	ldrb.w	r3, [r0, #61]	; 0x3d
 80052de:	b510      	push	{r4, lr}
 80052e0:	f003 02ff 	and.w	r2, r3, #255	; 0xff
 80052e4:	4604      	mov	r4, r0
 80052e6:	b15b      	cbz	r3, 8005300 <HAL_TIM_PWM_Init+0x28>
 80052e8:	2302      	movs	r3, #2
 80052ea:	f884 303d 	strb.w	r3, [r4, #61]	; 0x3d
 80052ee:	6820      	ldr	r0, [r4, #0]
 80052f0:	1d21      	adds	r1, r4, #4
 80052f2:	f7ff ffa5 	bl	8005240 <TIM_Base_SetConfig>
 80052f6:	2301      	movs	r3, #1
 80052f8:	f884 303d 	strb.w	r3, [r4, #61]	; 0x3d
 80052fc:	2000      	movs	r0, #0
 80052fe:	bd10      	pop	{r4, pc}
 8005300:	f880 203c 	strb.w	r2, [r0, #60]	; 0x3c
 8005304:	f002 fd94 	bl	8007e30 <HAL_TIM_PWM_MspInit>
 8005308:	e7ee      	b.n	80052e8 <HAL_TIM_PWM_Init+0x10>
 800530a:	2001      	movs	r0, #1
 800530c:	4770      	bx	lr
 800530e:	bf00      	nop

08005310 <TIM_OC2_SetConfig>:
 8005310:	b4f0      	push	{r4, r5, r6, r7}
 8005312:	6a04      	ldr	r4, [r0, #32]
 8005314:	f8d1 c008 	ldr.w	ip, [r1, #8]
 8005318:	680e      	ldr	r6, [r1, #0]
 800531a:	4d13      	ldr	r5, [pc, #76]	; (8005368 <TIM_OC2_SetConfig+0x58>)
 800531c:	f024 0410 	bic.w	r4, r4, #16
 8005320:	6204      	str	r4, [r0, #32]
 8005322:	6a03      	ldr	r3, [r0, #32]
 8005324:	6847      	ldr	r7, [r0, #4]
 8005326:	6982      	ldr	r2, [r0, #24]
 8005328:	f023 0320 	bic.w	r3, r3, #32
 800532c:	f422 42e6 	bic.w	r2, r2, #29440	; 0x7300
 8005330:	42a8      	cmp	r0, r5
 8005332:	ea43 130c 	orr.w	r3, r3, ip, lsl #4
 8005336:	ea42 2206 	orr.w	r2, r2, r6, lsl #8
 800533a:	d006      	beq.n	800534a <TIM_OC2_SetConfig+0x3a>
 800533c:	6849      	ldr	r1, [r1, #4]
 800533e:	6047      	str	r7, [r0, #4]
 8005340:	6182      	str	r2, [r0, #24]
 8005342:	bcf0      	pop	{r4, r5, r6, r7}
 8005344:	6381      	str	r1, [r0, #56]	; 0x38
 8005346:	6203      	str	r3, [r0, #32]
 8005348:	4770      	bx	lr
 800534a:	e9d1 4505 	ldrd	r4, r5, [r1, #20]
 800534e:	68ce      	ldr	r6, [r1, #12]
 8005350:	f023 0380 	bic.w	r3, r3, #128	; 0x80
 8005354:	f427 6740 	bic.w	r7, r7, #3072	; 0xc00
 8005358:	ea43 1306 	orr.w	r3, r3, r6, lsl #4
 800535c:	432c      	orrs	r4, r5
 800535e:	f023 0340 	bic.w	r3, r3, #64	; 0x40
 8005362:	ea47 0784 	orr.w	r7, r7, r4, lsl #2
 8005366:	e7e9      	b.n	800533c <TIM_OC2_SetConfig+0x2c>
 8005368:	40010000 	.word	0x40010000

0800536c <HAL_TIM_PWM_ConfigChannel>:
 800536c:	b538      	push	{r3, r4, r5, lr}
 800536e:	f890 303c 	ldrb.w	r3, [r0, #60]	; 0x3c
 8005372:	2b01      	cmp	r3, #1
 8005374:	d074      	beq.n	8005460 <HAL_TIM_PWM_ConfigChannel+0xf4>
 8005376:	460d      	mov	r5, r1
 8005378:	2302      	movs	r3, #2
 800537a:	2101      	movs	r1, #1
 800537c:	4604      	mov	r4, r0
 800537e:	f880 103c 	strb.w	r1, [r0, #60]	; 0x3c
 8005382:	f880 303d 	strb.w	r3, [r0, #61]	; 0x3d
 8005386:	2a0c      	cmp	r2, #12
 8005388:	d819      	bhi.n	80053be <HAL_TIM_PWM_ConfigChannel+0x52>
 800538a:	e8df f002 	tbb	[pc, r2]
 800538e:	1807      	.short	0x1807
 8005390:	18381818 	.word	0x18381818
 8005394:	18511818 	.word	0x18511818
 8005398:	1818      	.short	0x1818
 800539a:	1f          	.byte	0x1f
 800539b:	00          	.byte	0x00
 800539c:	4629      	mov	r1, r5
 800539e:	6800      	ldr	r0, [r0, #0]
 80053a0:	f7ff fe1c 	bl	8004fdc <TIM_OC1_SetConfig>
 80053a4:	6823      	ldr	r3, [r4, #0]
 80053a6:	6928      	ldr	r0, [r5, #16]
 80053a8:	6999      	ldr	r1, [r3, #24]
 80053aa:	f041 0108 	orr.w	r1, r1, #8
 80053ae:	6199      	str	r1, [r3, #24]
 80053b0:	6999      	ldr	r1, [r3, #24]
 80053b2:	f021 0104 	bic.w	r1, r1, #4
 80053b6:	6199      	str	r1, [r3, #24]
 80053b8:	699a      	ldr	r2, [r3, #24]
 80053ba:	4302      	orrs	r2, r0
 80053bc:	619a      	str	r2, [r3, #24]
 80053be:	2301      	movs	r3, #1
 80053c0:	2000      	movs	r0, #0
 80053c2:	f884 303d 	strb.w	r3, [r4, #61]	; 0x3d
 80053c6:	f884 003c 	strb.w	r0, [r4, #60]	; 0x3c
 80053ca:	bd38      	pop	{r3, r4, r5, pc}
 80053cc:	4629      	mov	r1, r5
 80053ce:	6800      	ldr	r0, [r0, #0]
 80053d0:	f7ff fe5e 	bl	8005090 <TIM_OC4_SetConfig>
 80053d4:	6823      	ldr	r3, [r4, #0]
 80053d6:	6928      	ldr	r0, [r5, #16]
 80053d8:	69d9      	ldr	r1, [r3, #28]
 80053da:	f441 6100 	orr.w	r1, r1, #2048	; 0x800
 80053de:	61d9      	str	r1, [r3, #28]
 80053e0:	69d9      	ldr	r1, [r3, #28]
 80053e2:	f421 6180 	bic.w	r1, r1, #1024	; 0x400
 80053e6:	61d9      	str	r1, [r3, #28]
 80053e8:	69da      	ldr	r2, [r3, #28]
 80053ea:	ea42 2200 	orr.w	r2, r2, r0, lsl #8
 80053ee:	61da      	str	r2, [r3, #28]
 80053f0:	2000      	movs	r0, #0
 80053f2:	2301      	movs	r3, #1
 80053f4:	f884 303d 	strb.w	r3, [r4, #61]	; 0x3d
 80053f8:	f884 003c 	strb.w	r0, [r4, #60]	; 0x3c
 80053fc:	e7e5      	b.n	80053ca <HAL_TIM_PWM_ConfigChannel+0x5e>
 80053fe:	4629      	mov	r1, r5
 8005400:	6800      	ldr	r0, [r0, #0]
 8005402:	f7ff ff85 	bl	8005310 <TIM_OC2_SetConfig>
 8005406:	6823      	ldr	r3, [r4, #0]
 8005408:	6928      	ldr	r0, [r5, #16]
 800540a:	6999      	ldr	r1, [r3, #24]
 800540c:	f441 6100 	orr.w	r1, r1, #2048	; 0x800
 8005410:	6199      	str	r1, [r3, #24]
 8005412:	6999      	ldr	r1, [r3, #24]
 8005414:	f421 6180 	bic.w	r1, r1, #1024	; 0x400
 8005418:	6199      	str	r1, [r3, #24]
 800541a:	699a      	ldr	r2, [r3, #24]
 800541c:	ea42 2200 	orr.w	r2, r2, r0, lsl #8
 8005420:	619a      	str	r2, [r3, #24]
 8005422:	2000      	movs	r0, #0
 8005424:	2301      	movs	r3, #1
 8005426:	f884 303d 	strb.w	r3, [r4, #61]	; 0x3d
 800542a:	f884 003c 	strb.w	r0, [r4, #60]	; 0x3c
 800542e:	e7cc      	b.n	80053ca <HAL_TIM_PWM_ConfigChannel+0x5e>
 8005430:	4629      	mov	r1, r5
 8005432:	6800      	ldr	r0, [r0, #0]
 8005434:	f7ff fdfe 	bl	8005034 <TIM_OC3_SetConfig>
 8005438:	6823      	ldr	r3, [r4, #0]
 800543a:	6928      	ldr	r0, [r5, #16]
 800543c:	69d9      	ldr	r1, [r3, #28]
 800543e:	f041 0108 	orr.w	r1, r1, #8
 8005442:	61d9      	str	r1, [r3, #28]
 8005444:	69d9      	ldr	r1, [r3, #28]
 8005446:	f021 0104 	bic.w	r1, r1, #4
 800544a:	61d9      	str	r1, [r3, #28]
 800544c:	69da      	ldr	r2, [r3, #28]
 800544e:	4302      	orrs	r2, r0
 8005450:	61da      	str	r2, [r3, #28]
 8005452:	2000      	movs	r0, #0
 8005454:	2301      	movs	r3, #1
 8005456:	f884 303d 	strb.w	r3, [r4, #61]	; 0x3d
 800545a:	f884 003c 	strb.w	r0, [r4, #60]	; 0x3c
 800545e:	e7b4      	b.n	80053ca <HAL_TIM_PWM_ConfigChannel+0x5e>
 8005460:	2002      	movs	r0, #2
 8005462:	bd38      	pop	{r3, r4, r5, pc}

08005464 <HAL_TIMEx_OCN_Start>:
 8005464:	6803      	ldr	r3, [r0, #0]
 8005466:	2204      	movs	r2, #4
 8005468:	6a18      	ldr	r0, [r3, #32]
 800546a:	f001 011f 	and.w	r1, r1, #31
 800546e:	fa02 f101 	lsl.w	r1, r2, r1
 8005472:	ea20 0001 	bic.w	r0, r0, r1
 8005476:	6218      	str	r0, [r3, #32]
 8005478:	6a1a      	ldr	r2, [r3, #32]
 800547a:	4311      	orrs	r1, r2
 800547c:	6219      	str	r1, [r3, #32]
 800547e:	6c5a      	ldr	r2, [r3, #68]	; 0x44
 8005480:	f442 4200 	orr.w	r2, r2, #32768	; 0x8000
 8005484:	645a      	str	r2, [r3, #68]	; 0x44
 8005486:	689a      	ldr	r2, [r3, #8]
 8005488:	f002 0207 	and.w	r2, r2, #7
 800548c:	2a06      	cmp	r2, #6
 800548e:	d003      	beq.n	8005498 <HAL_TIMEx_OCN_Start+0x34>
 8005490:	681a      	ldr	r2, [r3, #0]
 8005492:	f042 0201 	orr.w	r2, r2, #1
 8005496:	601a      	str	r2, [r3, #0]
 8005498:	2000      	movs	r0, #0
 800549a:	4770      	bx	lr

0800549c <HAL_TIMEx_PWMN_Start>:
 800549c:	f7ff bfe2 	b.w	8005464 <HAL_TIMEx_OCN_Start>

080054a0 <HAL_TIMEx_MasterConfigSynchronization>:
 80054a0:	f890 303c 	ldrb.w	r3, [r0, #60]	; 0x3c
 80054a4:	2b01      	cmp	r3, #1
 80054a6:	d032      	beq.n	800550e <HAL_TIMEx_MasterConfigSynchronization+0x6e>
 80054a8:	6803      	ldr	r3, [r0, #0]
 80054aa:	2202      	movs	r2, #2
 80054ac:	b470      	push	{r4, r5, r6}
 80054ae:	f880 203d 	strb.w	r2, [r0, #61]	; 0x3d
 80054b2:	685a      	ldr	r2, [r3, #4]
 80054b4:	680e      	ldr	r6, [r1, #0]
 80054b6:	4d17      	ldr	r5, [pc, #92]	; (8005514 <HAL_TIMEx_MasterConfigSynchronization+0x74>)
 80054b8:	689c      	ldr	r4, [r3, #8]
 80054ba:	f022 0270 	bic.w	r2, r2, #112	; 0x70
 80054be:	4332      	orrs	r2, r6
 80054c0:	42ab      	cmp	r3, r5
 80054c2:	f04f 0601 	mov.w	r6, #1
 80054c6:	f880 603c 	strb.w	r6, [r0, #60]	; 0x3c
 80054ca:	605a      	str	r2, [r3, #4]
 80054cc:	d011      	beq.n	80054f2 <HAL_TIMEx_MasterConfigSynchronization+0x52>
 80054ce:	f1b3 4f80 	cmp.w	r3, #1073741824	; 0x40000000
 80054d2:	d00e      	beq.n	80054f2 <HAL_TIMEx_MasterConfigSynchronization+0x52>
 80054d4:	4a10      	ldr	r2, [pc, #64]	; (8005518 <HAL_TIMEx_MasterConfigSynchronization+0x78>)
 80054d6:	4293      	cmp	r3, r2
 80054d8:	d00b      	beq.n	80054f2 <HAL_TIMEx_MasterConfigSynchronization+0x52>
 80054da:	f502 6280 	add.w	r2, r2, #1024	; 0x400
 80054de:	4293      	cmp	r3, r2
 80054e0:	d007      	beq.n	80054f2 <HAL_TIMEx_MasterConfigSynchronization+0x52>
 80054e2:	f502 6280 	add.w	r2, r2, #1024	; 0x400
 80054e6:	4293      	cmp	r3, r2
 80054e8:	d003      	beq.n	80054f2 <HAL_TIMEx_MasterConfigSynchronization+0x52>
 80054ea:	f502 329a 	add.w	r2, r2, #78848	; 0x13400
 80054ee:	4293      	cmp	r3, r2
 80054f0:	d104      	bne.n	80054fc <HAL_TIMEx_MasterConfigSynchronization+0x5c>
 80054f2:	684a      	ldr	r2, [r1, #4]
 80054f4:	f024 0480 	bic.w	r4, r4, #128	; 0x80
 80054f8:	4314      	orrs	r4, r2
 80054fa:	609c      	str	r4, [r3, #8]
 80054fc:	2300      	movs	r3, #0
 80054fe:	2201      	movs	r2, #1
 8005500:	f880 203d 	strb.w	r2, [r0, #61]	; 0x3d
 8005504:	f880 303c 	strb.w	r3, [r0, #60]	; 0x3c
 8005508:	bc70      	pop	{r4, r5, r6}
 800550a:	4618      	mov	r0, r3
 800550c:	4770      	bx	lr
 800550e:	2002      	movs	r0, #2
 8005510:	4770      	bx	lr
 8005512:	bf00      	nop
 8005514:	40010000 	.word	0x40010000
 8005518:	40000400 	.word	0x40000400

0800551c <HAL_TIMEx_ConfigBreakDeadTime>:
 800551c:	f890 303c 	ldrb.w	r3, [r0, #60]	; 0x3c
 8005520:	2b01      	cmp	r3, #1
 8005522:	d021      	beq.n	8005568 <HAL_TIMEx_ConfigBreakDeadTime+0x4c>
 8005524:	b430      	push	{r4, r5}
 8005526:	e9d1 5302 	ldrd	r5, r3, [r1, #8]
 800552a:	e9d1 2400 	ldrd	r2, r4, [r1]
 800552e:	f423 7340 	bic.w	r3, r3, #768	; 0x300
 8005532:	432b      	orrs	r3, r5
 8005534:	f423 6380 	bic.w	r3, r3, #1024	; 0x400
 8005538:	4323      	orrs	r3, r4
 800553a:	f423 6300 	bic.w	r3, r3, #2048	; 0x800
 800553e:	e9d1 5404 	ldrd	r5, r4, [r1, #16]
 8005542:	4313      	orrs	r3, r2
 8005544:	f423 5380 	bic.w	r3, r3, #4096	; 0x1000
 8005548:	432b      	orrs	r3, r5
 800554a:	f423 5300 	bic.w	r3, r3, #8192	; 0x2000
 800554e:	69c9      	ldr	r1, [r1, #28]
 8005550:	6802      	ldr	r2, [r0, #0]
 8005552:	4323      	orrs	r3, r4
 8005554:	f423 4380 	bic.w	r3, r3, #16384	; 0x4000
 8005558:	430b      	orrs	r3, r1
 800555a:	2100      	movs	r1, #0
 800555c:	6453      	str	r3, [r2, #68]	; 0x44
 800555e:	bc30      	pop	{r4, r5}
 8005560:	f880 103c 	strb.w	r1, [r0, #60]	; 0x3c
 8005564:	4608      	mov	r0, r1
 8005566:	4770      	bx	lr
 8005568:	2302      	movs	r3, #2
 800556a:	4618      	mov	r0, r3
 800556c:	4770      	bx	lr
 800556e:	bf00      	nop

08005570 <HAL_TIMEx_CommutCallback>:
 8005570:	4770      	bx	lr
 8005572:	bf00      	nop

08005574 <HAL_TIMEx_BreakCallback>:
 8005574:	4770      	bx	lr
 8005576:	bf00      	nop

08005578 <SDMMC_GetCmdResp2>:
 8005578:	4b12      	ldr	r3, [pc, #72]	; (80055c4 <SDMMC_GetCmdResp2+0x4c>)
 800557a:	4a13      	ldr	r2, [pc, #76]	; (80055c8 <SDMMC_GetCmdResp2+0x50>)
 800557c:	681b      	ldr	r3, [r3, #0]
 800557e:	fba2 2303 	umull	r2, r3, r2, r3
 8005582:	0a5a      	lsrs	r2, r3, #9
 8005584:	f241 3388 	movw	r3, #5000	; 0x1388
 8005588:	4601      	mov	r1, r0
 800558a:	fb03 f302 	mul.w	r3, r3, r2
 800558e:	f113 33ff 	adds.w	r3, r3, #4294967295
 8005592:	d311      	bcc.n	80055b8 <SDMMC_GetCmdResp2+0x40>
 8005594:	6b4a      	ldr	r2, [r1, #52]	; 0x34
 8005596:	f012 0f45 	tst.w	r2, #69	; 0x45
 800559a:	d0f8      	beq.n	800558e <SDMMC_GetCmdResp2+0x16>
 800559c:	0512      	lsls	r2, r2, #20
 800559e:	d4f6      	bmi.n	800558e <SDMMC_GetCmdResp2+0x16>
 80055a0:	6b4b      	ldr	r3, [r1, #52]	; 0x34
 80055a2:	075b      	lsls	r3, r3, #29
 80055a4:	d40b      	bmi.n	80055be <SDMMC_GetCmdResp2+0x46>
 80055a6:	6b48      	ldr	r0, [r1, #52]	; 0x34
 80055a8:	f010 0001 	ands.w	r0, r0, #1
 80055ac:	bf15      	itete	ne
 80055ae:	2001      	movne	r0, #1
 80055b0:	23c5      	moveq	r3, #197	; 0xc5
 80055b2:	6388      	strne	r0, [r1, #56]	; 0x38
 80055b4:	638b      	streq	r3, [r1, #56]	; 0x38
 80055b6:	4770      	bx	lr
 80055b8:	f04f 4000 	mov.w	r0, #2147483648	; 0x80000000
 80055bc:	4770      	bx	lr
 80055be:	2004      	movs	r0, #4
 80055c0:	6388      	str	r0, [r1, #56]	; 0x38
 80055c2:	4770      	bx	lr
 80055c4:	20000128 	.word	0x20000128
 80055c8:	10624dd3 	.word	0x10624dd3

080055cc <SDMMC_GetCmdResp3>:
 80055cc:	4b0f      	ldr	r3, [pc, #60]	; (800560c <SDMMC_GetCmdResp3+0x40>)
 80055ce:	4a10      	ldr	r2, [pc, #64]	; (8005610 <SDMMC_GetCmdResp3+0x44>)
 80055d0:	681b      	ldr	r3, [r3, #0]
 80055d2:	fba2 2303 	umull	r2, r3, r2, r3
 80055d6:	0a5a      	lsrs	r2, r3, #9
 80055d8:	f241 3388 	movw	r3, #5000	; 0x1388
 80055dc:	4601      	mov	r1, r0
 80055de:	fb03 f302 	mul.w	r3, r3, r2
 80055e2:	f113 33ff 	adds.w	r3, r3, #4294967295
 80055e6:	d30e      	bcc.n	8005606 <SDMMC_GetCmdResp3+0x3a>
 80055e8:	6b4a      	ldr	r2, [r1, #52]	; 0x34
 80055ea:	f012 0f45 	tst.w	r2, #69	; 0x45
 80055ee:	d0f8      	beq.n	80055e2 <SDMMC_GetCmdResp3+0x16>
 80055f0:	0512      	lsls	r2, r2, #20
 80055f2:	d4f6      	bmi.n	80055e2 <SDMMC_GetCmdResp3+0x16>
 80055f4:	6b48      	ldr	r0, [r1, #52]	; 0x34
 80055f6:	f010 0004 	ands.w	r0, r0, #4
 80055fa:	bf15      	itete	ne
 80055fc:	2004      	movne	r0, #4
 80055fe:	23c5      	moveq	r3, #197	; 0xc5
 8005600:	6388      	strne	r0, [r1, #56]	; 0x38
 8005602:	638b      	streq	r3, [r1, #56]	; 0x38
 8005604:	4770      	bx	lr
 8005606:	f04f 4000 	mov.w	r0, #2147483648	; 0x80000000
 800560a:	4770      	bx	lr
 800560c:	20000128 	.word	0x20000128
 8005610:	10624dd3 	.word	0x10624dd3

08005614 <SDMMC_GetCmdResp1>:
 8005614:	4b47      	ldr	r3, [pc, #284]	; (8005734 <SDMMC_GetCmdResp1+0x120>)
 8005616:	b410      	push	{r4}
 8005618:	681b      	ldr	r3, [r3, #0]
 800561a:	4c47      	ldr	r4, [pc, #284]	; (8005738 <SDMMC_GetCmdResp1+0x124>)
 800561c:	fba4 4303 	umull	r4, r3, r4, r3
 8005620:	0a5b      	lsrs	r3, r3, #9
 8005622:	fb02 f203 	mul.w	r2, r2, r3
 8005626:	b142      	cbz	r2, 800563a <SDMMC_GetCmdResp1+0x26>
 8005628:	6b43      	ldr	r3, [r0, #52]	; 0x34
 800562a:	f013 0f45 	tst.w	r3, #69	; 0x45
 800562e:	d001      	beq.n	8005634 <SDMMC_GetCmdResp1+0x20>
 8005630:	051c      	lsls	r4, r3, #20
 8005632:	d507      	bpl.n	8005644 <SDMMC_GetCmdResp1+0x30>
 8005634:	3a01      	subs	r2, #1
 8005636:	2a00      	cmp	r2, #0
 8005638:	d1f6      	bne.n	8005628 <SDMMC_GetCmdResp1+0x14>
 800563a:	f04f 4000 	mov.w	r0, #2147483648	; 0x80000000
 800563e:	f85d 4b04 	ldr.w	r4, [sp], #4
 8005642:	4770      	bx	lr
 8005644:	6b43      	ldr	r3, [r0, #52]	; 0x34
 8005646:	075b      	lsls	r3, r3, #29
 8005648:	d410      	bmi.n	800566c <SDMMC_GetCmdResp1+0x58>
 800564a:	6b43      	ldr	r3, [r0, #52]	; 0x34
 800564c:	07dc      	lsls	r4, r3, #31
 800564e:	d407      	bmi.n	8005660 <SDMMC_GetCmdResp1+0x4c>
 8005650:	23c5      	movs	r3, #197	; 0xc5
 8005652:	6383      	str	r3, [r0, #56]	; 0x38
 8005654:	6903      	ldr	r3, [r0, #16]
 8005656:	b2db      	uxtb	r3, r3
 8005658:	4299      	cmp	r1, r3
 800565a:	d00b      	beq.n	8005674 <SDMMC_GetCmdResp1+0x60>
 800565c:	2001      	movs	r0, #1
 800565e:	e7ee      	b.n	800563e <SDMMC_GetCmdResp1+0x2a>
 8005660:	2301      	movs	r3, #1
 8005662:	6383      	str	r3, [r0, #56]	; 0x38
 8005664:	f85d 4b04 	ldr.w	r4, [sp], #4
 8005668:	4618      	mov	r0, r3
 800566a:	4770      	bx	lr
 800566c:	2304      	movs	r3, #4
 800566e:	6383      	str	r3, [r0, #56]	; 0x38
 8005670:	4618      	mov	r0, r3
 8005672:	e7e4      	b.n	800563e <SDMMC_GetCmdResp1+0x2a>
 8005674:	6943      	ldr	r3, [r0, #20]
 8005676:	4831      	ldr	r0, [pc, #196]	; (800573c <SDMMC_GetCmdResp1+0x128>)
 8005678:	4018      	ands	r0, r3
 800567a:	2800      	cmp	r0, #0
 800567c:	d0df      	beq.n	800563e <SDMMC_GetCmdResp1+0x2a>
 800567e:	2b00      	cmp	r3, #0
 8005680:	db29      	blt.n	80056d6 <SDMMC_GetCmdResp1+0xc2>
 8005682:	005a      	lsls	r2, r3, #1
 8005684:	d425      	bmi.n	80056d2 <SDMMC_GetCmdResp1+0xbe>
 8005686:	009c      	lsls	r4, r3, #2
 8005688:	d428      	bmi.n	80056dc <SDMMC_GetCmdResp1+0xc8>
 800568a:	00d9      	lsls	r1, r3, #3
 800568c:	d428      	bmi.n	80056e0 <SDMMC_GetCmdResp1+0xcc>
 800568e:	011a      	lsls	r2, r3, #4
 8005690:	d42c      	bmi.n	80056ec <SDMMC_GetCmdResp1+0xd8>
 8005692:	015c      	lsls	r4, r3, #5
 8005694:	d427      	bmi.n	80056e6 <SDMMC_GetCmdResp1+0xd2>
 8005696:	01d9      	lsls	r1, r3, #7
 8005698:	d431      	bmi.n	80056fe <SDMMC_GetCmdResp1+0xea>
 800569a:	021a      	lsls	r2, r3, #8
 800569c:	d42c      	bmi.n	80056f8 <SDMMC_GetCmdResp1+0xe4>
 800569e:	025c      	lsls	r4, r3, #9
 80056a0:	d427      	bmi.n	80056f2 <SDMMC_GetCmdResp1+0xde>
 80056a2:	0299      	lsls	r1, r3, #10
 80056a4:	d437      	bmi.n	8005716 <SDMMC_GetCmdResp1+0x102>
 80056a6:	02da      	lsls	r2, r3, #11
 80056a8:	d441      	bmi.n	800572e <SDMMC_GetCmdResp1+0x11a>
 80056aa:	035c      	lsls	r4, r3, #13
 80056ac:	d43c      	bmi.n	8005728 <SDMMC_GetCmdResp1+0x114>
 80056ae:	0399      	lsls	r1, r3, #14
 80056b0:	d437      	bmi.n	8005722 <SDMMC_GetCmdResp1+0x10e>
 80056b2:	03da      	lsls	r2, r3, #15
 80056b4:	d432      	bmi.n	800571c <SDMMC_GetCmdResp1+0x108>
 80056b6:	041c      	lsls	r4, r3, #16
 80056b8:	d427      	bmi.n	800570a <SDMMC_GetCmdResp1+0xf6>
 80056ba:	0459      	lsls	r1, r3, #17
 80056bc:	d422      	bmi.n	8005704 <SDMMC_GetCmdResp1+0xf0>
 80056be:	049a      	lsls	r2, r3, #18
 80056c0:	d426      	bmi.n	8005710 <SDMMC_GetCmdResp1+0xfc>
 80056c2:	f013 0f08 	tst.w	r3, #8
 80056c6:	bf0c      	ite	eq
 80056c8:	f44f 3080 	moveq.w	r0, #65536	; 0x10000
 80056cc:	f44f 0000 	movne.w	r0, #8388608	; 0x800000
 80056d0:	e7b5      	b.n	800563e <SDMMC_GetCmdResp1+0x2a>
 80056d2:	2040      	movs	r0, #64	; 0x40
 80056d4:	e7b3      	b.n	800563e <SDMMC_GetCmdResp1+0x2a>
 80056d6:	f04f 7000 	mov.w	r0, #33554432	; 0x2000000
 80056da:	e7b0      	b.n	800563e <SDMMC_GetCmdResp1+0x2a>
 80056dc:	2080      	movs	r0, #128	; 0x80
 80056de:	e7ae      	b.n	800563e <SDMMC_GetCmdResp1+0x2a>
 80056e0:	f44f 7080 	mov.w	r0, #256	; 0x100
 80056e4:	e7ab      	b.n	800563e <SDMMC_GetCmdResp1+0x2a>
 80056e6:	f44f 6080 	mov.w	r0, #1024	; 0x400
 80056ea:	e7a8      	b.n	800563e <SDMMC_GetCmdResp1+0x2a>
 80056ec:	f44f 7000 	mov.w	r0, #512	; 0x200
 80056f0:	e7a5      	b.n	800563e <SDMMC_GetCmdResp1+0x2a>
 80056f2:	f44f 5000 	mov.w	r0, #8192	; 0x2000
 80056f6:	e7a2      	b.n	800563e <SDMMC_GetCmdResp1+0x2a>
 80056f8:	f44f 5080 	mov.w	r0, #4096	; 0x1000
 80056fc:	e79f      	b.n	800563e <SDMMC_GetCmdResp1+0x2a>
 80056fe:	f44f 6000 	mov.w	r0, #2048	; 0x800
 8005702:	e79c      	b.n	800563e <SDMMC_GetCmdResp1+0x2a>
 8005704:	f44f 1000 	mov.w	r0, #2097152	; 0x200000
 8005708:	e799      	b.n	800563e <SDMMC_GetCmdResp1+0x2a>
 800570a:	f44f 1080 	mov.w	r0, #1048576	; 0x100000
 800570e:	e796      	b.n	800563e <SDMMC_GetCmdResp1+0x2a>
 8005710:	f44f 0080 	mov.w	r0, #4194304	; 0x400000
 8005714:	e793      	b.n	800563e <SDMMC_GetCmdResp1+0x2a>
 8005716:	f44f 4080 	mov.w	r0, #16384	; 0x4000
 800571a:	e790      	b.n	800563e <SDMMC_GetCmdResp1+0x2a>
 800571c:	f44f 2000 	mov.w	r0, #524288	; 0x80000
 8005720:	e78d      	b.n	800563e <SDMMC_GetCmdResp1+0x2a>
 8005722:	f44f 2080 	mov.w	r0, #262144	; 0x40000
 8005726:	e78a      	b.n	800563e <SDMMC_GetCmdResp1+0x2a>
 8005728:	f44f 3000 	mov.w	r0, #131072	; 0x20000
 800572c:	e787      	b.n	800563e <SDMMC_GetCmdResp1+0x2a>
 800572e:	f44f 4000 	mov.w	r0, #32768	; 0x8000
 8005732:	e784      	b.n	800563e <SDMMC_GetCmdResp1+0x2a>
 8005734:	20000128 	.word	0x20000128
 8005738:	10624dd3 	.word	0x10624dd3
 800573c:	fdffe008 	.word	0xfdffe008

08005740 <SDIO_Init>:
 8005740:	b084      	sub	sp, #16
 8005742:	b430      	push	{r4, r5}
 8005744:	ac03      	add	r4, sp, #12
 8005746:	e884 000e 	stmia.w	r4, {r1, r2, r3}
 800574a:	460b      	mov	r3, r1
 800574c:	e9dd 1204 	ldrd	r1, r2, [sp, #16]
 8005750:	e9dd 5406 	ldrd	r5, r4, [sp, #24]
 8005754:	430b      	orrs	r3, r1
 8005756:	4313      	orrs	r3, r2
 8005758:	432b      	orrs	r3, r5
 800575a:	6842      	ldr	r2, [r0, #4]
 800575c:	9908      	ldr	r1, [sp, #32]
 800575e:	4323      	orrs	r3, r4
 8005760:	bc30      	pop	{r4, r5}
 8005762:	f422 42fd 	bic.w	r2, r2, #32384	; 0x7e80
 8005766:	430b      	orrs	r3, r1
 8005768:	f022 027f 	bic.w	r2, r2, #127	; 0x7f
 800576c:	4313      	orrs	r3, r2
 800576e:	6043      	str	r3, [r0, #4]
 8005770:	b004      	add	sp, #16
 8005772:	2000      	movs	r0, #0
 8005774:	4770      	bx	lr
 8005776:	bf00      	nop

08005778 <SDIO_ReadFIFO>:
 8005778:	f8d0 0080 	ldr.w	r0, [r0, #128]	; 0x80
 800577c:	4770      	bx	lr
 800577e:	bf00      	nop

08005780 <SDIO_WriteFIFO>:
 8005780:	680b      	ldr	r3, [r1, #0]
 8005782:	f8c0 3080 	str.w	r3, [r0, #128]	; 0x80
 8005786:	2000      	movs	r0, #0
 8005788:	4770      	bx	lr
 800578a:	bf00      	nop

0800578c <SDIO_PowerState_ON>:
 800578c:	b508      	push	{r3, lr}
 800578e:	2303      	movs	r3, #3
 8005790:	6003      	str	r3, [r0, #0]
 8005792:	2002      	movs	r0, #2
 8005794:	f7fb fbdc 	bl	8000f50 <HAL_Delay>
 8005798:	2000      	movs	r0, #0
 800579a:	bd08      	pop	{r3, pc}

0800579c <SDIO_GetPowerState>:
 800579c:	6800      	ldr	r0, [r0, #0]
 800579e:	f000 0003 	and.w	r0, r0, #3
 80057a2:	4770      	bx	lr

080057a4 <SDIO_GetResponse>:
 80057a4:	3014      	adds	r0, #20
 80057a6:	5840      	ldr	r0, [r0, r1]
 80057a8:	4770      	bx	lr
 80057aa:	bf00      	nop

080057ac <SDIO_ConfigData>:
 80057ac:	b430      	push	{r4, r5}
 80057ae:	e9d1 4200 	ldrd	r4, r2, [r1]
 80057b2:	e9d1 3502 	ldrd	r3, r5, [r1, #8]
 80057b6:	6244      	str	r4, [r0, #36]	; 0x24
 80057b8:	690c      	ldr	r4, [r1, #16]
 80057ba:	6282      	str	r2, [r0, #40]	; 0x28
 80057bc:	6ac2      	ldr	r2, [r0, #44]	; 0x2c
 80057be:	6949      	ldr	r1, [r1, #20]
 80057c0:	432b      	orrs	r3, r5
 80057c2:	4323      	orrs	r3, r4
 80057c4:	f022 02f7 	bic.w	r2, r2, #247	; 0xf7
 80057c8:	430b      	orrs	r3, r1
 80057ca:	4313      	orrs	r3, r2
 80057cc:	62c3      	str	r3, [r0, #44]	; 0x2c
 80057ce:	bc30      	pop	{r4, r5}
 80057d0:	2000      	movs	r0, #0
 80057d2:	4770      	bx	lr

080057d4 <SDMMC_CmdBlockLength>:
 80057d4:	6081      	str	r1, [r0, #8]
 80057d6:	68c3      	ldr	r3, [r0, #12]
 80057d8:	f423 637f 	bic.w	r3, r3, #4080	; 0xff0
 80057dc:	f023 030f 	bic.w	r3, r3, #15
 80057e0:	f443 638a 	orr.w	r3, r3, #1104	; 0x450
 80057e4:	60c3      	str	r3, [r0, #12]
 80057e6:	f241 3288 	movw	r2, #5000	; 0x1388
 80057ea:	2110      	movs	r1, #16
 80057ec:	f7ff bf12 	b.w	8005614 <SDMMC_GetCmdResp1>

080057f0 <SDMMC_CmdReadSingleBlock>:
 80057f0:	6081      	str	r1, [r0, #8]
 80057f2:	68c3      	ldr	r3, [r0, #12]
 80057f4:	f423 637f 	bic.w	r3, r3, #4080	; 0xff0
 80057f8:	f023 030f 	bic.w	r3, r3, #15
 80057fc:	f443 638a 	orr.w	r3, r3, #1104	; 0x450
 8005800:	f043 0301 	orr.w	r3, r3, #1
 8005804:	60c3      	str	r3, [r0, #12]
 8005806:	f241 3288 	movw	r2, #5000	; 0x1388
 800580a:	2111      	movs	r1, #17
 800580c:	f7ff bf02 	b.w	8005614 <SDMMC_GetCmdResp1>

08005810 <SDMMC_CmdReadMultiBlock>:
 8005810:	6081      	str	r1, [r0, #8]
 8005812:	68c3      	ldr	r3, [r0, #12]
 8005814:	f423 637f 	bic.w	r3, r3, #4080	; 0xff0
 8005818:	f023 030f 	bic.w	r3, r3, #15
 800581c:	f443 638a 	orr.w	r3, r3, #1104	; 0x450
 8005820:	f043 0302 	orr.w	r3, r3, #2
 8005824:	60c3      	str	r3, [r0, #12]
 8005826:	f241 3288 	movw	r2, #5000	; 0x1388
 800582a:	2112      	movs	r1, #18
 800582c:	f7ff bef2 	b.w	8005614 <SDMMC_GetCmdResp1>

08005830 <SDMMC_CmdWriteSingleBlock>:
 8005830:	6081      	str	r1, [r0, #8]
 8005832:	68c3      	ldr	r3, [r0, #12]
 8005834:	f423 637f 	bic.w	r3, r3, #4080	; 0xff0
 8005838:	f023 030f 	bic.w	r3, r3, #15
 800583c:	f443 638b 	orr.w	r3, r3, #1112	; 0x458
 8005840:	60c3      	str	r3, [r0, #12]
 8005842:	f241 3288 	movw	r2, #5000	; 0x1388
 8005846:	2118      	movs	r1, #24
 8005848:	f7ff bee4 	b.w	8005614 <SDMMC_GetCmdResp1>

0800584c <SDMMC_CmdWriteMultiBlock>:
 800584c:	6081      	str	r1, [r0, #8]
 800584e:	68c3      	ldr	r3, [r0, #12]
 8005850:	f423 637f 	bic.w	r3, r3, #4080	; 0xff0
 8005854:	f023 030f 	bic.w	r3, r3, #15
 8005858:	f443 638b 	orr.w	r3, r3, #1112	; 0x458
 800585c:	f043 0301 	orr.w	r3, r3, #1
 8005860:	60c3      	str	r3, [r0, #12]
 8005862:	f241 3288 	movw	r2, #5000	; 0x1388
 8005866:	2119      	movs	r1, #25
 8005868:	f7ff bed4 	b.w	8005614 <SDMMC_GetCmdResp1>

0800586c <SDMMC_CmdStopTransfer>:
 800586c:	2300      	movs	r3, #0
 800586e:	6083      	str	r3, [r0, #8]
 8005870:	68c3      	ldr	r3, [r0, #12]
 8005872:	4a06      	ldr	r2, [pc, #24]	; (800588c <SDMMC_CmdStopTransfer+0x20>)
 8005874:	f423 637f 	bic.w	r3, r3, #4080	; 0xff0
 8005878:	f023 030f 	bic.w	r3, r3, #15
 800587c:	f443 6389 	orr.w	r3, r3, #1096	; 0x448
 8005880:	f043 0304 	orr.w	r3, r3, #4
 8005884:	60c3      	str	r3, [r0, #12]
 8005886:	210c      	movs	r1, #12
 8005888:	f7ff bec4 	b.w	8005614 <SDMMC_GetCmdResp1>
 800588c:	05f5e100 	.word	0x05f5e100

08005890 <SDMMC_CmdSelDesel>:
 8005890:	6082      	str	r2, [r0, #8]
 8005892:	68c3      	ldr	r3, [r0, #12]
 8005894:	f423 637f 	bic.w	r3, r3, #4080	; 0xff0
 8005898:	f023 030f 	bic.w	r3, r3, #15
 800589c:	f443 6388 	orr.w	r3, r3, #1088	; 0x440
 80058a0:	f043 0307 	orr.w	r3, r3, #7
 80058a4:	60c3      	str	r3, [r0, #12]
 80058a6:	f241 3288 	movw	r2, #5000	; 0x1388
 80058aa:	2107      	movs	r1, #7
 80058ac:	f7ff beb2 	b.w	8005614 <SDMMC_GetCmdResp1>

080058b0 <SDMMC_CmdGoIdleState>:
 80058b0:	2300      	movs	r3, #0
 80058b2:	6083      	str	r3, [r0, #8]
 80058b4:	4b0f      	ldr	r3, [pc, #60]	; (80058f4 <SDMMC_CmdGoIdleState+0x44>)
 80058b6:	68c2      	ldr	r2, [r0, #12]
 80058b8:	490f      	ldr	r1, [pc, #60]	; (80058f8 <SDMMC_CmdGoIdleState+0x48>)
 80058ba:	681b      	ldr	r3, [r3, #0]
 80058bc:	f422 627f 	bic.w	r2, r2, #4080	; 0xff0
 80058c0:	fba1 1303 	umull	r1, r3, r1, r3
 80058c4:	f022 020f 	bic.w	r2, r2, #15
 80058c8:	0a59      	lsrs	r1, r3, #9
 80058ca:	f442 6280 	orr.w	r2, r2, #1024	; 0x400
 80058ce:	f241 3388 	movw	r3, #5000	; 0x1388
 80058d2:	60c2      	str	r2, [r0, #12]
 80058d4:	fb03 f301 	mul.w	r3, r3, r1
 80058d8:	e002      	b.n	80058e0 <SDMMC_CmdGoIdleState+0x30>
 80058da:	6b42      	ldr	r2, [r0, #52]	; 0x34
 80058dc:	0612      	lsls	r2, r2, #24
 80058de:	d405      	bmi.n	80058ec <SDMMC_CmdGoIdleState+0x3c>
 80058e0:	f113 33ff 	adds.w	r3, r3, #4294967295
 80058e4:	d2f9      	bcs.n	80058da <SDMMC_CmdGoIdleState+0x2a>
 80058e6:	f04f 4000 	mov.w	r0, #2147483648	; 0x80000000
 80058ea:	4770      	bx	lr
 80058ec:	23c5      	movs	r3, #197	; 0xc5
 80058ee:	6383      	str	r3, [r0, #56]	; 0x38
 80058f0:	2000      	movs	r0, #0
 80058f2:	4770      	bx	lr
 80058f4:	20000128 	.word	0x20000128
 80058f8:	10624dd3 	.word	0x10624dd3

080058fc <SDMMC_CmdOperCond>:
 80058fc:	f44f 73d5 	mov.w	r3, #426	; 0x1aa
 8005900:	6083      	str	r3, [r0, #8]
 8005902:	4b1a      	ldr	r3, [pc, #104]	; (800596c <SDMMC_CmdOperCond+0x70>)
 8005904:	68c2      	ldr	r2, [r0, #12]
 8005906:	681b      	ldr	r3, [r3, #0]
 8005908:	4601      	mov	r1, r0
 800590a:	4819      	ldr	r0, [pc, #100]	; (8005970 <SDMMC_CmdOperCond+0x74>)
 800590c:	f422 627f 	bic.w	r2, r2, #4080	; 0xff0
 8005910:	fba0 0303 	umull	r0, r3, r0, r3
 8005914:	f022 020f 	bic.w	r2, r2, #15
 8005918:	0a58      	lsrs	r0, r3, #9
 800591a:	f442 6289 	orr.w	r2, r2, #1096	; 0x448
 800591e:	f241 3388 	movw	r3, #5000	; 0x1388
 8005922:	60ca      	str	r2, [r1, #12]
 8005924:	fb03 f300 	mul.w	r3, r3, r0
 8005928:	f113 33ff 	adds.w	r3, r3, #4294967295
 800592c:	d313      	bcc.n	8005956 <SDMMC_CmdOperCond+0x5a>
 800592e:	6b4a      	ldr	r2, [r1, #52]	; 0x34
 8005930:	f012 0f45 	tst.w	r2, #69	; 0x45
 8005934:	d0f8      	beq.n	8005928 <SDMMC_CmdOperCond+0x2c>
 8005936:	0512      	lsls	r2, r2, #20
 8005938:	d4f6      	bmi.n	8005928 <SDMMC_CmdOperCond+0x2c>
 800593a:	6b4b      	ldr	r3, [r1, #52]	; 0x34
 800593c:	075b      	lsls	r3, r3, #29
 800593e:	d410      	bmi.n	8005962 <SDMMC_CmdOperCond+0x66>
 8005940:	6b48      	ldr	r0, [r1, #52]	; 0x34
 8005942:	f010 0001 	ands.w	r0, r0, #1
 8005946:	d109      	bne.n	800595c <SDMMC_CmdOperCond+0x60>
 8005948:	6b4b      	ldr	r3, [r1, #52]	; 0x34
 800594a:	f013 0340 	ands.w	r3, r3, #64	; 0x40
 800594e:	d00b      	beq.n	8005968 <SDMMC_CmdOperCond+0x6c>
 8005950:	2340      	movs	r3, #64	; 0x40
 8005952:	638b      	str	r3, [r1, #56]	; 0x38
 8005954:	4770      	bx	lr
 8005956:	f04f 4000 	mov.w	r0, #2147483648	; 0x80000000
 800595a:	4770      	bx	lr
 800595c:	2001      	movs	r0, #1
 800595e:	6388      	str	r0, [r1, #56]	; 0x38
 8005960:	4770      	bx	lr
 8005962:	2004      	movs	r0, #4
 8005964:	6388      	str	r0, [r1, #56]	; 0x38
 8005966:	4770      	bx	lr
 8005968:	4618      	mov	r0, r3
 800596a:	4770      	bx	lr
 800596c:	20000128 	.word	0x20000128
 8005970:	10624dd3 	.word	0x10624dd3

08005974 <SDMMC_CmdAppCommand>:
 8005974:	6081      	str	r1, [r0, #8]
 8005976:	68c3      	ldr	r3, [r0, #12]
 8005978:	f423 637f 	bic.w	r3, r3, #4080	; 0xff0
 800597c:	f023 030f 	bic.w	r3, r3, #15
 8005980:	f443 638e 	orr.w	r3, r3, #1136	; 0x470
 8005984:	f043 0307 	orr.w	r3, r3, #7
 8005988:	60c3      	str	r3, [r0, #12]
 800598a:	f241 3288 	movw	r2, #5000	; 0x1388
 800598e:	2137      	movs	r1, #55	; 0x37
 8005990:	f7ff be40 	b.w	8005614 <SDMMC_GetCmdResp1>

08005994 <SDMMC_CmdAppOperCommand>:
 8005994:	f041 4100 	orr.w	r1, r1, #2147483648	; 0x80000000
 8005998:	f441 1180 	orr.w	r1, r1, #1048576	; 0x100000
 800599c:	6081      	str	r1, [r0, #8]
 800599e:	68c3      	ldr	r3, [r0, #12]
 80059a0:	f423 637f 	bic.w	r3, r3, #4080	; 0xff0
 80059a4:	f023 030f 	bic.w	r3, r3, #15
 80059a8:	f443 638d 	orr.w	r3, r3, #1128	; 0x468
 80059ac:	f043 0301 	orr.w	r3, r3, #1
 80059b0:	60c3      	str	r3, [r0, #12]
 80059b2:	f7ff be0b 	b.w	80055cc <SDMMC_GetCmdResp3>
 80059b6:	bf00      	nop

080059b8 <SDMMC_CmdBusWidth>:
 80059b8:	6081      	str	r1, [r0, #8]
 80059ba:	68c3      	ldr	r3, [r0, #12]
 80059bc:	f423 637f 	bic.w	r3, r3, #4080	; 0xff0
 80059c0:	f023 030f 	bic.w	r3, r3, #15
 80059c4:	f443 6388 	orr.w	r3, r3, #1088	; 0x440
 80059c8:	f043 0306 	orr.w	r3, r3, #6
 80059cc:	60c3      	str	r3, [r0, #12]
 80059ce:	f241 3288 	movw	r2, #5000	; 0x1388
 80059d2:	2106      	movs	r1, #6
 80059d4:	f7ff be1e 	b.w	8005614 <SDMMC_GetCmdResp1>

080059d8 <SDMMC_CmdSendSCR>:
 80059d8:	2300      	movs	r3, #0
 80059da:	6083      	str	r3, [r0, #8]
 80059dc:	68c3      	ldr	r3, [r0, #12]
 80059de:	f423 637f 	bic.w	r3, r3, #4080	; 0xff0
 80059e2:	f023 030f 	bic.w	r3, r3, #15
 80059e6:	f443 638e 	orr.w	r3, r3, #1136	; 0x470
 80059ea:	f043 0303 	orr.w	r3, r3, #3
 80059ee:	60c3      	str	r3, [r0, #12]
 80059f0:	f241 3288 	movw	r2, #5000	; 0x1388
 80059f4:	2133      	movs	r1, #51	; 0x33
 80059f6:	f7ff be0d 	b.w	8005614 <SDMMC_GetCmdResp1>
 80059fa:	bf00      	nop

080059fc <SDMMC_CmdSendCID>:
 80059fc:	2300      	movs	r3, #0
 80059fe:	6083      	str	r3, [r0, #8]
 8005a00:	68c3      	ldr	r3, [r0, #12]
 8005a02:	f423 637f 	bic.w	r3, r3, #4080	; 0xff0
 8005a06:	f023 030f 	bic.w	r3, r3, #15
 8005a0a:	f443 6398 	orr.w	r3, r3, #1216	; 0x4c0
 8005a0e:	f043 0302 	orr.w	r3, r3, #2
 8005a12:	60c3      	str	r3, [r0, #12]
 8005a14:	f7ff bdb0 	b.w	8005578 <SDMMC_GetCmdResp2>

08005a18 <SDMMC_CmdSendCSD>:
 8005a18:	6081      	str	r1, [r0, #8]
 8005a1a:	68c3      	ldr	r3, [r0, #12]
 8005a1c:	f423 637f 	bic.w	r3, r3, #4080	; 0xff0
 8005a20:	f023 030f 	bic.w	r3, r3, #15
 8005a24:	f443 6399 	orr.w	r3, r3, #1224	; 0x4c8
 8005a28:	f043 0301 	orr.w	r3, r3, #1
 8005a2c:	60c3      	str	r3, [r0, #12]
 8005a2e:	f7ff bda3 	b.w	8005578 <SDMMC_GetCmdResp2>
 8005a32:	bf00      	nop

08005a34 <SDMMC_CmdSetRelAdd>:
 8005a34:	2300      	movs	r3, #0
 8005a36:	b410      	push	{r4}
 8005a38:	6083      	str	r3, [r0, #8]
 8005a3a:	68c2      	ldr	r2, [r0, #12]
 8005a3c:	4b26      	ldr	r3, [pc, #152]	; (8005ad8 <SDMMC_CmdSetRelAdd+0xa4>)
 8005a3e:	4c27      	ldr	r4, [pc, #156]	; (8005adc <SDMMC_CmdSetRelAdd+0xa8>)
 8005a40:	681b      	ldr	r3, [r3, #0]
 8005a42:	f422 627f 	bic.w	r2, r2, #4080	; 0xff0
 8005a46:	f022 020f 	bic.w	r2, r2, #15
 8005a4a:	fba4 4303 	umull	r4, r3, r4, r3
 8005a4e:	f442 6288 	orr.w	r2, r2, #1088	; 0x440
 8005a52:	0a5c      	lsrs	r4, r3, #9
 8005a54:	f042 0203 	orr.w	r2, r2, #3
 8005a58:	f241 3388 	movw	r3, #5000	; 0x1388
 8005a5c:	60c2      	str	r2, [r0, #12]
 8005a5e:	fb03 f304 	mul.w	r3, r3, r4
 8005a62:	f113 33ff 	adds.w	r3, r3, #4294967295
 8005a66:	d311      	bcc.n	8005a8c <SDMMC_CmdSetRelAdd+0x58>
 8005a68:	6b42      	ldr	r2, [r0, #52]	; 0x34
 8005a6a:	f012 0f45 	tst.w	r2, #69	; 0x45
 8005a6e:	d0f8      	beq.n	8005a62 <SDMMC_CmdSetRelAdd+0x2e>
 8005a70:	0512      	lsls	r2, r2, #20
 8005a72:	d4f6      	bmi.n	8005a62 <SDMMC_CmdSetRelAdd+0x2e>
 8005a74:	6b43      	ldr	r3, [r0, #52]	; 0x34
 8005a76:	075b      	lsls	r3, r3, #29
 8005a78:	d413      	bmi.n	8005aa2 <SDMMC_CmdSetRelAdd+0x6e>
 8005a7a:	6b43      	ldr	r3, [r0, #52]	; 0x34
 8005a7c:	07dc      	lsls	r4, r3, #31
 8005a7e:	d40a      	bmi.n	8005a96 <SDMMC_CmdSetRelAdd+0x62>
 8005a80:	6903      	ldr	r3, [r0, #16]
 8005a82:	b2db      	uxtb	r3, r3
 8005a84:	2b03      	cmp	r3, #3
 8005a86:	d010      	beq.n	8005aaa <SDMMC_CmdSetRelAdd+0x76>
 8005a88:	2001      	movs	r0, #1
 8005a8a:	e001      	b.n	8005a90 <SDMMC_CmdSetRelAdd+0x5c>
 8005a8c:	f04f 4000 	mov.w	r0, #2147483648	; 0x80000000
 8005a90:	f85d 4b04 	ldr.w	r4, [sp], #4
 8005a94:	4770      	bx	lr
 8005a96:	2301      	movs	r3, #1
 8005a98:	6383      	str	r3, [r0, #56]	; 0x38
 8005a9a:	f85d 4b04 	ldr.w	r4, [sp], #4
 8005a9e:	4618      	mov	r0, r3
 8005aa0:	4770      	bx	lr
 8005aa2:	2304      	movs	r3, #4
 8005aa4:	6383      	str	r3, [r0, #56]	; 0x38
 8005aa6:	4618      	mov	r0, r3
 8005aa8:	e7f2      	b.n	8005a90 <SDMMC_CmdSetRelAdd+0x5c>
 8005aaa:	23c5      	movs	r3, #197	; 0xc5
 8005aac:	6383      	str	r3, [r0, #56]	; 0x38
 8005aae:	6943      	ldr	r3, [r0, #20]
 8005ab0:	f413 4060 	ands.w	r0, r3, #57344	; 0xe000
 8005ab4:	d009      	beq.n	8005aca <SDMMC_CmdSetRelAdd+0x96>
 8005ab6:	045a      	lsls	r2, r3, #17
 8005ab8:	d40a      	bmi.n	8005ad0 <SDMMC_CmdSetRelAdd+0x9c>
 8005aba:	f413 4f00 	tst.w	r3, #32768	; 0x8000
 8005abe:	bf0c      	ite	eq
 8005ac0:	f44f 3080 	moveq.w	r0, #65536	; 0x10000
 8005ac4:	f44f 5080 	movne.w	r0, #4096	; 0x1000
 8005ac8:	e7e2      	b.n	8005a90 <SDMMC_CmdSetRelAdd+0x5c>
 8005aca:	0c1b      	lsrs	r3, r3, #16
 8005acc:	800b      	strh	r3, [r1, #0]
 8005ace:	e7df      	b.n	8005a90 <SDMMC_CmdSetRelAdd+0x5c>
 8005ad0:	f44f 5000 	mov.w	r0, #8192	; 0x2000
 8005ad4:	e7dc      	b.n	8005a90 <SDMMC_CmdSetRelAdd+0x5c>
 8005ad6:	bf00      	nop
 8005ad8:	20000128 	.word	0x20000128
 8005adc:	10624dd3 	.word	0x10624dd3

08005ae0 <SDMMC_CmdSendStatus>:
 8005ae0:	6081      	str	r1, [r0, #8]
 8005ae2:	68c3      	ldr	r3, [r0, #12]
 8005ae4:	f423 637f 	bic.w	r3, r3, #4080	; 0xff0
 8005ae8:	f023 030f 	bic.w	r3, r3, #15
 8005aec:	f443 6389 	orr.w	r3, r3, #1096	; 0x448
 8005af0:	f043 0305 	orr.w	r3, r3, #5
 8005af4:	60c3      	str	r3, [r0, #12]
 8005af6:	f241 3288 	movw	r2, #5000	; 0x1388
 8005afa:	210d      	movs	r1, #13
 8005afc:	f7ff bd8a 	b.w	8005614 <SDMMC_GetCmdResp1>

08005b00 <USB_CoreReset>:
 8005b00:	4b0b      	ldr	r3, [pc, #44]	; (8005b30 <USB_CoreReset+0x30>)
 8005b02:	e001      	b.n	8005b08 <USB_CoreReset+0x8>
 8005b04:	3b01      	subs	r3, #1
 8005b06:	d010      	beq.n	8005b2a <USB_CoreReset+0x2a>
 8005b08:	6902      	ldr	r2, [r0, #16]
 8005b0a:	2a00      	cmp	r2, #0
 8005b0c:	dafa      	bge.n	8005b04 <USB_CoreReset+0x4>
 8005b0e:	6903      	ldr	r3, [r0, #16]
 8005b10:	4a07      	ldr	r2, [pc, #28]	; (8005b30 <USB_CoreReset+0x30>)
 8005b12:	f043 0301 	orr.w	r3, r3, #1
 8005b16:	6103      	str	r3, [r0, #16]
 8005b18:	e001      	b.n	8005b1e <USB_CoreReset+0x1e>
 8005b1a:	3a01      	subs	r2, #1
 8005b1c:	d005      	beq.n	8005b2a <USB_CoreReset+0x2a>
 8005b1e:	6903      	ldr	r3, [r0, #16]
 8005b20:	f013 0301 	ands.w	r3, r3, #1
 8005b24:	d1f9      	bne.n	8005b1a <USB_CoreReset+0x1a>
 8005b26:	4618      	mov	r0, r3
 8005b28:	4770      	bx	lr
 8005b2a:	2003      	movs	r0, #3
 8005b2c:	4770      	bx	lr
 8005b2e:	bf00      	nop
 8005b30:	00030d40 	.word	0x00030d40

08005b34 <USB_CoreInit>:
 8005b34:	b084      	sub	sp, #16
 8005b36:	b538      	push	{r3, r4, r5, lr}
 8005b38:	9d0a      	ldr	r5, [sp, #40]	; 0x28
 8005b3a:	ac05      	add	r4, sp, #20
 8005b3c:	2d01      	cmp	r5, #1
 8005b3e:	e884 000e 	stmia.w	r4, {r1, r2, r3}
 8005b42:	4601      	mov	r1, r0
 8005b44:	d122      	bne.n	8005b8c <USB_CoreInit+0x58>
 8005b46:	6b83      	ldr	r3, [r0, #56]	; 0x38
 8005b48:	9a11      	ldr	r2, [sp, #68]	; 0x44
 8005b4a:	f423 3380 	bic.w	r3, r3, #65536	; 0x10000
 8005b4e:	6383      	str	r3, [r0, #56]	; 0x38
 8005b50:	68c3      	ldr	r3, [r0, #12]
 8005b52:	f423 0384 	bic.w	r3, r3, #4325376	; 0x420000
 8005b56:	f023 0340 	bic.w	r3, r3, #64	; 0x40
 8005b5a:	60c3      	str	r3, [r0, #12]
 8005b5c:	68c3      	ldr	r3, [r0, #12]
 8005b5e:	2a01      	cmp	r2, #1
 8005b60:	f423 1340 	bic.w	r3, r3, #3145728	; 0x300000
 8005b64:	60c3      	str	r3, [r0, #12]
 8005b66:	d023      	beq.n	8005bb0 <USB_CoreInit+0x7c>
 8005b68:	4608      	mov	r0, r1
 8005b6a:	f7ff ffc9 	bl	8005b00 <USB_CoreReset>
 8005b6e:	9b08      	ldr	r3, [sp, #32]
 8005b70:	2b01      	cmp	r3, #1
 8005b72:	d107      	bne.n	8005b84 <USB_CoreInit+0x50>
 8005b74:	688b      	ldr	r3, [r1, #8]
 8005b76:	f043 0306 	orr.w	r3, r3, #6
 8005b7a:	608b      	str	r3, [r1, #8]
 8005b7c:	688b      	ldr	r3, [r1, #8]
 8005b7e:	f043 0320 	orr.w	r3, r3, #32
 8005b82:	608b      	str	r3, [r1, #8]
 8005b84:	e8bd 4038 	ldmia.w	sp!, {r3, r4, r5, lr}
 8005b88:	b004      	add	sp, #16
 8005b8a:	4770      	bx	lr
 8005b8c:	68c3      	ldr	r3, [r0, #12]
 8005b8e:	f043 0340 	orr.w	r3, r3, #64	; 0x40
 8005b92:	60c3      	str	r3, [r0, #12]
 8005b94:	f7ff ffb4 	bl	8005b00 <USB_CoreReset>
 8005b98:	9b0e      	ldr	r3, [sp, #56]	; 0x38
 8005b9a:	b923      	cbnz	r3, 8005ba6 <USB_CoreInit+0x72>
 8005b9c:	6b8b      	ldr	r3, [r1, #56]	; 0x38
 8005b9e:	f443 3380 	orr.w	r3, r3, #65536	; 0x10000
 8005ba2:	638b      	str	r3, [r1, #56]	; 0x38
 8005ba4:	e7e3      	b.n	8005b6e <USB_CoreInit+0x3a>
 8005ba6:	6b8b      	ldr	r3, [r1, #56]	; 0x38
 8005ba8:	f423 3380 	bic.w	r3, r3, #65536	; 0x10000
 8005bac:	638b      	str	r3, [r1, #56]	; 0x38
 8005bae:	e7de      	b.n	8005b6e <USB_CoreInit+0x3a>
 8005bb0:	68c3      	ldr	r3, [r0, #12]
 8005bb2:	f443 1380 	orr.w	r3, r3, #1048576	; 0x100000
 8005bb6:	60c3      	str	r3, [r0, #12]
 8005bb8:	e7d6      	b.n	8005b68 <USB_CoreInit+0x34>
 8005bba:	bf00      	nop

08005bbc <USB_SetTurnaroundTime>:
 8005bbc:	2a02      	cmp	r2, #2
 8005bbe:	d00a      	beq.n	8005bd6 <USB_SetTurnaroundTime+0x1a>
 8005bc0:	f44f 5110 	mov.w	r1, #9216	; 0x2400
 8005bc4:	68c2      	ldr	r2, [r0, #12]
 8005bc6:	f422 5270 	bic.w	r2, r2, #15360	; 0x3c00
 8005bca:	60c2      	str	r2, [r0, #12]
 8005bcc:	68c3      	ldr	r3, [r0, #12]
 8005bce:	430b      	orrs	r3, r1
 8005bd0:	60c3      	str	r3, [r0, #12]
 8005bd2:	2000      	movs	r0, #0
 8005bd4:	4770      	bx	lr
 8005bd6:	4b2d      	ldr	r3, [pc, #180]	; (8005c8c <USB_SetTurnaroundTime+0xd0>)
 8005bd8:	4a2d      	ldr	r2, [pc, #180]	; (8005c90 <USB_SetTurnaroundTime+0xd4>)
 8005bda:	440b      	add	r3, r1
 8005bdc:	4293      	cmp	r3, r2
 8005bde:	d943      	bls.n	8005c68 <USB_SetTurnaroundTime+0xac>
 8005be0:	4b2c      	ldr	r3, [pc, #176]	; (8005c94 <USB_SetTurnaroundTime+0xd8>)
 8005be2:	4a2d      	ldr	r2, [pc, #180]	; (8005c98 <USB_SetTurnaroundTime+0xdc>)
 8005be4:	440b      	add	r3, r1
 8005be6:	4293      	cmp	r3, r2
 8005be8:	d93b      	bls.n	8005c62 <USB_SetTurnaroundTime+0xa6>
 8005bea:	f5a1 0374 	sub.w	r3, r1, #15990784	; 0xf40000
 8005bee:	4a2b      	ldr	r2, [pc, #172]	; (8005c9c <USB_SetTurnaroundTime+0xe0>)
 8005bf0:	f5a3 5310 	sub.w	r3, r3, #9216	; 0x2400
 8005bf4:	4293      	cmp	r3, r2
 8005bf6:	d93a      	bls.n	8005c6e <USB_SetTurnaroundTime+0xb2>
 8005bf8:	f1a1 7383 	sub.w	r3, r1, #17170432	; 0x1060000
 8005bfc:	f502 32c3 	add.w	r2, r2, #99840	; 0x18600
 8005c00:	32a0      	adds	r2, #160	; 0xa0
 8005c02:	f5a3 43e7 	sub.w	r3, r3, #29568	; 0x7380
 8005c06:	4293      	cmp	r3, r2
 8005c08:	d934      	bls.n	8005c74 <USB_SetTurnaroundTime+0xb8>
 8005c0a:	4b25      	ldr	r3, [pc, #148]	; (8005ca0 <USB_SetTurnaroundTime+0xe4>)
 8005c0c:	4a25      	ldr	r2, [pc, #148]	; (8005ca4 <USB_SetTurnaroundTime+0xe8>)
 8005c0e:	440b      	add	r3, r1
 8005c10:	4293      	cmp	r3, r2
 8005c12:	d932      	bls.n	8005c7a <USB_SetTurnaroundTime+0xbe>
 8005c14:	4b24      	ldr	r3, [pc, #144]	; (8005ca8 <USB_SetTurnaroundTime+0xec>)
 8005c16:	f502 2292 	add.w	r2, r2, #299008	; 0x49000
 8005c1a:	f502 7278 	add.w	r2, r2, #992	; 0x3e0
 8005c1e:	440b      	add	r3, r1
 8005c20:	4293      	cmp	r3, r2
 8005c22:	d92d      	bls.n	8005c80 <USB_SetTurnaroundTime+0xc4>
 8005c24:	4b21      	ldr	r3, [pc, #132]	; (8005cac <USB_SetTurnaroundTime+0xf0>)
 8005c26:	f502 22c3 	add.w	r2, r2, #399360	; 0x61800
 8005c2a:	f502 7220 	add.w	r2, r2, #640	; 0x280
 8005c2e:	440b      	add	r3, r1
 8005c30:	4293      	cmp	r3, r2
 8005c32:	d9c5      	bls.n	8005bc0 <USB_SetTurnaroundTime+0x4>
 8005c34:	f1a1 73b7 	sub.w	r3, r1, #23986176	; 0x16e0000
 8005c38:	f502 12b7 	add.w	r2, r2, #1499136	; 0x16e000
 8005c3c:	f502 7258 	add.w	r2, r2, #864	; 0x360
 8005c40:	f5a3 5358 	sub.w	r3, r3, #13824	; 0x3600
 8005c44:	4293      	cmp	r3, r2
 8005c46:	d91e      	bls.n	8005c86 <USB_SetTurnaroundTime+0xca>
 8005c48:	4b19      	ldr	r3, [pc, #100]	; (8005cb0 <USB_SetTurnaroundTime+0xf4>)
 8005c4a:	f502 2212 	add.w	r2, r2, #598016	; 0x92000
 8005c4e:	f502 62f8 	add.w	r2, r2, #1984	; 0x7c0
 8005c52:	440b      	add	r3, r1
 8005c54:	4293      	cmp	r3, r2
 8005c56:	bf8c      	ite	hi
 8005c58:	f44f 51c0 	movhi.w	r1, #6144	; 0x1800
 8005c5c:	f44f 51e0 	movls.w	r1, #7168	; 0x1c00
 8005c60:	e7b0      	b.n	8005bc4 <USB_SetTurnaroundTime+0x8>
 8005c62:	f44f 5160 	mov.w	r1, #14336	; 0x3800
 8005c66:	e7ad      	b.n	8005bc4 <USB_SetTurnaroundTime+0x8>
 8005c68:	f44f 5170 	mov.w	r1, #15360	; 0x3c00
 8005c6c:	e7aa      	b.n	8005bc4 <USB_SetTurnaroundTime+0x8>
 8005c6e:	f44f 5150 	mov.w	r1, #13312	; 0x3400
 8005c72:	e7a7      	b.n	8005bc4 <USB_SetTurnaroundTime+0x8>
 8005c74:	f44f 5140 	mov.w	r1, #12288	; 0x3000
 8005c78:	e7a4      	b.n	8005bc4 <USB_SetTurnaroundTime+0x8>
 8005c7a:	f44f 5130 	mov.w	r1, #11264	; 0x2c00
 8005c7e:	e7a1      	b.n	8005bc4 <USB_SetTurnaroundTime+0x8>
 8005c80:	f44f 5120 	mov.w	r1, #10240	; 0x2800
 8005c84:	e79e      	b.n	8005bc4 <USB_SetTurnaroundTime+0x8>
 8005c86:	f44f 5100 	mov.w	r1, #8192	; 0x2000
 8005c8a:	e79b      	b.n	8005bc4 <USB_SetTurnaroundTime+0x8>
 8005c8c:	ff275340 	.word	0xff275340
 8005c90:	000c34ff 	.word	0x000c34ff
 8005c94:	ff1b1e40 	.word	0xff1b1e40
 8005c98:	000f423f 	.word	0x000f423f
 8005c9c:	00124f7f 	.word	0x00124f7f
 8005ca0:	fee5b660 	.word	0xfee5b660
 8005ca4:	0016e35f 	.word	0x0016e35f
 8005ca8:	feced300 	.word	0xfeced300
 8005cac:	feb35bc0 	.word	0xfeb35bc0
 8005cb0:	fe5954e0 	.word	0xfe5954e0

08005cb4 <USB_EnableGlobalInt>:
 8005cb4:	4602      	mov	r2, r0
 8005cb6:	2000      	movs	r0, #0
 8005cb8:	6893      	ldr	r3, [r2, #8]
 8005cba:	f043 0301 	orr.w	r3, r3, #1
 8005cbe:	6093      	str	r3, [r2, #8]
 8005cc0:	4770      	bx	lr
 8005cc2:	bf00      	nop

08005cc4 <USB_DisableGlobalInt>:
 8005cc4:	4602      	mov	r2, r0
 8005cc6:	2000      	movs	r0, #0
 8005cc8:	6893      	ldr	r3, [r2, #8]
 8005cca:	f023 0301 	bic.w	r3, r3, #1
 8005cce:	6093      	str	r3, [r2, #8]
 8005cd0:	4770      	bx	lr
 8005cd2:	bf00      	nop

08005cd4 <USB_SetCurrentMode>:
 8005cd4:	b508      	push	{r3, lr}
 8005cd6:	68c3      	ldr	r3, [r0, #12]
 8005cd8:	2901      	cmp	r1, #1
 8005cda:	f023 43c0 	bic.w	r3, r3, #1610612736	; 0x60000000
 8005cde:	60c3      	str	r3, [r0, #12]
 8005ce0:	d00b      	beq.n	8005cfa <USB_SetCurrentMode+0x26>
 8005ce2:	b941      	cbnz	r1, 8005cf6 <USB_SetCurrentMode+0x22>
 8005ce4:	68c3      	ldr	r3, [r0, #12]
 8005ce6:	f043 4380 	orr.w	r3, r3, #1073741824	; 0x40000000
 8005cea:	60c3      	str	r3, [r0, #12]
 8005cec:	2032      	movs	r0, #50	; 0x32
 8005cee:	f7fb f92f 	bl	8000f50 <HAL_Delay>
 8005cf2:	2000      	movs	r0, #0
 8005cf4:	bd08      	pop	{r3, pc}
 8005cf6:	2001      	movs	r0, #1
 8005cf8:	bd08      	pop	{r3, pc}
 8005cfa:	68c3      	ldr	r3, [r0, #12]
 8005cfc:	f043 5300 	orr.w	r3, r3, #536870912	; 0x20000000
 8005d00:	60c3      	str	r3, [r0, #12]
 8005d02:	e7f3      	b.n	8005cec <USB_SetCurrentMode+0x18>

08005d04 <USB_DevInit>:
 8005d04:	b084      	sub	sp, #16
 8005d06:	e92d 43f0 	stmdb	sp!, {r4, r5, r6, r7, r8, r9, lr}
 8005d0a:	ac08      	add	r4, sp, #32
 8005d0c:	e884 000e 	stmia.w	r4, {r1, r2, r3}
 8005d10:	2300      	movs	r3, #0
 8005d12:	9c12      	ldr	r4, [sp, #72]	; 0x48
 8005d14:	4602      	mov	r2, r0
 8005d16:	460d      	mov	r5, r1
 8005d18:	4618      	mov	r0, r3
 8005d1a:	f103 0140 	add.w	r1, r3, #64	; 0x40
 8005d1e:	eb02 0181 	add.w	r1, r2, r1, lsl #2
 8005d22:	3301      	adds	r3, #1
 8005d24:	2b0f      	cmp	r3, #15
 8005d26:	6048      	str	r0, [r1, #4]
 8005d28:	d1f7      	bne.n	8005d1a <USB_DevInit+0x16>
 8005d2a:	f502 6600 	add.w	r6, r2, #2048	; 0x800
 8005d2e:	2c00      	cmp	r4, #0
 8005d30:	f040 809a 	bne.w	8005e68 <USB_DevInit+0x164>
 8005d34:	6873      	ldr	r3, [r6, #4]
 8005d36:	f043 0302 	orr.w	r3, r3, #2
 8005d3a:	6073      	str	r3, [r6, #4]
 8005d3c:	6b93      	ldr	r3, [r2, #56]	; 0x38
 8005d3e:	f443 1300 	orr.w	r3, r3, #2097152	; 0x200000
 8005d42:	6393      	str	r3, [r2, #56]	; 0x38
 8005d44:	6b93      	ldr	r3, [r2, #56]	; 0x38
 8005d46:	f423 2300 	bic.w	r3, r3, #524288	; 0x80000
 8005d4a:	6393      	str	r3, [r2, #56]	; 0x38
 8005d4c:	6b93      	ldr	r3, [r2, #56]	; 0x38
 8005d4e:	f423 2380 	bic.w	r3, r3, #262144	; 0x40000
 8005d52:	6393      	str	r3, [r2, #56]	; 0x38
 8005d54:	2300      	movs	r3, #0
 8005d56:	f8c2 3e00 	str.w	r3, [r2, #3584]	; 0xe00
 8005d5a:	9b0d      	ldr	r3, [sp, #52]	; 0x34
 8005d5c:	f8d2 1800 	ldr.w	r1, [r2, #2048]	; 0x800
 8005d60:	f8c2 1800 	str.w	r1, [r2, #2048]	; 0x800
 8005d64:	2b01      	cmp	r3, #1
 8005d66:	f000 8088 	beq.w	8005e7a <USB_DevInit+0x176>
 8005d6a:	f8d2 3800 	ldr.w	r3, [r2, #2048]	; 0x800
 8005d6e:	f043 0303 	orr.w	r3, r3, #3
 8005d72:	f8c2 3800 	str.w	r3, [r2, #2048]	; 0x800
 8005d76:	f44f 6384 	mov.w	r3, #1056	; 0x420
 8005d7a:	6113      	str	r3, [r2, #16]
 8005d7c:	4b4b      	ldr	r3, [pc, #300]	; (8005eac <USB_DevInit+0x1a8>)
 8005d7e:	e002      	b.n	8005d86 <USB_DevInit+0x82>
 8005d80:	3b01      	subs	r3, #1
 8005d82:	f000 8088 	beq.w	8005e96 <USB_DevInit+0x192>
 8005d86:	6910      	ldr	r0, [r2, #16]
 8005d88:	f010 0020 	ands.w	r0, r0, #32
 8005d8c:	d1f8      	bne.n	8005d80 <USB_DevInit+0x7c>
 8005d8e:	2310      	movs	r3, #16
 8005d90:	6113      	str	r3, [r2, #16]
 8005d92:	4b46      	ldr	r3, [pc, #280]	; (8005eac <USB_DevInit+0x1a8>)
 8005d94:	e001      	b.n	8005d9a <USB_DevInit+0x96>
 8005d96:	3b01      	subs	r3, #1
 8005d98:	d07f      	beq.n	8005e9a <USB_DevInit+0x196>
 8005d9a:	6911      	ldr	r1, [r2, #16]
 8005d9c:	06c9      	lsls	r1, r1, #27
 8005d9e:	d4fa      	bmi.n	8005d96 <USB_DevInit+0x92>
 8005da0:	2100      	movs	r1, #0
 8005da2:	6131      	str	r1, [r6, #16]
 8005da4:	6171      	str	r1, [r6, #20]
 8005da6:	61f1      	str	r1, [r6, #28]
 8005da8:	b1e5      	cbz	r5, 8005de4 <USB_DevInit+0xe0>
 8005daa:	468c      	mov	ip, r1
 8005dac:	f502 6310 	add.w	r3, r2, #2304	; 0x900
 8005db0:	f04f 4890 	mov.w	r8, #1207959552	; 0x48000000
 8005db4:	f04f 6900 	mov.w	r9, #134217728	; 0x8000000
 8005db8:	f64f 3e7f 	movw	lr, #64383	; 0xfb7f
 8005dbc:	e00a      	b.n	8005dd4 <USB_DevInit+0xd0>
 8005dbe:	f8c3 c000 	str.w	ip, [r3]
 8005dc2:	3101      	adds	r1, #1
 8005dc4:	42a9      	cmp	r1, r5
 8005dc6:	f8c3 c010 	str.w	ip, [r3, #16]
 8005dca:	f8c3 e008 	str.w	lr, [r3, #8]
 8005dce:	f103 0320 	add.w	r3, r3, #32
 8005dd2:	d02c      	beq.n	8005e2e <USB_DevInit+0x12a>
 8005dd4:	681f      	ldr	r7, [r3, #0]
 8005dd6:	2f00      	cmp	r7, #0
 8005dd8:	daf1      	bge.n	8005dbe <USB_DevInit+0xba>
 8005dda:	2900      	cmp	r1, #0
 8005ddc:	d062      	beq.n	8005ea4 <USB_DevInit+0x1a0>
 8005dde:	f8c3 8000 	str.w	r8, [r3]
 8005de2:	e7ee      	b.n	8005dc2 <USB_DevInit+0xbe>
 8005de4:	6933      	ldr	r3, [r6, #16]
 8005de6:	990b      	ldr	r1, [sp, #44]	; 0x2c
 8005de8:	f423 7380 	bic.w	r3, r3, #256	; 0x100
 8005dec:	6133      	str	r3, [r6, #16]
 8005dee:	2500      	movs	r5, #0
 8005df0:	f06f 4380 	mvn.w	r3, #1073741824	; 0x40000000
 8005df4:	6195      	str	r5, [r2, #24]
 8005df6:	6153      	str	r3, [r2, #20]
 8005df8:	b919      	cbnz	r1, 8005e02 <USB_DevInit+0xfe>
 8005dfa:	6993      	ldr	r3, [r2, #24]
 8005dfc:	f043 0310 	orr.w	r3, r3, #16
 8005e00:	6193      	str	r3, [r2, #24]
 8005e02:	6995      	ldr	r5, [r2, #24]
 8005e04:	4b2a      	ldr	r3, [pc, #168]	; (8005eb0 <USB_DevInit+0x1ac>)
 8005e06:	990e      	ldr	r1, [sp, #56]	; 0x38
 8005e08:	432b      	orrs	r3, r5
 8005e0a:	6193      	str	r3, [r2, #24]
 8005e0c:	b119      	cbz	r1, 8005e16 <USB_DevInit+0x112>
 8005e0e:	6993      	ldr	r3, [r2, #24]
 8005e10:	f043 0308 	orr.w	r3, r3, #8
 8005e14:	6193      	str	r3, [r2, #24]
 8005e16:	2c01      	cmp	r4, #1
 8005e18:	d105      	bne.n	8005e26 <USB_DevInit+0x122>
 8005e1a:	6993      	ldr	r3, [r2, #24]
 8005e1c:	f043 4380 	orr.w	r3, r3, #1073741824	; 0x40000000
 8005e20:	f043 0304 	orr.w	r3, r3, #4
 8005e24:	6193      	str	r3, [r2, #24]
 8005e26:	e8bd 43f0 	ldmia.w	sp!, {r4, r5, r6, r7, r8, r9, lr}
 8005e2a:	b004      	add	sp, #16
 8005e2c:	4770      	bx	lr
 8005e2e:	2500      	movs	r5, #0
 8005e30:	46ac      	mov	ip, r5
 8005e32:	f502 6330 	add.w	r3, r2, #2816	; 0xb00
 8005e36:	f04f 4890 	mov.w	r8, #1207959552	; 0x48000000
 8005e3a:	f04f 6900 	mov.w	r9, #134217728	; 0x8000000
 8005e3e:	f64f 3e7f 	movw	lr, #64383	; 0xfb7f
 8005e42:	e00a      	b.n	8005e5a <USB_DevInit+0x156>
 8005e44:	f8c3 c000 	str.w	ip, [r3]
 8005e48:	3501      	adds	r5, #1
 8005e4a:	428d      	cmp	r5, r1
 8005e4c:	f8c3 c010 	str.w	ip, [r3, #16]
 8005e50:	f8c3 e008 	str.w	lr, [r3, #8]
 8005e54:	f103 0320 	add.w	r3, r3, #32
 8005e58:	d0c4      	beq.n	8005de4 <USB_DevInit+0xe0>
 8005e5a:	681f      	ldr	r7, [r3, #0]
 8005e5c:	2f00      	cmp	r7, #0
 8005e5e:	daf1      	bge.n	8005e44 <USB_DevInit+0x140>
 8005e60:	b1ed      	cbz	r5, 8005e9e <USB_DevInit+0x19a>
 8005e62:	f8c3 8000 	str.w	r8, [r3]
 8005e66:	e7ef      	b.n	8005e48 <USB_DevInit+0x144>
 8005e68:	6b93      	ldr	r3, [r2, #56]	; 0x38
 8005e6a:	f423 1300 	bic.w	r3, r3, #2097152	; 0x200000
 8005e6e:	6393      	str	r3, [r2, #56]	; 0x38
 8005e70:	6b93      	ldr	r3, [r2, #56]	; 0x38
 8005e72:	f443 2300 	orr.w	r3, r3, #524288	; 0x80000
 8005e76:	6393      	str	r3, [r2, #56]	; 0x38
 8005e78:	e76c      	b.n	8005d54 <USB_DevInit+0x50>
 8005e7a:	9b0a      	ldr	r3, [sp, #40]	; 0x28
 8005e7c:	b923      	cbnz	r3, 8005e88 <USB_DevInit+0x184>
 8005e7e:	f8d2 3800 	ldr.w	r3, [r2, #2048]	; 0x800
 8005e82:	f8c2 3800 	str.w	r3, [r2, #2048]	; 0x800
 8005e86:	e776      	b.n	8005d76 <USB_DevInit+0x72>
 8005e88:	f8d2 3800 	ldr.w	r3, [r2, #2048]	; 0x800
 8005e8c:	f043 0301 	orr.w	r3, r3, #1
 8005e90:	f8c2 3800 	str.w	r3, [r2, #2048]	; 0x800
 8005e94:	e76f      	b.n	8005d76 <USB_DevInit+0x72>
 8005e96:	2001      	movs	r0, #1
 8005e98:	e779      	b.n	8005d8e <USB_DevInit+0x8a>
 8005e9a:	2001      	movs	r0, #1
 8005e9c:	e780      	b.n	8005da0 <USB_DevInit+0x9c>
 8005e9e:	f8c3 9000 	str.w	r9, [r3]
 8005ea2:	e7d1      	b.n	8005e48 <USB_DevInit+0x144>
 8005ea4:	f8c3 9000 	str.w	r9, [r3]
 8005ea8:	e78b      	b.n	8005dc2 <USB_DevInit+0xbe>
 8005eaa:	bf00      	nop
 8005eac:	00030d40 	.word	0x00030d40
 8005eb0:	803c3800 	.word	0x803c3800

08005eb4 <USB_FlushTxFifo>:
 8005eb4:	0189      	lsls	r1, r1, #6
 8005eb6:	f041 0120 	orr.w	r1, r1, #32
 8005eba:	6101      	str	r1, [r0, #16]
 8005ebc:	4a05      	ldr	r2, [pc, #20]	; (8005ed4 <USB_FlushTxFifo+0x20>)
 8005ebe:	e001      	b.n	8005ec4 <USB_FlushTxFifo+0x10>
 8005ec0:	3a01      	subs	r2, #1
 8005ec2:	d005      	beq.n	8005ed0 <USB_FlushTxFifo+0x1c>
 8005ec4:	6903      	ldr	r3, [r0, #16]
 8005ec6:	f013 0320 	ands.w	r3, r3, #32
 8005eca:	d1f9      	bne.n	8005ec0 <USB_FlushTxFifo+0xc>
 8005ecc:	4618      	mov	r0, r3
 8005ece:	4770      	bx	lr
 8005ed0:	2003      	movs	r0, #3
 8005ed2:	4770      	bx	lr
 8005ed4:	00030d40 	.word	0x00030d40

08005ed8 <USB_GetDevSpeed>:
 8005ed8:	f8d0 3808 	ldr.w	r3, [r0, #2056]	; 0x808
 8005edc:	f013 0006 	ands.w	r0, r3, #6
 8005ee0:	d004      	beq.n	8005eec <USB_GetDevSpeed+0x14>
 8005ee2:	f013 0f02 	tst.w	r3, #2
 8005ee6:	bf14      	ite	ne
 8005ee8:	2002      	movne	r0, #2
 8005eea:	200f      	moveq	r0, #15
 8005eec:	4770      	bx	lr
 8005eee:	bf00      	nop

08005ef0 <USB_ActivateEndpoint>:
 8005ef0:	b430      	push	{r4, r5}
 8005ef2:	780a      	ldrb	r2, [r1, #0]
 8005ef4:	784d      	ldrb	r5, [r1, #1]
 8005ef6:	f002 040f 	and.w	r4, r2, #15
 8005efa:	2301      	movs	r3, #1
 8005efc:	2d01      	cmp	r5, #1
 8005efe:	fa03 f304 	lsl.w	r3, r3, r4
 8005f02:	eb00 1442 	add.w	r4, r0, r2, lsl #5
 8005f06:	f500 6000 	add.w	r0, r0, #2048	; 0x800
 8005f0a:	d019      	beq.n	8005f40 <USB_ActivateEndpoint+0x50>
 8005f0c:	69c2      	ldr	r2, [r0, #28]
 8005f0e:	ea42 4303 	orr.w	r3, r2, r3, lsl #16
 8005f12:	61c3      	str	r3, [r0, #28]
 8005f14:	f8d4 3b00 	ldr.w	r3, [r4, #2816]	; 0xb00
 8005f18:	041b      	lsls	r3, r3, #16
 8005f1a:	d40e      	bmi.n	8005f3a <USB_ActivateEndpoint+0x4a>
 8005f1c:	688a      	ldr	r2, [r1, #8]
 8005f1e:	78c8      	ldrb	r0, [r1, #3]
 8005f20:	f8d4 1b00 	ldr.w	r1, [r4, #2816]	; 0xb00
 8005f24:	f3c2 020a 	ubfx	r2, r2, #0, #11
 8005f28:	f042 5380 	orr.w	r3, r2, #268435456	; 0x10000000
 8005f2c:	f443 4300 	orr.w	r3, r3, #32768	; 0x8000
 8005f30:	ea43 4380 	orr.w	r3, r3, r0, lsl #18
 8005f34:	430b      	orrs	r3, r1
 8005f36:	f8c4 3b00 	str.w	r3, [r4, #2816]	; 0xb00
 8005f3a:	2000      	movs	r0, #0
 8005f3c:	bc30      	pop	{r4, r5}
 8005f3e:	4770      	bx	lr
 8005f40:	69c5      	ldr	r5, [r0, #28]
 8005f42:	432b      	orrs	r3, r5
 8005f44:	61c3      	str	r3, [r0, #28]
 8005f46:	f8d4 3900 	ldr.w	r3, [r4, #2304]	; 0x900
 8005f4a:	0418      	lsls	r0, r3, #16
 8005f4c:	d4f5      	bmi.n	8005f3a <USB_ActivateEndpoint+0x4a>
 8005f4e:	688b      	ldr	r3, [r1, #8]
 8005f50:	78c8      	ldrb	r0, [r1, #3]
 8005f52:	f8d4 1900 	ldr.w	r1, [r4, #2304]	; 0x900
 8005f56:	f3c3 030a 	ubfx	r3, r3, #0, #11
 8005f5a:	f043 5380 	orr.w	r3, r3, #268435456	; 0x10000000
 8005f5e:	f443 4300 	orr.w	r3, r3, #32768	; 0x8000
 8005f62:	ea43 4380 	orr.w	r3, r3, r0, lsl #18
 8005f66:	ea43 5282 	orr.w	r2, r3, r2, lsl #22
 8005f6a:	430a      	orrs	r2, r1
 8005f6c:	f8c4 2900 	str.w	r2, [r4, #2304]	; 0x900
 8005f70:	2000      	movs	r0, #0
 8005f72:	bc30      	pop	{r4, r5}
 8005f74:	4770      	bx	lr
 8005f76:	bf00      	nop

08005f78 <USB_DeactivateEndpoint>:
 8005f78:	b410      	push	{r4}
 8005f7a:	784c      	ldrb	r4, [r1, #1]
 8005f7c:	780b      	ldrb	r3, [r1, #0]
 8005f7e:	2c01      	cmp	r4, #1
 8005f80:	eb00 1243 	add.w	r2, r0, r3, lsl #5
 8005f84:	d02a      	beq.n	8005fdc <USB_DeactivateEndpoint+0x64>
 8005f86:	f8d2 1b00 	ldr.w	r1, [r2, #2816]	; 0xb00
 8005f8a:	2900      	cmp	r1, #0
 8005f8c:	db19      	blt.n	8005fc2 <USB_DeactivateEndpoint+0x4a>
 8005f8e:	f003 010f 	and.w	r1, r3, #15
 8005f92:	f44f 3380 	mov.w	r3, #65536	; 0x10000
 8005f96:	f8d0 483c 	ldr.w	r4, [r0, #2108]	; 0x83c
 8005f9a:	408b      	lsls	r3, r1
 8005f9c:	43db      	mvns	r3, r3
 8005f9e:	401c      	ands	r4, r3
 8005fa0:	f8c0 483c 	str.w	r4, [r0, #2108]	; 0x83c
 8005fa4:	f8d0 481c 	ldr.w	r4, [r0, #2076]	; 0x81c
 8005fa8:	4921      	ldr	r1, [pc, #132]	; (8006030 <USB_DeactivateEndpoint+0xb8>)
 8005faa:	4023      	ands	r3, r4
 8005fac:	f8c0 381c 	str.w	r3, [r0, #2076]	; 0x81c
 8005fb0:	f8d2 3b00 	ldr.w	r3, [r2, #2816]	; 0xb00
 8005fb4:	f85d 4b04 	ldr.w	r4, [sp], #4
 8005fb8:	4019      	ands	r1, r3
 8005fba:	2000      	movs	r0, #0
 8005fbc:	f8c2 1b00 	str.w	r1, [r2, #2816]	; 0xb00
 8005fc0:	4770      	bx	lr
 8005fc2:	f8d2 1b00 	ldr.w	r1, [r2, #2816]	; 0xb00
 8005fc6:	f041 6100 	orr.w	r1, r1, #134217728	; 0x8000000
 8005fca:	f8c2 1b00 	str.w	r1, [r2, #2816]	; 0xb00
 8005fce:	f8d2 1b00 	ldr.w	r1, [r2, #2816]	; 0xb00
 8005fd2:	f041 4180 	orr.w	r1, r1, #1073741824	; 0x40000000
 8005fd6:	f8c2 1b00 	str.w	r1, [r2, #2816]	; 0xb00
 8005fda:	e7d8      	b.n	8005f8e <USB_DeactivateEndpoint+0x16>
 8005fdc:	f8d2 1900 	ldr.w	r1, [r2, #2304]	; 0x900
 8005fe0:	2900      	cmp	r1, #0
 8005fe2:	da0b      	bge.n	8005ffc <USB_DeactivateEndpoint+0x84>
 8005fe4:	f8d2 1900 	ldr.w	r1, [r2, #2304]	; 0x900
 8005fe8:	f041 6100 	orr.w	r1, r1, #134217728	; 0x8000000
 8005fec:	f8c2 1900 	str.w	r1, [r2, #2304]	; 0x900
 8005ff0:	f8d2 1900 	ldr.w	r1, [r2, #2304]	; 0x900
 8005ff4:	f041 4180 	orr.w	r1, r1, #1073741824	; 0x40000000
 8005ff8:	f8c2 1900 	str.w	r1, [r2, #2304]	; 0x900
 8005ffc:	f003 010f 	and.w	r1, r3, #15
 8006000:	2301      	movs	r3, #1
 8006002:	f8d0 483c 	ldr.w	r4, [r0, #2108]	; 0x83c
 8006006:	408b      	lsls	r3, r1
 8006008:	43db      	mvns	r3, r3
 800600a:	401c      	ands	r4, r3
 800600c:	f8c0 483c 	str.w	r4, [r0, #2108]	; 0x83c
 8006010:	f8d0 481c 	ldr.w	r4, [r0, #2076]	; 0x81c
 8006014:	4907      	ldr	r1, [pc, #28]	; (8006034 <USB_DeactivateEndpoint+0xbc>)
 8006016:	4023      	ands	r3, r4
 8006018:	f8c0 381c 	str.w	r3, [r0, #2076]	; 0x81c
 800601c:	f8d2 3900 	ldr.w	r3, [r2, #2304]	; 0x900
 8006020:	f85d 4b04 	ldr.w	r4, [sp], #4
 8006024:	4019      	ands	r1, r3
 8006026:	2000      	movs	r0, #0
 8006028:	f8c2 1900 	str.w	r1, [r2, #2304]	; 0x900
 800602c:	4770      	bx	lr
 800602e:	bf00      	nop
 8006030:	eff37800 	.word	0xeff37800
 8006034:	ec337800 	.word	0xec337800

08006038 <USB_EPStartXfer>:
 8006038:	e92d 43f0 	stmdb	sp!, {r4, r5, r6, r7, r8, r9, lr}
 800603c:	784e      	ldrb	r6, [r1, #1]
 800603e:	780b      	ldrb	r3, [r1, #0]
 8006040:	694c      	ldr	r4, [r1, #20]
 8006042:	78cf      	ldrb	r7, [r1, #3]
 8006044:	2e01      	cmp	r6, #1
 8006046:	eb00 1343 	add.w	r3, r0, r3, lsl #5
 800604a:	d04e      	beq.n	80060ea <USB_EPStartXfer+0xb2>
 800604c:	f503 6530 	add.w	r5, r3, #2816	; 0xb00
 8006050:	692e      	ldr	r6, [r5, #16]
 8006052:	f8d1 c008 	ldr.w	ip, [r1, #8]
 8006056:	0cf6      	lsrs	r6, r6, #19
 8006058:	04f6      	lsls	r6, r6, #19
 800605a:	612e      	str	r6, [r5, #16]
 800605c:	692e      	ldr	r6, [r5, #16]
 800605e:	f026 56ff 	bic.w	r6, r6, #534773760	; 0x1fe00000
 8006062:	f426 16c0 	bic.w	r6, r6, #1572864	; 0x180000
 8006066:	612e      	str	r6, [r5, #16]
 8006068:	b37c      	cbz	r4, 80060ca <USB_EPStartXfer+0x92>
 800606a:	f8df e1cc 	ldr.w	lr, [pc, #460]	; 8006238 <USB_EPStartXfer+0x200>
 800606e:	f8d5 8010 	ldr.w	r8, [r5, #16]
 8006072:	eb04 060c 	add.w	r6, r4, ip
 8006076:	3e01      	subs	r6, #1
 8006078:	fbb6 f6fc 	udiv	r6, r6, ip
 800607c:	ea0e 44c6 	and.w	r4, lr, r6, lsl #19
 8006080:	ea44 0408 	orr.w	r4, r4, r8
 8006084:	612c      	str	r4, [r5, #16]
 8006086:	b2b6      	uxth	r6, r6
 8006088:	fb0c f406 	mul.w	r4, ip, r6
 800608c:	692e      	ldr	r6, [r5, #16]
 800608e:	f3c4 0412 	ubfx	r4, r4, #0, #19
 8006092:	4334      	orrs	r4, r6
 8006094:	2a01      	cmp	r2, #1
 8006096:	612c      	str	r4, [r5, #16]
 8006098:	d022      	beq.n	80060e0 <USB_EPStartXfer+0xa8>
 800609a:	2f01      	cmp	r7, #1
 800609c:	d10c      	bne.n	80060b8 <USB_EPStartXfer+0x80>
 800609e:	f8d0 2808 	ldr.w	r2, [r0, #2056]	; 0x808
 80060a2:	f412 7f80 	tst.w	r2, #256	; 0x100
 80060a6:	f8d3 2b00 	ldr.w	r2, [r3, #2816]	; 0xb00
 80060aa:	bf0c      	ite	eq
 80060ac:	f042 5200 	orreq.w	r2, r2, #536870912	; 0x20000000
 80060b0:	f042 5280 	orrne.w	r2, r2, #268435456	; 0x10000000
 80060b4:	f8c3 2b00 	str.w	r2, [r3, #2816]	; 0xb00
 80060b8:	f8d3 2b00 	ldr.w	r2, [r3, #2816]	; 0xb00
 80060bc:	f042 4204 	orr.w	r2, r2, #2214592512	; 0x84000000
 80060c0:	f8c3 2b00 	str.w	r2, [r3, #2816]	; 0xb00
 80060c4:	2000      	movs	r0, #0
 80060c6:	e8bd 83f0 	ldmia.w	sp!, {r4, r5, r6, r7, r8, r9, pc}
 80060ca:	692e      	ldr	r6, [r5, #16]
 80060cc:	f3cc 0412 	ubfx	r4, ip, #0, #19
 80060d0:	4334      	orrs	r4, r6
 80060d2:	612c      	str	r4, [r5, #16]
 80060d4:	692c      	ldr	r4, [r5, #16]
 80060d6:	2a01      	cmp	r2, #1
 80060d8:	f444 2400 	orr.w	r4, r4, #524288	; 0x80000
 80060dc:	612c      	str	r4, [r5, #16]
 80060de:	d1dc      	bne.n	800609a <USB_EPStartXfer+0x62>
 80060e0:	68ca      	ldr	r2, [r1, #12]
 80060e2:	2a00      	cmp	r2, #0
 80060e4:	d0d9      	beq.n	800609a <USB_EPStartXfer+0x62>
 80060e6:	616a      	str	r2, [r5, #20]
 80060e8:	e7d7      	b.n	800609a <USB_EPStartXfer+0x62>
 80060ea:	f503 6510 	add.w	r5, r3, #2304	; 0x900
 80060ee:	b3ec      	cbz	r4, 800616c <USB_EPStartXfer+0x134>
 80060f0:	f8d5 e010 	ldr.w	lr, [r5, #16]
 80060f4:	f8d1 9008 	ldr.w	r9, [r1, #8]
 80060f8:	f8df c13c 	ldr.w	ip, [pc, #316]	; 8006238 <USB_EPStartXfer+0x200>
 80060fc:	ea4f 4ede 	mov.w	lr, lr, lsr #19
 8006100:	ea4f 4ece 	mov.w	lr, lr, lsl #19
 8006104:	f8c5 e010 	str.w	lr, [r5, #16]
 8006108:	f8d5 8010 	ldr.w	r8, [r5, #16]
 800610c:	f028 58ff 	bic.w	r8, r8, #534773760	; 0x1fe00000
 8006110:	f428 18c0 	bic.w	r8, r8, #1572864	; 0x180000
 8006114:	f8c5 8010 	str.w	r8, [r5, #16]
 8006118:	f8d5 8010 	ldr.w	r8, [r5, #16]
 800611c:	eb09 0e04 	add.w	lr, r9, r4
 8006120:	f10e 3eff 	add.w	lr, lr, #4294967295
 8006124:	fbbe fef9 	udiv	lr, lr, r9
 8006128:	ea0c 4cce 	and.w	ip, ip, lr, lsl #19
 800612c:	ea4c 0c08 	orr.w	ip, ip, r8
 8006130:	f8c5 c010 	str.w	ip, [r5, #16]
 8006134:	f8d5 e010 	ldr.w	lr, [r5, #16]
 8006138:	f3c4 0c12 	ubfx	ip, r4, #0, #19
 800613c:	ea4c 0c0e 	orr.w	ip, ip, lr
 8006140:	2f01      	cmp	r7, #1
 8006142:	f8c5 c010 	str.w	ip, [r5, #16]
 8006146:	d04a      	beq.n	80061de <USB_EPStartXfer+0x1a6>
 8006148:	2a01      	cmp	r2, #1
 800614a:	d052      	beq.n	80061f2 <USB_EPStartXfer+0x1ba>
 800614c:	f8d3 2900 	ldr.w	r2, [r3, #2304]	; 0x900
 8006150:	f042 4204 	orr.w	r2, r2, #2214592512	; 0x84000000
 8006154:	f8c3 2900 	str.w	r2, [r3, #2304]	; 0x900
 8006158:	780b      	ldrb	r3, [r1, #0]
 800615a:	f8d0 2834 	ldr.w	r2, [r0, #2100]	; 0x834
 800615e:	f003 030f 	and.w	r3, r3, #15
 8006162:	409e      	lsls	r6, r3
 8006164:	4316      	orrs	r6, r2
 8006166:	f8c0 6834 	str.w	r6, [r0, #2100]	; 0x834
 800616a:	e7ab      	b.n	80060c4 <USB_EPStartXfer+0x8c>
 800616c:	692e      	ldr	r6, [r5, #16]
 800616e:	f026 56ff 	bic.w	r6, r6, #534773760	; 0x1fe00000
 8006172:	f426 16c0 	bic.w	r6, r6, #1572864	; 0x180000
 8006176:	612e      	str	r6, [r5, #16]
 8006178:	692e      	ldr	r6, [r5, #16]
 800617a:	f446 2600 	orr.w	r6, r6, #524288	; 0x80000
 800617e:	612e      	str	r6, [r5, #16]
 8006180:	692e      	ldr	r6, [r5, #16]
 8006182:	0cf6      	lsrs	r6, r6, #19
 8006184:	04f6      	lsls	r6, r6, #19
 8006186:	2a01      	cmp	r2, #1
 8006188:	612e      	str	r6, [r5, #16]
 800618a:	d032      	beq.n	80061f2 <USB_EPStartXfer+0x1ba>
 800618c:	f8d3 5900 	ldr.w	r5, [r3, #2304]	; 0x900
 8006190:	2f01      	cmp	r7, #1
 8006192:	f045 4504 	orr.w	r5, r5, #2214592512	; 0x84000000
 8006196:	f8c3 5900 	str.w	r5, [r3, #2304]	; 0x900
 800619a:	d193      	bne.n	80060c4 <USB_EPStartXfer+0x8c>
 800619c:	f8d0 5808 	ldr.w	r5, [r0, #2056]	; 0x808
 80061a0:	f415 7f80 	tst.w	r5, #256	; 0x100
 80061a4:	f8d3 5900 	ldr.w	r5, [r3, #2304]	; 0x900
 80061a8:	bf0c      	ite	eq
 80061aa:	f045 5500 	orreq.w	r5, r5, #536870912	; 0x20000000
 80061ae:	f045 5580 	orrne.w	r5, r5, #268435456	; 0x10000000
 80061b2:	f8c3 5900 	str.w	r5, [r3, #2304]	; 0x900
 80061b6:	2a00      	cmp	r2, #0
 80061b8:	d184      	bne.n	80060c4 <USB_EPStartXfer+0x8c>
 80061ba:	b2a2      	uxth	r2, r4
 80061bc:	3203      	adds	r2, #3
 80061be:	0892      	lsrs	r2, r2, #2
 80061c0:	d080      	beq.n	80060c4 <USB_EPStartXfer+0x8c>
 80061c2:	780c      	ldrb	r4, [r1, #0]
 80061c4:	68cb      	ldr	r3, [r1, #12]
 80061c6:	eb00 3004 	add.w	r0, r0, r4, lsl #12
 80061ca:	f500 5080 	add.w	r0, r0, #4096	; 0x1000
 80061ce:	eb03 0282 	add.w	r2, r3, r2, lsl #2
 80061d2:	f853 1b04 	ldr.w	r1, [r3], #4
 80061d6:	6001      	str	r1, [r0, #0]
 80061d8:	4293      	cmp	r3, r2
 80061da:	d1fa      	bne.n	80061d2 <USB_EPStartXfer+0x19a>
 80061dc:	e772      	b.n	80060c4 <USB_EPStartXfer+0x8c>
 80061de:	692e      	ldr	r6, [r5, #16]
 80061e0:	f026 46c0 	bic.w	r6, r6, #1610612736	; 0x60000000
 80061e4:	612e      	str	r6, [r5, #16]
 80061e6:	692e      	ldr	r6, [r5, #16]
 80061e8:	2a01      	cmp	r2, #1
 80061ea:	f046 5600 	orr.w	r6, r6, #536870912	; 0x20000000
 80061ee:	612e      	str	r6, [r5, #16]
 80061f0:	d11a      	bne.n	8006228 <USB_EPStartXfer+0x1f0>
 80061f2:	690a      	ldr	r2, [r1, #16]
 80061f4:	b102      	cbz	r2, 80061f8 <USB_EPStartXfer+0x1c0>
 80061f6:	616a      	str	r2, [r5, #20]
 80061f8:	2f01      	cmp	r7, #1
 80061fa:	d10c      	bne.n	8006216 <USB_EPStartXfer+0x1de>
 80061fc:	f8d0 2808 	ldr.w	r2, [r0, #2056]	; 0x808
 8006200:	f412 7f80 	tst.w	r2, #256	; 0x100
 8006204:	f8d3 2900 	ldr.w	r2, [r3, #2304]	; 0x900
 8006208:	bf0c      	ite	eq
 800620a:	f042 5200 	orreq.w	r2, r2, #536870912	; 0x20000000
 800620e:	f042 5280 	orrne.w	r2, r2, #268435456	; 0x10000000
 8006212:	f8c3 2900 	str.w	r2, [r3, #2304]	; 0x900
 8006216:	f8d3 2900 	ldr.w	r2, [r3, #2304]	; 0x900
 800621a:	f042 4204 	orr.w	r2, r2, #2214592512	; 0x84000000
 800621e:	f8c3 2900 	str.w	r2, [r3, #2304]	; 0x900
 8006222:	2000      	movs	r0, #0
 8006224:	e8bd 83f0 	ldmia.w	sp!, {r4, r5, r6, r7, r8, r9, pc}
 8006228:	f8d3 5900 	ldr.w	r5, [r3, #2304]	; 0x900
 800622c:	f045 4504 	orr.w	r5, r5, #2214592512	; 0x84000000
 8006230:	f8c3 5900 	str.w	r5, [r3, #2304]	; 0x900
 8006234:	e7b2      	b.n	800619c <USB_EPStartXfer+0x164>
 8006236:	bf00      	nop
 8006238:	1ff80000 	.word	0x1ff80000

0800623c <USB_EP0StartXfer>:
 800623c:	b4f0      	push	{r4, r5, r6, r7}
 800623e:	784b      	ldrb	r3, [r1, #1]
 8006240:	780c      	ldrb	r4, [r1, #0]
 8006242:	694e      	ldr	r6, [r1, #20]
 8006244:	2b01      	cmp	r3, #1
 8006246:	eb00 1444 	add.w	r4, r0, r4, lsl #5
 800624a:	d027      	beq.n	800629c <USB_EP0StartXfer+0x60>
 800624c:	f504 6330 	add.w	r3, r4, #2816	; 0xb00
 8006250:	691d      	ldr	r5, [r3, #16]
 8006252:	6888      	ldr	r0, [r1, #8]
 8006254:	0ced      	lsrs	r5, r5, #19
 8006256:	04ed      	lsls	r5, r5, #19
 8006258:	611d      	str	r5, [r3, #16]
 800625a:	691d      	ldr	r5, [r3, #16]
 800625c:	f025 55ff 	bic.w	r5, r5, #534773760	; 0x1fe00000
 8006260:	f425 15c0 	bic.w	r5, r5, #1572864	; 0x180000
 8006264:	611d      	str	r5, [r3, #16]
 8006266:	b106      	cbz	r6, 800626a <USB_EP0StartXfer+0x2e>
 8006268:	6148      	str	r0, [r1, #20]
 800626a:	691d      	ldr	r5, [r3, #16]
 800626c:	f445 2500 	orr.w	r5, r5, #524288	; 0x80000
 8006270:	611d      	str	r5, [r3, #16]
 8006272:	691d      	ldr	r5, [r3, #16]
 8006274:	f3c0 0012 	ubfx	r0, r0, #0, #19
 8006278:	4328      	orrs	r0, r5
 800627a:	2a01      	cmp	r2, #1
 800627c:	6118      	str	r0, [r3, #16]
 800627e:	d008      	beq.n	8006292 <USB_EP0StartXfer+0x56>
 8006280:	f8d4 3b00 	ldr.w	r3, [r4, #2816]	; 0xb00
 8006284:	f043 4304 	orr.w	r3, r3, #2214592512	; 0x84000000
 8006288:	f8c4 3b00 	str.w	r3, [r4, #2816]	; 0xb00
 800628c:	2000      	movs	r0, #0
 800628e:	bcf0      	pop	{r4, r5, r6, r7}
 8006290:	4770      	bx	lr
 8006292:	68ca      	ldr	r2, [r1, #12]
 8006294:	2a00      	cmp	r2, #0
 8006296:	d0f3      	beq.n	8006280 <USB_EP0StartXfer+0x44>
 8006298:	615a      	str	r2, [r3, #20]
 800629a:	e7f1      	b.n	8006280 <USB_EP0StartXfer+0x44>
 800629c:	f504 6310 	add.w	r3, r4, #2304	; 0x900
 80062a0:	691d      	ldr	r5, [r3, #16]
 80062a2:	b37e      	cbz	r6, 8006304 <USB_EP0StartXfer+0xc8>
 80062a4:	0ced      	lsrs	r5, r5, #19
 80062a6:	04ed      	lsls	r5, r5, #19
 80062a8:	688f      	ldr	r7, [r1, #8]
 80062aa:	611d      	str	r5, [r3, #16]
 80062ac:	691d      	ldr	r5, [r3, #16]
 80062ae:	f025 55ff 	bic.w	r5, r5, #534773760	; 0x1fe00000
 80062b2:	f425 15c0 	bic.w	r5, r5, #1572864	; 0x180000
 80062b6:	611d      	str	r5, [r3, #16]
 80062b8:	691d      	ldr	r5, [r3, #16]
 80062ba:	42b7      	cmp	r7, r6
 80062bc:	f445 2500 	orr.w	r5, r5, #524288	; 0x80000
 80062c0:	bf38      	it	cc
 80062c2:	614f      	strcc	r7, [r1, #20]
 80062c4:	611d      	str	r5, [r3, #16]
 80062c6:	bf38      	it	cc
 80062c8:	463e      	movcc	r6, r7
 80062ca:	691d      	ldr	r5, [r3, #16]
 80062cc:	f3c6 0612 	ubfx	r6, r6, #0, #19
 80062d0:	432e      	orrs	r6, r5
 80062d2:	2a01      	cmp	r2, #1
 80062d4:	611e      	str	r6, [r3, #16]
 80062d6:	d024      	beq.n	8006322 <USB_EP0StartXfer+0xe6>
 80062d8:	f8d4 3900 	ldr.w	r3, [r4, #2304]	; 0x900
 80062dc:	694a      	ldr	r2, [r1, #20]
 80062de:	f043 4304 	orr.w	r3, r3, #2214592512	; 0x84000000
 80062e2:	f8c4 3900 	str.w	r3, [r4, #2304]	; 0x900
 80062e6:	2a00      	cmp	r2, #0
 80062e8:	d0d0      	beq.n	800628c <USB_EP0StartXfer+0x50>
 80062ea:	780b      	ldrb	r3, [r1, #0]
 80062ec:	f8d0 1834 	ldr.w	r1, [r0, #2100]	; 0x834
 80062f0:	f003 020f 	and.w	r2, r3, #15
 80062f4:	2301      	movs	r3, #1
 80062f6:	4093      	lsls	r3, r2
 80062f8:	430b      	orrs	r3, r1
 80062fa:	f8c0 3834 	str.w	r3, [r0, #2100]	; 0x834
 80062fe:	bcf0      	pop	{r4, r5, r6, r7}
 8006300:	2000      	movs	r0, #0
 8006302:	4770      	bx	lr
 8006304:	f025 55ff 	bic.w	r5, r5, #534773760	; 0x1fe00000
 8006308:	f425 15c0 	bic.w	r5, r5, #1572864	; 0x180000
 800630c:	611d      	str	r5, [r3, #16]
 800630e:	691d      	ldr	r5, [r3, #16]
 8006310:	f445 2500 	orr.w	r5, r5, #524288	; 0x80000
 8006314:	611d      	str	r5, [r3, #16]
 8006316:	691d      	ldr	r5, [r3, #16]
 8006318:	0ced      	lsrs	r5, r5, #19
 800631a:	04ed      	lsls	r5, r5, #19
 800631c:	2a01      	cmp	r2, #1
 800631e:	611d      	str	r5, [r3, #16]
 8006320:	d1da      	bne.n	80062d8 <USB_EP0StartXfer+0x9c>
 8006322:	690a      	ldr	r2, [r1, #16]
 8006324:	b102      	cbz	r2, 8006328 <USB_EP0StartXfer+0xec>
 8006326:	615a      	str	r2, [r3, #20]
 8006328:	f8d4 3900 	ldr.w	r3, [r4, #2304]	; 0x900
 800632c:	f043 4304 	orr.w	r3, r3, #2214592512	; 0x84000000
 8006330:	f8c4 3900 	str.w	r3, [r4, #2304]	; 0x900
 8006334:	2000      	movs	r0, #0
 8006336:	bcf0      	pop	{r4, r5, r6, r7}
 8006338:	4770      	bx	lr
 800633a:	bf00      	nop

0800633c <USB_WritePacket>:
 800633c:	b410      	push	{r4}
 800633e:	f89d 4004 	ldrb.w	r4, [sp, #4]
 8006342:	b96c      	cbnz	r4, 8006360 <USB_WritePacket+0x24>
 8006344:	3303      	adds	r3, #3
 8006346:	089b      	lsrs	r3, r3, #2
 8006348:	d00a      	beq.n	8006360 <USB_WritePacket+0x24>
 800634a:	eb00 3002 	add.w	r0, r0, r2, lsl #12
 800634e:	f500 5080 	add.w	r0, r0, #4096	; 0x1000
 8006352:	eb01 0383 	add.w	r3, r1, r3, lsl #2
 8006356:	f851 2b04 	ldr.w	r2, [r1], #4
 800635a:	6002      	str	r2, [r0, #0]
 800635c:	428b      	cmp	r3, r1
 800635e:	d1fa      	bne.n	8006356 <USB_WritePacket+0x1a>
 8006360:	2000      	movs	r0, #0
 8006362:	f85d 4b04 	ldr.w	r4, [sp], #4
 8006366:	4770      	bx	lr

08006368 <USB_ReadPacket>:
 8006368:	3203      	adds	r2, #3
 800636a:	0892      	lsrs	r2, r2, #2
 800636c:	d00c      	beq.n	8006388 <USB_ReadPacket+0x20>
 800636e:	b410      	push	{r4}
 8006370:	f500 5480 	add.w	r4, r0, #4096	; 0x1000
 8006374:	eb01 0082 	add.w	r0, r1, r2, lsl #2
 8006378:	6823      	ldr	r3, [r4, #0]
 800637a:	f841 3b04 	str.w	r3, [r1], #4
 800637e:	4281      	cmp	r1, r0
 8006380:	d1fa      	bne.n	8006378 <USB_ReadPacket+0x10>
 8006382:	f85d 4b04 	ldr.w	r4, [sp], #4
 8006386:	4770      	bx	lr
 8006388:	4608      	mov	r0, r1
 800638a:	4770      	bx	lr

0800638c <USB_EPSetStall>:
 800638c:	784a      	ldrb	r2, [r1, #1]
 800638e:	780b      	ldrb	r3, [r1, #0]
 8006390:	2a01      	cmp	r2, #1
 8006392:	eb00 1043 	add.w	r0, r0, r3, lsl #5
 8006396:	d012      	beq.n	80063be <USB_EPSetStall+0x32>
 8006398:	f8d0 2b00 	ldr.w	r2, [r0, #2816]	; 0xb00
 800639c:	2a00      	cmp	r2, #0
 800639e:	db06      	blt.n	80063ae <USB_EPSetStall+0x22>
 80063a0:	b12b      	cbz	r3, 80063ae <USB_EPSetStall+0x22>
 80063a2:	f8d0 3b00 	ldr.w	r3, [r0, #2816]	; 0xb00
 80063a6:	f023 4380 	bic.w	r3, r3, #1073741824	; 0x40000000
 80063aa:	f8c0 3b00 	str.w	r3, [r0, #2816]	; 0xb00
 80063ae:	f8d0 3b00 	ldr.w	r3, [r0, #2816]	; 0xb00
 80063b2:	f443 1300 	orr.w	r3, r3, #2097152	; 0x200000
 80063b6:	f8c0 3b00 	str.w	r3, [r0, #2816]	; 0xb00
 80063ba:	2000      	movs	r0, #0
 80063bc:	4770      	bx	lr
 80063be:	f8d0 2900 	ldr.w	r2, [r0, #2304]	; 0x900
 80063c2:	2a00      	cmp	r2, #0
 80063c4:	db06      	blt.n	80063d4 <USB_EPSetStall+0x48>
 80063c6:	b12b      	cbz	r3, 80063d4 <USB_EPSetStall+0x48>
 80063c8:	f8d0 3900 	ldr.w	r3, [r0, #2304]	; 0x900
 80063cc:	f023 4380 	bic.w	r3, r3, #1073741824	; 0x40000000
 80063d0:	f8c0 3900 	str.w	r3, [r0, #2304]	; 0x900
 80063d4:	f8d0 3900 	ldr.w	r3, [r0, #2304]	; 0x900
 80063d8:	f443 1300 	orr.w	r3, r3, #2097152	; 0x200000
 80063dc:	f8c0 3900 	str.w	r3, [r0, #2304]	; 0x900
 80063e0:	2000      	movs	r0, #0
 80063e2:	4770      	bx	lr

080063e4 <USB_EPClearStall>:
 80063e4:	78cb      	ldrb	r3, [r1, #3]
 80063e6:	780a      	ldrb	r2, [r1, #0]
 80063e8:	7849      	ldrb	r1, [r1, #1]
 80063ea:	3b02      	subs	r3, #2
 80063ec:	2901      	cmp	r1, #1
 80063ee:	b2db      	uxtb	r3, r3
 80063f0:	eb00 1042 	add.w	r0, r0, r2, lsl #5
 80063f4:	d011      	beq.n	800641a <USB_EPClearStall+0x36>
 80063f6:	f8d0 2b00 	ldr.w	r2, [r0, #2816]	; 0xb00
 80063fa:	2b01      	cmp	r3, #1
 80063fc:	f422 1200 	bic.w	r2, r2, #2097152	; 0x200000
 8006400:	f8c0 2b00 	str.w	r2, [r0, #2816]	; 0xb00
 8006404:	d901      	bls.n	800640a <USB_EPClearStall+0x26>
 8006406:	2000      	movs	r0, #0
 8006408:	4770      	bx	lr
 800640a:	f8d0 3b00 	ldr.w	r3, [r0, #2816]	; 0xb00
 800640e:	f043 5380 	orr.w	r3, r3, #268435456	; 0x10000000
 8006412:	f8c0 3b00 	str.w	r3, [r0, #2816]	; 0xb00
 8006416:	2000      	movs	r0, #0
 8006418:	4770      	bx	lr
 800641a:	f8d0 2900 	ldr.w	r2, [r0, #2304]	; 0x900
 800641e:	2b01      	cmp	r3, #1
 8006420:	f422 1200 	bic.w	r2, r2, #2097152	; 0x200000
 8006424:	f8c0 2900 	str.w	r2, [r0, #2304]	; 0x900
 8006428:	d8ed      	bhi.n	8006406 <USB_EPClearStall+0x22>
 800642a:	f8d0 3900 	ldr.w	r3, [r0, #2304]	; 0x900
 800642e:	f043 5380 	orr.w	r3, r3, #268435456	; 0x10000000
 8006432:	f8c0 3900 	str.w	r3, [r0, #2304]	; 0x900
 8006436:	2000      	movs	r0, #0
 8006438:	4770      	bx	lr
 800643a:	bf00      	nop

0800643c <USB_SetDevAddress>:
 800643c:	f8d0 3800 	ldr.w	r3, [r0, #2048]	; 0x800
 8006440:	f423 63fe 	bic.w	r3, r3, #2032	; 0x7f0
 8006444:	f8c0 3800 	str.w	r3, [r0, #2048]	; 0x800
 8006448:	f8d0 3800 	ldr.w	r3, [r0, #2048]	; 0x800
 800644c:	0109      	lsls	r1, r1, #4
 800644e:	f401 61fe 	and.w	r1, r1, #2032	; 0x7f0
 8006452:	4319      	orrs	r1, r3
 8006454:	f8c0 1800 	str.w	r1, [r0, #2048]	; 0x800
 8006458:	2000      	movs	r0, #0
 800645a:	4770      	bx	lr

0800645c <USB_DevConnect>:
 800645c:	f500 6200 	add.w	r2, r0, #2048	; 0x800
 8006460:	b508      	push	{r3, lr}
 8006462:	6853      	ldr	r3, [r2, #4]
 8006464:	f023 0302 	bic.w	r3, r3, #2
 8006468:	2003      	movs	r0, #3
 800646a:	6053      	str	r3, [r2, #4]
 800646c:	f7fa fd70 	bl	8000f50 <HAL_Delay>
 8006470:	2000      	movs	r0, #0
 8006472:	bd08      	pop	{r3, pc}

08006474 <USB_DevDisconnect>:
 8006474:	f500 6200 	add.w	r2, r0, #2048	; 0x800
 8006478:	b508      	push	{r3, lr}
 800647a:	6853      	ldr	r3, [r2, #4]
 800647c:	f043 0302 	orr.w	r3, r3, #2
 8006480:	2003      	movs	r0, #3
 8006482:	6053      	str	r3, [r2, #4]
 8006484:	f7fa fd64 	bl	8000f50 <HAL_Delay>
 8006488:	2000      	movs	r0, #0
 800648a:	bd08      	pop	{r3, pc}

0800648c <USB_ReadInterrupts>:
 800648c:	6942      	ldr	r2, [r0, #20]
 800648e:	6980      	ldr	r0, [r0, #24]
 8006490:	4010      	ands	r0, r2
 8006492:	4770      	bx	lr

08006494 <USB_ReadDevAllOutEpInterrupt>:
 8006494:	f8d0 3818 	ldr.w	r3, [r0, #2072]	; 0x818
 8006498:	f500 6000 	add.w	r0, r0, #2048	; 0x800
 800649c:	69c0      	ldr	r0, [r0, #28]
 800649e:	4018      	ands	r0, r3
 80064a0:	0c00      	lsrs	r0, r0, #16
 80064a2:	4770      	bx	lr

080064a4 <USB_ReadDevAllInEpInterrupt>:
 80064a4:	f8d0 3818 	ldr.w	r3, [r0, #2072]	; 0x818
 80064a8:	f500 6000 	add.w	r0, r0, #2048	; 0x800
 80064ac:	69c0      	ldr	r0, [r0, #28]
 80064ae:	4018      	ands	r0, r3
 80064b0:	b280      	uxth	r0, r0
 80064b2:	4770      	bx	lr

080064b4 <USB_ReadDevOutEPInterrupt>:
 80064b4:	eb00 1141 	add.w	r1, r0, r1, lsl #5
 80064b8:	f500 6000 	add.w	r0, r0, #2048	; 0x800
 80064bc:	f8d1 2b08 	ldr.w	r2, [r1, #2824]	; 0xb08
 80064c0:	6940      	ldr	r0, [r0, #20]
 80064c2:	4010      	ands	r0, r2
 80064c4:	4770      	bx	lr
 80064c6:	bf00      	nop

080064c8 <USB_ReadDevInEPInterrupt>:
 80064c8:	b410      	push	{r4}
 80064ca:	f8d0 4810 	ldr.w	r4, [r0, #2064]	; 0x810
 80064ce:	f8d0 3834 	ldr.w	r3, [r0, #2100]	; 0x834
 80064d2:	eb00 1041 	add.w	r0, r0, r1, lsl #5
 80064d6:	f001 010f 	and.w	r1, r1, #15
 80064da:	f500 6010 	add.w	r0, r0, #2304	; 0x900
 80064de:	40cb      	lsrs	r3, r1
 80064e0:	01db      	lsls	r3, r3, #7
 80064e2:	b2db      	uxtb	r3, r3
 80064e4:	6880      	ldr	r0, [r0, #8]
 80064e6:	4323      	orrs	r3, r4
 80064e8:	4018      	ands	r0, r3
 80064ea:	f85d 4b04 	ldr.w	r4, [sp], #4
 80064ee:	4770      	bx	lr

080064f0 <USB_GetMode>:
 80064f0:	6940      	ldr	r0, [r0, #20]
 80064f2:	f000 0001 	and.w	r0, r0, #1
 80064f6:	4770      	bx	lr

080064f8 <USB_ActivateSetup>:
 80064f8:	f8d0 3900 	ldr.w	r3, [r0, #2304]	; 0x900
 80064fc:	f423 63ff 	bic.w	r3, r3, #2040	; 0x7f8
 8006500:	f023 0307 	bic.w	r3, r3, #7
 8006504:	f8c0 3900 	str.w	r3, [r0, #2304]	; 0x900
 8006508:	f8d0 3804 	ldr.w	r3, [r0, #2052]	; 0x804
 800650c:	f443 7380 	orr.w	r3, r3, #256	; 0x100
 8006510:	f8c0 3804 	str.w	r3, [r0, #2052]	; 0x804
 8006514:	2000      	movs	r0, #0
 8006516:	4770      	bx	lr

08006518 <USB_EP0_OutStart>:
 8006518:	b430      	push	{r4, r5}
 800651a:	4c12      	ldr	r4, [pc, #72]	; (8006564 <USB_EP0_OutStart+0x4c>)
 800651c:	6c05      	ldr	r5, [r0, #64]	; 0x40
 800651e:	42a5      	cmp	r5, r4
 8006520:	f500 6330 	add.w	r3, r0, #2816	; 0xb00
 8006524:	d903      	bls.n	800652e <USB_EP0_OutStart+0x16>
 8006526:	f8d0 4b00 	ldr.w	r4, [r0, #2816]	; 0xb00
 800652a:	2c00      	cmp	r4, #0
 800652c:	db16      	blt.n	800655c <USB_EP0_OutStart+0x44>
 800652e:	2400      	movs	r4, #0
 8006530:	611c      	str	r4, [r3, #16]
 8006532:	691c      	ldr	r4, [r3, #16]
 8006534:	f444 2400 	orr.w	r4, r4, #524288	; 0x80000
 8006538:	611c      	str	r4, [r3, #16]
 800653a:	691c      	ldr	r4, [r3, #16]
 800653c:	f044 0418 	orr.w	r4, r4, #24
 8006540:	611c      	str	r4, [r3, #16]
 8006542:	691c      	ldr	r4, [r3, #16]
 8006544:	2901      	cmp	r1, #1
 8006546:	f044 44c0 	orr.w	r4, r4, #1610612736	; 0x60000000
 800654a:	611c      	str	r4, [r3, #16]
 800654c:	d106      	bne.n	800655c <USB_EP0_OutStart+0x44>
 800654e:	615a      	str	r2, [r3, #20]
 8006550:	f8d0 3b00 	ldr.w	r3, [r0, #2816]	; 0xb00
 8006554:	f043 2380 	orr.w	r3, r3, #2147516416	; 0x80008000
 8006558:	f8c0 3b00 	str.w	r3, [r0, #2816]	; 0xb00
 800655c:	2000      	movs	r0, #0
 800655e:	bc30      	pop	{r4, r5}
 8006560:	4770      	bx	lr
 8006562:	bf00      	nop
 8006564:	4f54300a 	.word	0x4f54300a

08006568 <USBD_AUDIO_GetCfgDesc>:
 8006568:	2397      	movs	r3, #151	; 0x97
 800656a:	8003      	strh	r3, [r0, #0]
 800656c:	4800      	ldr	r0, [pc, #0]	; (8006570 <USBD_AUDIO_GetCfgDesc+0x8>)
 800656e:	4770      	bx	lr
 8006570:	20000040 	.word	0x20000040

08006574 <USBD_AUDIO_EP0_RxReady>:
 8006574:	b538      	push	{r3, r4, r5, lr}
 8006576:	f643 450a 	movw	r5, #15370	; 0x3c0a
 800657a:	f8d0 42bc 	ldr.w	r4, [r0, #700]	; 0x2bc
 800657e:	5d63      	ldrb	r3, [r4, r5]
 8006580:	2b01      	cmp	r3, #1
 8006582:	d001      	beq.n	8006588 <USBD_AUDIO_EP0_RxReady+0x14>
 8006584:	2000      	movs	r0, #0
 8006586:	bd38      	pop	{r3, r4, r5, pc}
 8006588:	f643 434c 	movw	r3, #15436	; 0x3c4c
 800658c:	5ce3      	ldrb	r3, [r4, r3]
 800658e:	2b02      	cmp	r3, #2
 8006590:	d1f8      	bne.n	8006584 <USBD_AUDIO_EP0_RxReady+0x10>
 8006592:	f8d0 32c0 	ldr.w	r3, [r0, #704]	; 0x2c0
 8006596:	f643 420b 	movw	r2, #15371	; 0x3c0b
 800659a:	691b      	ldr	r3, [r3, #16]
 800659c:	5ca0      	ldrb	r0, [r4, r2]
 800659e:	4798      	blx	r3
 80065a0:	f643 424b 	movw	r2, #15435	; 0x3c4b
 80065a4:	2300      	movs	r3, #0
 80065a6:	54a3      	strb	r3, [r4, r2]
 80065a8:	5563      	strb	r3, [r4, r5]
 80065aa:	2000      	movs	r0, #0
 80065ac:	bd38      	pop	{r3, r4, r5, pc}
 80065ae:	bf00      	nop

080065b0 <USBD_AUDIO_EP0_TxReady>:
 80065b0:	2000      	movs	r0, #0
 80065b2:	4770      	bx	lr

080065b4 <USBD_AUDIO_IsoINIncomplete>:
 80065b4:	2000      	movs	r0, #0
 80065b6:	4770      	bx	lr

080065b8 <USBD_AUDIO_GetDeviceQualifierDesc>:
 80065b8:	230a      	movs	r3, #10
 80065ba:	8003      	strh	r3, [r0, #0]
 80065bc:	4800      	ldr	r0, [pc, #0]	; (80065c0 <USBD_AUDIO_GetDeviceQualifierDesc+0x8>)
 80065be:	4770      	bx	lr
 80065c0:	200000d8 	.word	0x200000d8

080065c4 <USBD_AUDIO_DataOut>:
 80065c4:	2901      	cmp	r1, #1
 80065c6:	d001      	beq.n	80065cc <USBD_AUDIO_DataOut+0x8>
 80065c8:	2000      	movs	r0, #0
 80065ca:	4770      	bx	lr
 80065cc:	e92d 41f0 	stmdb	sp!, {r4, r5, r6, r7, r8, lr}
 80065d0:	f8d0 62bc 	ldr.w	r6, [r0, #700]	; 0x2bc
 80065d4:	460c      	mov	r4, r1
 80065d6:	4607      	mov	r7, r0
 80065d8:	f001 ff80 	bl	80084dc <USBD_LL_GetRxDataSize>
 80065dc:	f643 4808 	movw	r8, #15368	; 0x3c08
 80065e0:	4605      	mov	r5, r0
 80065e2:	f836 0008 	ldrh.w	r0, [r6, r8]
 80065e6:	f8d7 32c0 	ldr.w	r3, [r7, #704]	; 0x2c0
 80065ea:	3004      	adds	r0, #4
 80065ec:	695b      	ldr	r3, [r3, #20]
 80065ee:	4430      	add	r0, r6
 80065f0:	b2a9      	uxth	r1, r5
 80065f2:	4622      	mov	r2, r4
 80065f4:	4798      	blx	r3
 80065f6:	f836 3008 	ldrh.w	r3, [r6, r8]
 80065fa:	442b      	add	r3, r5
 80065fc:	b29b      	uxth	r3, r3
 80065fe:	f5b3 5f70 	cmp.w	r3, #15360	; 0x3c00
 8006602:	d014      	beq.n	800662e <USBD_AUDIO_DataOut+0x6a>
 8006604:	f826 3008 	strh.w	r3, [r6, r8]
 8006608:	f643 4105 	movw	r1, #15365	; 0x3c05
 800660c:	1d1a      	adds	r2, r3, #4
 800660e:	5c70      	ldrb	r0, [r6, r1]
 8006610:	b920      	cbnz	r0, 800661c <USBD_AUDIO_DataOut+0x58>
 8006612:	f5b3 5ff0 	cmp.w	r3, #7680	; 0x1e00
 8006616:	d101      	bne.n	800661c <USBD_AUDIO_DataOut+0x58>
 8006618:	2301      	movs	r3, #1
 800661a:	5473      	strb	r3, [r6, r1]
 800661c:	4432      	add	r2, r6
 800661e:	4638      	mov	r0, r7
 8006620:	23c0      	movs	r3, #192	; 0xc0
 8006622:	2101      	movs	r1, #1
 8006624:	f001 ff4c 	bl	80084c0 <USBD_LL_PrepareReceive>
 8006628:	2000      	movs	r0, #0
 800662a:	e8bd 81f0 	ldmia.w	sp!, {r4, r5, r6, r7, r8, pc}
 800662e:	4b11      	ldr	r3, [pc, #68]	; (8006674 <USBD_AUDIO_DataOut+0xb0>)
 8006630:	681a      	ldr	r2, [r3, #0]
 8006632:	2100      	movs	r1, #0
 8006634:	f826 1008 	strh.w	r1, [r6, r8]
 8006638:	b9a2      	cbnz	r2, 8006664 <USBD_AUDIO_DataOut+0xa0>
 800663a:	f643 4204 	movw	r2, #15364	; 0x3c04
 800663e:	2103      	movs	r1, #3
 8006640:	54b1      	strb	r1, [r6, r2]
 8006642:	601c      	str	r4, [r3, #0]
 8006644:	f8d7 32c0 	ldr.w	r3, [r7, #704]	; 0x2c0
 8006648:	2201      	movs	r2, #1
 800664a:	689b      	ldr	r3, [r3, #8]
 800664c:	f44f 51f0 	mov.w	r1, #7680	; 0x1e00
 8006650:	1d30      	adds	r0, r6, #4
 8006652:	4798      	blx	r3
 8006654:	f643 4204 	movw	r2, #15364	; 0x3c04
 8006658:	f643 4308 	movw	r3, #15368	; 0x3c08
 800665c:	2100      	movs	r1, #0
 800665e:	54b1      	strb	r1, [r6, r2]
 8006660:	5af3      	ldrh	r3, [r6, r3]
 8006662:	e7d1      	b.n	8006608 <USBD_AUDIO_DataOut+0x44>
 8006664:	f643 4304 	movw	r3, #15364	; 0x3c04
 8006668:	5cf3      	ldrb	r3, [r6, r3]
 800666a:	2b03      	cmp	r3, #3
 800666c:	d0ea      	beq.n	8006644 <USBD_AUDIO_DataOut+0x80>
 800666e:	2204      	movs	r2, #4
 8006670:	e7d4      	b.n	800661c <USBD_AUDIO_DataOut+0x58>
 8006672:	bf00      	nop
 8006674:	200003b8 	.word	0x200003b8

08006678 <USBD_AUDIO_DataIn>:
 8006678:	b508      	push	{r3, lr}
 800667a:	f000 f965 	bl	8006948 <USBD_HID_DataIn>
 800667e:	2000      	movs	r0, #0
 8006680:	bd08      	pop	{r3, pc}
 8006682:	bf00      	nop

08006684 <USBD_AUDIO_DeInit>:
 8006684:	b538      	push	{r3, r4, r5, lr}
 8006686:	4604      	mov	r4, r0
 8006688:	f000 f988 	bl	800699c <USBD_HID_DeInit>
 800668c:	4620      	mov	r0, r4
 800668e:	2101      	movs	r1, #1
 8006690:	f001 febc 	bl	800840c <USBD_LL_CloseEP>
 8006694:	f8d4 32bc 	ldr.w	r3, [r4, #700]	; 0x2bc
 8006698:	2500      	movs	r5, #0
 800669a:	f8c4 5178 	str.w	r5, [r4, #376]	; 0x178
 800669e:	b153      	cbz	r3, 80066b6 <USBD_AUDIO_DeInit+0x32>
 80066a0:	f8d4 32c0 	ldr.w	r3, [r4, #704]	; 0x2c0
 80066a4:	4628      	mov	r0, r5
 80066a6:	685b      	ldr	r3, [r3, #4]
 80066a8:	4798      	blx	r3
 80066aa:	f8d4 02bc 	ldr.w	r0, [r4, #700]	; 0x2bc
 80066ae:	f001 fff5 	bl	800869c <free>
 80066b2:	f8c4 52bc 	str.w	r5, [r4, #700]	; 0x2bc
 80066b6:	2000      	movs	r0, #0
 80066b8:	bd38      	pop	{r3, r4, r5, pc}
 80066ba:	bf00      	nop

080066bc <USBD_AUDIO_Init>:
 80066bc:	e92d 41f0 	stmdb	sp!, {r4, r5, r6, r7, r8, lr}
 80066c0:	4605      	mov	r5, r0
 80066c2:	f000 f949 	bl	8006958 <USBD_HID_Init>
 80066c6:	f643 4050 	movw	r0, #15440	; 0x3c50
 80066ca:	f001 ffdf 	bl	800868c <malloc>
 80066ce:	4604      	mov	r4, r0
 80066d0:	b390      	cbz	r0, 8006738 <USBD_AUDIO_Init+0x7c>
 80066d2:	2601      	movs	r6, #1
 80066d4:	f8c5 02bc 	str.w	r0, [r5, #700]	; 0x2bc
 80066d8:	4632      	mov	r2, r6
 80066da:	4631      	mov	r1, r6
 80066dc:	23c0      	movs	r3, #192	; 0xc0
 80066de:	f8a5 617a 	strh.w	r6, [r5, #378]	; 0x17a
 80066e2:	4628      	mov	r0, r5
 80066e4:	f001 fe82 	bl	80083ec <USBD_LL_OpenEP>
 80066e8:	f643 4305 	movw	r3, #15365	; 0x3c05
 80066ec:	2200      	movs	r2, #0
 80066ee:	54e2      	strb	r2, [r4, r3]
 80066f0:	f643 4708 	movw	r7, #15368	; 0x3c08
 80066f4:	f643 4006 	movw	r0, #15366	; 0x3c06
 80066f8:	f8d5 32c0 	ldr.w	r3, [r5, #704]	; 0x2c0
 80066fc:	6022      	str	r2, [r4, #0]
 80066fe:	f643 4104 	movw	r1, #15364	; 0x3c04
 8006702:	f04f 0803 	mov.w	r8, #3
 8006706:	53e2      	strh	r2, [r4, r7]
 8006708:	681b      	ldr	r3, [r3, #0]
 800670a:	5222      	strh	r2, [r4, r0]
 800670c:	f8a5 6178 	strh.w	r6, [r5, #376]	; 0x178
 8006710:	f804 8001 	strb.w	r8, [r4, r1]
 8006714:	f64b 3080 	movw	r0, #48000	; 0xbb80
 8006718:	2146      	movs	r1, #70	; 0x46
 800671a:	4798      	blx	r3
 800671c:	4607      	mov	r7, r0
 800671e:	b940      	cbnz	r0, 8006732 <USBD_AUDIO_Init+0x76>
 8006720:	1d22      	adds	r2, r4, #4
 8006722:	4631      	mov	r1, r6
 8006724:	4628      	mov	r0, r5
 8006726:	23c0      	movs	r3, #192	; 0xc0
 8006728:	f001 feca 	bl	80084c0 <USBD_LL_PrepareReceive>
 800672c:	4638      	mov	r0, r7
 800672e:	e8bd 81f0 	ldmia.w	sp!, {r4, r5, r6, r7, r8, pc}
 8006732:	4640      	mov	r0, r8
 8006734:	e8bd 81f0 	ldmia.w	sp!, {r4, r5, r6, r7, r8, pc}
 8006738:	f8c5 02bc 	str.w	r0, [r5, #700]	; 0x2bc
 800673c:	2002      	movs	r0, #2
 800673e:	e8bd 81f0 	ldmia.w	sp!, {r4, r5, r6, r7, r8, pc}
 8006742:	bf00      	nop

08006744 <USBD_AUDIO_Setup>:
 8006744:	e92d 41f0 	stmdb	sp!, {r4, r5, r6, r7, r8, lr}
 8006748:	888b      	ldrh	r3, [r1, #4]
 800674a:	2b02      	cmp	r3, #2
 800674c:	b082      	sub	sp, #8
 800674e:	d04f      	beq.n	80067f0 <USBD_AUDIO_Setup+0xac>
 8006750:	780b      	ldrb	r3, [r1, #0]
 8006752:	f8d0 72bc 	ldr.w	r7, [r0, #700]	; 0x2bc
 8006756:	2500      	movs	r5, #0
 8006758:	f013 0360 	ands.w	r3, r3, #96	; 0x60
 800675c:	460c      	mov	r4, r1
 800675e:	4606      	mov	r6, r0
 8006760:	f8ad 5006 	strh.w	r5, [sp, #6]
 8006764:	d020      	beq.n	80067a8 <USBD_AUDIO_Setup+0x64>
 8006766:	2b20      	cmp	r3, #32
 8006768:	d007      	beq.n	800677a <USBD_AUDIO_Setup+0x36>
 800676a:	4630      	mov	r0, r6
 800676c:	4621      	mov	r1, r4
 800676e:	f000 fdbf 	bl	80072f0 <USBD_CtlError>
 8006772:	2003      	movs	r0, #3
 8006774:	b002      	add	sp, #8
 8006776:	e8bd 81f0 	ldmia.w	sp!, {r4, r5, r6, r7, r8, pc}
 800677a:	f891 8001 	ldrb.w	r8, [r1, #1]
 800677e:	f1b8 0f01 	cmp.w	r8, #1
 8006782:	d02f      	beq.n	80067e4 <USBD_AUDIO_Setup+0xa0>
 8006784:	f1b8 0f81 	cmp.w	r8, #129	; 0x81
 8006788:	d1ef      	bne.n	800676a <USBD_AUDIO_Setup+0x26>
 800678a:	f507 5770 	add.w	r7, r7, #15360	; 0x3c00
 800678e:	370b      	adds	r7, #11
 8006790:	2240      	movs	r2, #64	; 0x40
 8006792:	4629      	mov	r1, r5
 8006794:	4638      	mov	r0, r7
 8006796:	f001 ff89 	bl	80086ac <memset>
 800679a:	4639      	mov	r1, r7
 800679c:	88e2      	ldrh	r2, [r4, #6]
 800679e:	4630      	mov	r0, r6
 80067a0:	f000 fdd8 	bl	8007354 <USBD_CtlSendData>
 80067a4:	4628      	mov	r0, r5
 80067a6:	e7e5      	b.n	8006774 <USBD_AUDIO_Setup+0x30>
 80067a8:	784b      	ldrb	r3, [r1, #1]
 80067aa:	2b0b      	cmp	r3, #11
 80067ac:	d8dd      	bhi.n	800676a <USBD_AUDIO_Setup+0x26>
 80067ae:	a201      	add	r2, pc, #4	; (adr r2, 80067b4 <USBD_AUDIO_Setup+0x70>)
 80067b0:	f852 f023 	ldr.w	pc, [r2, r3, lsl #2]
 80067b4:	080067fb 	.word	0x080067fb
 80067b8:	080067e9 	.word	0x080067e9
 80067bc:	0800676b 	.word	0x0800676b
 80067c0:	0800676b 	.word	0x0800676b
 80067c4:	0800676b 	.word	0x0800676b
 80067c8:	0800676b 	.word	0x0800676b
 80067cc:	08006811 	.word	0x08006811
 80067d0:	0800676b 	.word	0x0800676b
 80067d4:	0800676b 	.word	0x0800676b
 80067d8:	0800676b 	.word	0x0800676b
 80067dc:	0800682b 	.word	0x0800682b
 80067e0:	0800683f 	.word	0x0800683f
 80067e4:	88ca      	ldrh	r2, [r1, #6]
 80067e6:	bba2      	cbnz	r2, 8006852 <USBD_AUDIO_Setup+0x10e>
 80067e8:	2000      	movs	r0, #0
 80067ea:	b002      	add	sp, #8
 80067ec:	e8bd 81f0 	ldmia.w	sp!, {r4, r5, r6, r7, r8, pc}
 80067f0:	f000 f8e6 	bl	80069c0 <USBD_HID_Setup>
 80067f4:	b002      	add	sp, #8
 80067f6:	e8bd 81f0 	ldmia.w	sp!, {r4, r5, r6, r7, r8, pc}
 80067fa:	f890 329c 	ldrb.w	r3, [r0, #668]	; 0x29c
 80067fe:	2b03      	cmp	r3, #3
 8006800:	d1b3      	bne.n	800676a <USBD_AUDIO_Setup+0x26>
 8006802:	2202      	movs	r2, #2
 8006804:	f10d 0106 	add.w	r1, sp, #6
 8006808:	f000 fda4 	bl	8007354 <USBD_CtlSendData>
 800680c:	2000      	movs	r0, #0
 800680e:	e7b1      	b.n	8006774 <USBD_AUDIO_Setup+0x30>
 8006810:	884b      	ldrh	r3, [r1, #2]
 8006812:	0a1b      	lsrs	r3, r3, #8
 8006814:	2b21      	cmp	r3, #33	; 0x21
 8006816:	d1e7      	bne.n	80067e8 <USBD_AUDIO_Setup+0xa4>
 8006818:	88ca      	ldrh	r2, [r1, #6]
 800681a:	4918      	ldr	r1, [pc, #96]	; (800687c <USBD_AUDIO_Setup+0x138>)
 800681c:	2a09      	cmp	r2, #9
 800681e:	bf28      	it	cs
 8006820:	2209      	movcs	r2, #9
 8006822:	f000 fd97 	bl	8007354 <USBD_CtlSendData>
 8006826:	2000      	movs	r0, #0
 8006828:	e7a4      	b.n	8006774 <USBD_AUDIO_Setup+0x30>
 800682a:	f890 329c 	ldrb.w	r3, [r0, #668]	; 0x29c
 800682e:	2b03      	cmp	r3, #3
 8006830:	d19b      	bne.n	800676a <USBD_AUDIO_Setup+0x26>
 8006832:	4639      	mov	r1, r7
 8006834:	2201      	movs	r2, #1
 8006836:	f000 fd8d 	bl	8007354 <USBD_CtlSendData>
 800683a:	2000      	movs	r0, #0
 800683c:	e79a      	b.n	8006774 <USBD_AUDIO_Setup+0x30>
 800683e:	f890 329c 	ldrb.w	r3, [r0, #668]	; 0x29c
 8006842:	2b03      	cmp	r3, #3
 8006844:	d191      	bne.n	800676a <USBD_AUDIO_Setup+0x26>
 8006846:	788b      	ldrb	r3, [r1, #2]
 8006848:	2b03      	cmp	r3, #3
 800684a:	d88e      	bhi.n	800676a <USBD_AUDIO_Setup+0x26>
 800684c:	603b      	str	r3, [r7, #0]
 800684e:	2000      	movs	r0, #0
 8006850:	e790      	b.n	8006774 <USBD_AUDIO_Setup+0x30>
 8006852:	f507 5170 	add.w	r1, r7, #15360	; 0x3c00
 8006856:	310b      	adds	r1, #11
 8006858:	f000 fd92 	bl	8007380 <USBD_CtlPrepareRx>
 800685c:	f643 420a 	movw	r2, #15370	; 0x3c0a
 8006860:	f643 434b 	movw	r3, #15435	; 0x3c4b
 8006864:	f807 8002 	strb.w	r8, [r7, r2]
 8006868:	88e2      	ldrh	r2, [r4, #6]
 800686a:	54fa      	strb	r2, [r7, r3]
 800686c:	88a3      	ldrh	r3, [r4, #4]
 800686e:	f643 424c 	movw	r2, #15436	; 0x3c4c
 8006872:	0a1b      	lsrs	r3, r3, #8
 8006874:	4628      	mov	r0, r5
 8006876:	54bb      	strb	r3, [r7, r2]
 8006878:	e77c      	b.n	8006774 <USBD_AUDIO_Setup+0x30>
 800687a:	bf00      	nop
 800687c:	20000052 	.word	0x20000052

08006880 <USBD_AUDIO_IsoOutIncomplete>:
 8006880:	2000      	movs	r0, #0
 8006882:	4770      	bx	lr

08006884 <USBD_AUDIO_SOF>:
 8006884:	2000      	movs	r0, #0
 8006886:	4770      	bx	lr

08006888 <USBD_AUDIO_Sync>:
 8006888:	b570      	push	{r4, r5, r6, lr}
 800688a:	f8d0 42bc 	ldr.w	r4, [r0, #700]	; 0x2bc
 800688e:	b324      	cbz	r4, 80068da <USBD_AUDIO_Sync+0x52>
 8006890:	f643 4205 	movw	r2, #15365	; 0x3c05
 8006894:	f643 4304 	movw	r3, #15364	; 0x3c04
 8006898:	5ca6      	ldrb	r6, [r4, r2]
 800689a:	54e1      	strb	r1, [r4, r3]
 800689c:	f643 4506 	movw	r5, #15366	; 0x3c06
 80068a0:	f643 4208 	movw	r2, #15368	; 0x3c08
 80068a4:	2e01      	cmp	r6, #1
 80068a6:	5b63      	ldrh	r3, [r4, r5]
 80068a8:	5aa2      	ldrh	r2, [r4, r2]
 80068aa:	d02a      	beq.n	8006902 <USBD_AUDIO_Sync+0x7a>
 80068ac:	4293      	cmp	r3, r2
 80068ae:	d915      	bls.n	80068dc <USBD_AUDIO_Sync+0x54>
 80068b0:	1a9b      	subs	r3, r3, r2
 80068b2:	2bbf      	cmp	r3, #191	; 0xbf
 80068b4:	dd2f      	ble.n	8006916 <USBD_AUDIO_Sync+0x8e>
 80068b6:	f5b3 5f6d 	cmp.w	r3, #15168	; 0x3b40
 80068ba:	dd3a      	ble.n	8006932 <USBD_AUDIO_Sync+0xaa>
 80068bc:	f643 4304 	movw	r3, #15364	; 0x3c04
 80068c0:	f643 4008 	movw	r0, #15368	; 0x3c08
 80068c4:	f643 4106 	movw	r1, #15366	; 0x3c06
 80068c8:	f643 4205 	movw	r2, #15365	; 0x3c05
 80068cc:	2503      	movs	r5, #3
 80068ce:	54e5      	strb	r5, [r4, r3]
 80068d0:	2300      	movs	r3, #0
 80068d2:	5223      	strh	r3, [r4, r0]
 80068d4:	6023      	str	r3, [r4, #0]
 80068d6:	5263      	strh	r3, [r4, r1]
 80068d8:	54a3      	strb	r3, [r4, r2]
 80068da:	bd70      	pop	{r4, r5, r6, pc}
 80068dc:	1ad2      	subs	r2, r2, r3
 80068de:	2abf      	cmp	r2, #191	; 0xbf
 80068e0:	dc1c      	bgt.n	800691c <USBD_AUDIO_Sync+0x94>
 80068e2:	f641 53fc 	movw	r3, #7676	; 0x1dfc
 80068e6:	2902      	cmp	r1, #2
 80068e8:	d1f7      	bne.n	80068da <USBD_AUDIO_Sync+0x52>
 80068ea:	460a      	mov	r2, r1
 80068ec:	f8d0 12c0 	ldr.w	r1, [r0, #704]	; 0x2c0
 80068f0:	1d20      	adds	r0, r4, #4
 80068f2:	688d      	ldr	r5, [r1, #8]
 80068f4:	4619      	mov	r1, r3
 80068f6:	47a8      	blx	r5
 80068f8:	f643 4304 	movw	r3, #15364	; 0x3c04
 80068fc:	2200      	movs	r2, #0
 80068fe:	54e2      	strb	r2, [r4, r3]
 8006900:	bd70      	pop	{r4, r5, r6, pc}
 8006902:	f503 53f0 	add.w	r3, r3, #7680	; 0x1e00
 8006906:	b29b      	uxth	r3, r3
 8006908:	f5b3 5f70 	cmp.w	r3, #15360	; 0x3c00
 800690c:	d00e      	beq.n	800692c <USBD_AUDIO_Sync+0xa4>
 800690e:	4293      	cmp	r3, r2
 8006910:	5363      	strh	r3, [r4, r5]
 8006912:	d8cd      	bhi.n	80068b0 <USBD_AUDIO_Sync+0x28>
 8006914:	e7e2      	b.n	80068dc <USBD_AUDIO_Sync+0x54>
 8006916:	f641 6304 	movw	r3, #7684	; 0x1e04
 800691a:	e7e4      	b.n	80068e6 <USBD_AUDIO_Sync+0x5e>
 800691c:	f5b2 5f6d 	cmp.w	r2, #15168	; 0x3b40
 8006920:	f641 6304 	movw	r3, #7684	; 0x1e04
 8006924:	bfd8      	it	le
 8006926:	f44f 53f0 	movle.w	r3, #7680	; 0x1e00
 800692a:	e7dc      	b.n	80068e6 <USBD_AUDIO_Sync+0x5e>
 800692c:	2300      	movs	r3, #0
 800692e:	5363      	strh	r3, [r4, r5]
 8006930:	e7d5      	b.n	80068de <USBD_AUDIO_Sync+0x56>
 8006932:	f44f 53f0 	mov.w	r3, #7680	; 0x1e00
 8006936:	e7d6      	b.n	80068e6 <USBD_AUDIO_Sync+0x5e>

08006938 <USBD_AUDIO_RegisterInterface>:
 8006938:	b119      	cbz	r1, 8006942 <USBD_AUDIO_RegisterInterface+0xa>
 800693a:	f8c0 12c0 	str.w	r1, [r0, #704]	; 0x2c0
 800693e:	2000      	movs	r0, #0
 8006940:	4770      	bx	lr
 8006942:	2003      	movs	r0, #3
 8006944:	4770      	bx	lr
 8006946:	bf00      	nop

08006948 <USBD_HID_DataIn>:
 8006948:	4b02      	ldr	r3, [pc, #8]	; (8006954 <USBD_HID_DataIn+0xc>)
 800694a:	681b      	ldr	r3, [r3, #0]
 800694c:	2000      	movs	r0, #0
 800694e:	7318      	strb	r0, [r3, #12]
 8006950:	4770      	bx	lr
 8006952:	bf00      	nop
 8006954:	200003c8 	.word	0x200003c8

08006958 <USBD_HID_Init>:
 8006958:	b538      	push	{r3, r4, r5, lr}
 800695a:	4604      	mov	r4, r0
 800695c:	2010      	movs	r0, #16
 800695e:	f001 fe95 	bl	800868c <malloc>
 8006962:	4605      	mov	r5, r0
 8006964:	b198      	cbz	r0, 800698e <USBD_HID_Init+0x36>
 8006966:	4a0c      	ldr	r2, [pc, #48]	; (8006998 <USBD_HID_Init+0x40>)
 8006968:	7c23      	ldrb	r3, [r4, #16]
 800696a:	6010      	str	r0, [r2, #0]
 800696c:	b163      	cbz	r3, 8006988 <USBD_HID_Init+0x30>
 800696e:	230a      	movs	r3, #10
 8006970:	8763      	strh	r3, [r4, #58]	; 0x3a
 8006972:	2304      	movs	r3, #4
 8006974:	2203      	movs	r2, #3
 8006976:	2181      	movs	r1, #129	; 0x81
 8006978:	4620      	mov	r0, r4
 800697a:	f001 fd37 	bl	80083ec <USBD_LL_OpenEP>
 800697e:	2301      	movs	r3, #1
 8006980:	2000      	movs	r0, #0
 8006982:	8723      	strh	r3, [r4, #56]	; 0x38
 8006984:	7328      	strb	r0, [r5, #12]
 8006986:	bd38      	pop	{r3, r4, r5, pc}
 8006988:	2307      	movs	r3, #7
 800698a:	8763      	strh	r3, [r4, #58]	; 0x3a
 800698c:	e7f1      	b.n	8006972 <USBD_HID_Init+0x1a>
 800698e:	4b02      	ldr	r3, [pc, #8]	; (8006998 <USBD_HID_Init+0x40>)
 8006990:	2002      	movs	r0, #2
 8006992:	601d      	str	r5, [r3, #0]
 8006994:	bd38      	pop	{r3, r4, r5, pc}
 8006996:	bf00      	nop
 8006998:	200003c8 	.word	0x200003c8

0800699c <USBD_HID_DeInit>:
 800699c:	b570      	push	{r4, r5, r6, lr}
 800699e:	4c07      	ldr	r4, [pc, #28]	; (80069bc <USBD_HID_DeInit+0x20>)
 80069a0:	2181      	movs	r1, #129	; 0x81
 80069a2:	4606      	mov	r6, r0
 80069a4:	f001 fd32 	bl	800840c <USBD_LL_CloseEP>
 80069a8:	6820      	ldr	r0, [r4, #0]
 80069aa:	2500      	movs	r5, #0
 80069ac:	63b5      	str	r5, [r6, #56]	; 0x38
 80069ae:	b110      	cbz	r0, 80069b6 <USBD_HID_DeInit+0x1a>
 80069b0:	f001 fe74 	bl	800869c <free>
 80069b4:	6025      	str	r5, [r4, #0]
 80069b6:	2000      	movs	r0, #0
 80069b8:	bd70      	pop	{r4, r5, r6, pc}
 80069ba:	bf00      	nop
 80069bc:	200003c8 	.word	0x200003c8

080069c0 <USBD_HID_Setup>:
 80069c0:	b510      	push	{r4, lr}
 80069c2:	4a49      	ldr	r2, [pc, #292]	; (8006ae8 <USBD_HID_Setup+0x128>)
 80069c4:	780b      	ldrb	r3, [r1, #0]
 80069c6:	6814      	ldr	r4, [r2, #0]
 80069c8:	b082      	sub	sp, #8
 80069ca:	2200      	movs	r2, #0
 80069cc:	f013 0360 	ands.w	r3, r3, #96	; 0x60
 80069d0:	f8ad 2006 	strh.w	r2, [sp, #6]
 80069d4:	d022      	beq.n	8006a1c <USBD_HID_Setup+0x5c>
 80069d6:	2b20      	cmp	r3, #32
 80069d8:	d004      	beq.n	80069e4 <USBD_HID_Setup+0x24>
 80069da:	f000 fc89 	bl	80072f0 <USBD_CtlError>
 80069de:	2003      	movs	r0, #3
 80069e0:	b002      	add	sp, #8
 80069e2:	bd10      	pop	{r4, pc}
 80069e4:	784b      	ldrb	r3, [r1, #1]
 80069e6:	3b02      	subs	r3, #2
 80069e8:	2b09      	cmp	r3, #9
 80069ea:	d8f6      	bhi.n	80069da <USBD_HID_Setup+0x1a>
 80069ec:	a201      	add	r2, pc, #4	; (adr r2, 80069f4 <USBD_HID_Setup+0x34>)
 80069ee:	f852 f023 	ldr.w	pc, [r2, r3, lsl #2]
 80069f2:	bf00      	nop
 80069f4:	08006a77 	.word	0x08006a77
 80069f8:	08006a6b 	.word	0x08006a6b
 80069fc:	080069db 	.word	0x080069db
 8006a00:	080069db 	.word	0x080069db
 8006a04:	080069db 	.word	0x080069db
 8006a08:	080069db 	.word	0x080069db
 8006a0c:	080069db 	.word	0x080069db
 8006a10:	080069db 	.word	0x080069db
 8006a14:	08006a61 	.word	0x08006a61
 8006a18:	08006a59 	.word	0x08006a59
 8006a1c:	784b      	ldrb	r3, [r1, #1]
 8006a1e:	2b0b      	cmp	r3, #11
 8006a20:	d8db      	bhi.n	80069da <USBD_HID_Setup+0x1a>
 8006a22:	a201      	add	r2, pc, #4	; (adr r2, 8006a28 <USBD_HID_Setup+0x68>)
 8006a24:	f852 f023 	ldr.w	pc, [r2, r3, lsl #2]
 8006a28:	08006a97 	.word	0x08006a97
 8006a2c:	08006a83 	.word	0x08006a83
 8006a30:	080069db 	.word	0x080069db
 8006a34:	080069db 	.word	0x080069db
 8006a38:	080069db 	.word	0x080069db
 8006a3c:	080069db 	.word	0x080069db
 8006a40:	08006abd 	.word	0x08006abd
 8006a44:	080069db 	.word	0x080069db
 8006a48:	080069db 	.word	0x080069db
 8006a4c:	080069db 	.word	0x080069db
 8006a50:	08006aad 	.word	0x08006aad
 8006a54:	08006a87 	.word	0x08006a87
 8006a58:	788b      	ldrb	r3, [r1, #2]
 8006a5a:	6023      	str	r3, [r4, #0]
 8006a5c:	2000      	movs	r0, #0
 8006a5e:	e7bf      	b.n	80069e0 <USBD_HID_Setup+0x20>
 8006a60:	884b      	ldrh	r3, [r1, #2]
 8006a62:	0a1b      	lsrs	r3, r3, #8
 8006a64:	6063      	str	r3, [r4, #4]
 8006a66:	2000      	movs	r0, #0
 8006a68:	e7ba      	b.n	80069e0 <USBD_HID_Setup+0x20>
 8006a6a:	4621      	mov	r1, r4
 8006a6c:	2201      	movs	r2, #1
 8006a6e:	f000 fc71 	bl	8007354 <USBD_CtlSendData>
 8006a72:	2000      	movs	r0, #0
 8006a74:	e7b4      	b.n	80069e0 <USBD_HID_Setup+0x20>
 8006a76:	1d21      	adds	r1, r4, #4
 8006a78:	2201      	movs	r2, #1
 8006a7a:	f000 fc6b 	bl	8007354 <USBD_CtlSendData>
 8006a7e:	2000      	movs	r0, #0
 8006a80:	e7ae      	b.n	80069e0 <USBD_HID_Setup+0x20>
 8006a82:	2000      	movs	r0, #0
 8006a84:	e7ac      	b.n	80069e0 <USBD_HID_Setup+0x20>
 8006a86:	f890 329c 	ldrb.w	r3, [r0, #668]	; 0x29c
 8006a8a:	2b03      	cmp	r3, #3
 8006a8c:	d1a5      	bne.n	80069da <USBD_HID_Setup+0x1a>
 8006a8e:	788b      	ldrb	r3, [r1, #2]
 8006a90:	60a3      	str	r3, [r4, #8]
 8006a92:	2000      	movs	r0, #0
 8006a94:	e7a4      	b.n	80069e0 <USBD_HID_Setup+0x20>
 8006a96:	f890 329c 	ldrb.w	r3, [r0, #668]	; 0x29c
 8006a9a:	2b03      	cmp	r3, #3
 8006a9c:	d19d      	bne.n	80069da <USBD_HID_Setup+0x1a>
 8006a9e:	2202      	movs	r2, #2
 8006aa0:	f10d 0106 	add.w	r1, sp, #6
 8006aa4:	f000 fc56 	bl	8007354 <USBD_CtlSendData>
 8006aa8:	2000      	movs	r0, #0
 8006aaa:	e799      	b.n	80069e0 <USBD_HID_Setup+0x20>
 8006aac:	f890 329c 	ldrb.w	r3, [r0, #668]	; 0x29c
 8006ab0:	2b03      	cmp	r3, #3
 8006ab2:	d192      	bne.n	80069da <USBD_HID_Setup+0x1a>
 8006ab4:	f104 0108 	add.w	r1, r4, #8
 8006ab8:	2201      	movs	r2, #1
 8006aba:	e00a      	b.n	8006ad2 <USBD_HID_Setup+0x112>
 8006abc:	884b      	ldrh	r3, [r1, #2]
 8006abe:	0a1b      	lsrs	r3, r3, #8
 8006ac0:	2b22      	cmp	r3, #34	; 0x22
 8006ac2:	d00a      	beq.n	8006ada <USBD_HID_Setup+0x11a>
 8006ac4:	2b21      	cmp	r3, #33	; 0x21
 8006ac6:	d188      	bne.n	80069da <USBD_HID_Setup+0x1a>
 8006ac8:	88ca      	ldrh	r2, [r1, #6]
 8006aca:	4908      	ldr	r1, [pc, #32]	; (8006aec <USBD_HID_Setup+0x12c>)
 8006acc:	2a09      	cmp	r2, #9
 8006ace:	bf28      	it	cs
 8006ad0:	2209      	movcs	r2, #9
 8006ad2:	f000 fc3f 	bl	8007354 <USBD_CtlSendData>
 8006ad6:	2000      	movs	r0, #0
 8006ad8:	e782      	b.n	80069e0 <USBD_HID_Setup+0x20>
 8006ada:	88ca      	ldrh	r2, [r1, #6]
 8006adc:	4904      	ldr	r1, [pc, #16]	; (8006af0 <USBD_HID_Setup+0x130>)
 8006ade:	2a2c      	cmp	r2, #44	; 0x2c
 8006ae0:	bf28      	it	cs
 8006ae2:	222c      	movcs	r2, #44	; 0x2c
 8006ae4:	e7f5      	b.n	8006ad2 <USBD_HID_Setup+0x112>
 8006ae6:	bf00      	nop
 8006ae8:	200003c8 	.word	0x200003c8
 8006aec:	20000110 	.word	0x20000110
 8006af0:	200000e4 	.word	0x200000e4

08006af4 <USBD_HID_SendReport>:
 8006af4:	b510      	push	{r4, lr}
 8006af6:	f890 429c 	ldrb.w	r4, [r0, #668]	; 0x29c
 8006afa:	2c03      	cmp	r4, #3
 8006afc:	d001      	beq.n	8006b02 <USBD_HID_SendReport+0xe>
 8006afe:	2000      	movs	r0, #0
 8006b00:	bd10      	pop	{r4, pc}
 8006b02:	4b07      	ldr	r3, [pc, #28]	; (8006b20 <USBD_HID_SendReport+0x2c>)
 8006b04:	681c      	ldr	r4, [r3, #0]
 8006b06:	7b23      	ldrb	r3, [r4, #12]
 8006b08:	2b00      	cmp	r3, #0
 8006b0a:	d1f8      	bne.n	8006afe <USBD_HID_SendReport+0xa>
 8006b0c:	4613      	mov	r3, r2
 8006b0e:	460a      	mov	r2, r1
 8006b10:	2101      	movs	r1, #1
 8006b12:	7321      	strb	r1, [r4, #12]
 8006b14:	2181      	movs	r1, #129	; 0x81
 8006b16:	f001 fcc5 	bl	80084a4 <USBD_LL_Transmit>
 8006b1a:	2000      	movs	r0, #0
 8006b1c:	bd10      	pop	{r4, pc}
 8006b1e:	bf00      	nop
 8006b20:	200003c8 	.word	0x200003c8

08006b24 <USBD_Init>:
 8006b24:	b1a0      	cbz	r0, 8006b50 <USBD_Init+0x2c>
 8006b26:	f8d0 32b8 	ldr.w	r3, [r0, #696]	; 0x2b8
 8006b2a:	b113      	cbz	r3, 8006b32 <USBD_Init+0xe>
 8006b2c:	2300      	movs	r3, #0
 8006b2e:	f8c0 32b8 	str.w	r3, [r0, #696]	; 0x2b8
 8006b32:	f8d0 32cc 	ldr.w	r3, [r0, #716]	; 0x2cc
 8006b36:	b113      	cbz	r3, 8006b3e <USBD_Init+0x1a>
 8006b38:	2300      	movs	r3, #0
 8006b3a:	f8c0 32cc 	str.w	r3, [r0, #716]	; 0x2cc
 8006b3e:	b109      	cbz	r1, 8006b44 <USBD_Init+0x20>
 8006b40:	f8c0 12b4 	str.w	r1, [r0, #692]	; 0x2b4
 8006b44:	2301      	movs	r3, #1
 8006b46:	7002      	strb	r2, [r0, #0]
 8006b48:	f880 329c 	strb.w	r3, [r0, #668]	; 0x29c
 8006b4c:	f001 bc0e 	b.w	800836c <USBD_LL_Init>
 8006b50:	2003      	movs	r0, #3
 8006b52:	4770      	bx	lr

08006b54 <USBD_RegisterClass>:
 8006b54:	b530      	push	{r4, r5, lr}
 8006b56:	b083      	sub	sp, #12
 8006b58:	2400      	movs	r4, #0
 8006b5a:	f8ad 4006 	strh.w	r4, [sp, #6]
 8006b5e:	b159      	cbz	r1, 8006b78 <USBD_RegisterClass+0x24>
 8006b60:	4605      	mov	r5, r0
 8006b62:	f8c0 12b8 	str.w	r1, [r0, #696]	; 0x2b8
 8006b66:	6a8b      	ldr	r3, [r1, #40]	; 0x28
 8006b68:	f10d 0006 	add.w	r0, sp, #6
 8006b6c:	4798      	blx	r3
 8006b6e:	f8c5 02cc 	str.w	r0, [r5, #716]	; 0x2cc
 8006b72:	4620      	mov	r0, r4
 8006b74:	b003      	add	sp, #12
 8006b76:	bd30      	pop	{r4, r5, pc}
 8006b78:	2403      	movs	r4, #3
 8006b7a:	e7fa      	b.n	8006b72 <USBD_RegisterClass+0x1e>

08006b7c <USBD_Start>:
 8006b7c:	f001 bc28 	b.w	80083d0 <USBD_LL_Start>

08006b80 <USBD_SetClassConfig>:
 8006b80:	f8d0 32b8 	ldr.w	r3, [r0, #696]	; 0x2b8
 8006b84:	b10b      	cbz	r3, 8006b8a <USBD_SetClassConfig+0xa>
 8006b86:	681b      	ldr	r3, [r3, #0]
 8006b88:	4718      	bx	r3
 8006b8a:	2003      	movs	r0, #3
 8006b8c:	4770      	bx	lr
 8006b8e:	bf00      	nop

08006b90 <USBD_ClrClassConfig>:
 8006b90:	b508      	push	{r3, lr}
 8006b92:	f8d0 32b8 	ldr.w	r3, [r0, #696]	; 0x2b8
 8006b96:	b10b      	cbz	r3, 8006b9c <USBD_ClrClassConfig+0xc>
 8006b98:	685b      	ldr	r3, [r3, #4]
 8006b9a:	4798      	blx	r3
 8006b9c:	2000      	movs	r0, #0
 8006b9e:	bd08      	pop	{r3, pc}

08006ba0 <USBD_LL_SetupStage>:
 8006ba0:	b538      	push	{r3, r4, r5, lr}
 8006ba2:	4604      	mov	r4, r0
 8006ba4:	f200 25aa 	addw	r5, r0, #682	; 0x2aa
 8006ba8:	4628      	mov	r0, r5
 8006baa:	f000 fb8d 	bl	80072c8 <USBD_ParseSetupRequest>
 8006bae:	f894 12aa 	ldrb.w	r1, [r4, #682]	; 0x2aa
 8006bb2:	f8b4 32b0 	ldrh.w	r3, [r4, #688]	; 0x2b0
 8006bb6:	f8c4 3298 	str.w	r3, [r4, #664]	; 0x298
 8006bba:	2201      	movs	r2, #1
 8006bbc:	f001 031f 	and.w	r3, r1, #31
 8006bc0:	4293      	cmp	r3, r2
 8006bc2:	f8c4 2294 	str.w	r2, [r4, #660]	; 0x294
 8006bc6:	d015      	beq.n	8006bf4 <USBD_LL_SetupStage+0x54>
 8006bc8:	d30e      	bcc.n	8006be8 <USBD_LL_SetupStage+0x48>
 8006bca:	2b02      	cmp	r3, #2
 8006bcc:	d105      	bne.n	8006bda <USBD_LL_SetupStage+0x3a>
 8006bce:	4629      	mov	r1, r5
 8006bd0:	4620      	mov	r0, r4
 8006bd2:	e8bd 4038 	ldmia.w	sp!, {r3, r4, r5, lr}
 8006bd6:	f000 badd 	b.w	8007194 <USBD_StdEPReq>
 8006bda:	4620      	mov	r0, r4
 8006bdc:	f001 0180 	and.w	r1, r1, #128	; 0x80
 8006be0:	e8bd 4038 	ldmia.w	sp!, {r3, r4, r5, lr}
 8006be4:	f001 bc20 	b.w	8008428 <USBD_LL_StallEP>
 8006be8:	4629      	mov	r1, r5
 8006bea:	4620      	mov	r0, r4
 8006bec:	e8bd 4038 	ldmia.w	sp!, {r3, r4, r5, lr}
 8006bf0:	f000 b900 	b.w	8006df4 <USBD_StdDevReq>
 8006bf4:	4629      	mov	r1, r5
 8006bf6:	4620      	mov	r0, r4
 8006bf8:	e8bd 4038 	ldmia.w	sp!, {r3, r4, r5, lr}
 8006bfc:	f000 ba9c 	b.w	8007138 <USBD_StdItfReq>

08006c00 <USBD_LL_DataOutStage>:
 8006c00:	b570      	push	{r4, r5, r6, lr}
 8006c02:	4604      	mov	r4, r0
 8006c04:	b931      	cbnz	r1, 8006c14 <USBD_LL_DataOutStage+0x14>
 8006c06:	460d      	mov	r5, r1
 8006c08:	f8d0 1294 	ldr.w	r1, [r0, #660]	; 0x294
 8006c0c:	2903      	cmp	r1, #3
 8006c0e:	d00c      	beq.n	8006c2a <USBD_LL_DataOutStage+0x2a>
 8006c10:	2000      	movs	r0, #0
 8006c12:	bd70      	pop	{r4, r5, r6, pc}
 8006c14:	f8d0 22b8 	ldr.w	r2, [r0, #696]	; 0x2b8
 8006c18:	6992      	ldr	r2, [r2, #24]
 8006c1a:	b1da      	cbz	r2, 8006c54 <USBD_LL_DataOutStage+0x54>
 8006c1c:	f890 329c 	ldrb.w	r3, [r0, #668]	; 0x29c
 8006c20:	2b03      	cmp	r3, #3
 8006c22:	d117      	bne.n	8006c54 <USBD_LL_DataOutStage+0x54>
 8006c24:	e8bd 4070 	ldmia.w	sp!, {r4, r5, r6, lr}
 8006c28:	4710      	bx	r2
 8006c2a:	4611      	mov	r1, r2
 8006c2c:	f8d0 315c 	ldr.w	r3, [r0, #348]	; 0x15c
 8006c30:	f8d0 2160 	ldr.w	r2, [r0, #352]	; 0x160
 8006c34:	4293      	cmp	r3, r2
 8006c36:	d80f      	bhi.n	8006c58 <USBD_LL_DataOutStage+0x58>
 8006c38:	f8d0 32b8 	ldr.w	r3, [r0, #696]	; 0x2b8
 8006c3c:	691b      	ldr	r3, [r3, #16]
 8006c3e:	b123      	cbz	r3, 8006c4a <USBD_LL_DataOutStage+0x4a>
 8006c40:	f890 229c 	ldrb.w	r2, [r0, #668]	; 0x29c
 8006c44:	2a03      	cmp	r2, #3
 8006c46:	d100      	bne.n	8006c4a <USBD_LL_DataOutStage+0x4a>
 8006c48:	4798      	blx	r3
 8006c4a:	4620      	mov	r0, r4
 8006c4c:	f000 fbb0 	bl	80073b0 <USBD_CtlSendStatus>
 8006c50:	2000      	movs	r0, #0
 8006c52:	e7de      	b.n	8006c12 <USBD_LL_DataOutStage+0x12>
 8006c54:	2003      	movs	r0, #3
 8006c56:	bd70      	pop	{r4, r5, r6, pc}
 8006c58:	1a9b      	subs	r3, r3, r2
 8006c5a:	429a      	cmp	r2, r3
 8006c5c:	f8c0 315c 	str.w	r3, [r0, #348]	; 0x15c
 8006c60:	bf28      	it	cs
 8006c62:	461a      	movcs	r2, r3
 8006c64:	f000 fb9c 	bl	80073a0 <USBD_CtlContinueRx>
 8006c68:	4628      	mov	r0, r5
 8006c6a:	bd70      	pop	{r4, r5, r6, pc}

08006c6c <USBD_LL_DataInStage>:
 8006c6c:	b570      	push	{r4, r5, r6, lr}
 8006c6e:	4604      	mov	r4, r0
 8006c70:	b082      	sub	sp, #8
 8006c72:	b961      	cbnz	r1, 8006c8e <USBD_LL_DataInStage+0x22>
 8006c74:	4615      	mov	r5, r2
 8006c76:	f8d0 2294 	ldr.w	r2, [r0, #660]	; 0x294
 8006c7a:	2a02      	cmp	r2, #2
 8006c7c:	d017      	beq.n	8006cae <USBD_LL_DataInStage+0x42>
 8006c7e:	f894 32a0 	ldrb.w	r3, [r4, #672]	; 0x2a0
 8006c82:	2b01      	cmp	r3, #1
 8006c84:	f04f 0000 	mov.w	r0, #0
 8006c88:	d00d      	beq.n	8006ca6 <USBD_LL_DataInStage+0x3a>
 8006c8a:	b002      	add	sp, #8
 8006c8c:	bd70      	pop	{r4, r5, r6, pc}
 8006c8e:	f8d0 32b8 	ldr.w	r3, [r0, #696]	; 0x2b8
 8006c92:	695b      	ldr	r3, [r3, #20]
 8006c94:	b343      	cbz	r3, 8006ce8 <USBD_LL_DataInStage+0x7c>
 8006c96:	f890 229c 	ldrb.w	r2, [r0, #668]	; 0x29c
 8006c9a:	2a03      	cmp	r2, #3
 8006c9c:	d124      	bne.n	8006ce8 <USBD_LL_DataInStage+0x7c>
 8006c9e:	b002      	add	sp, #8
 8006ca0:	e8bd 4070 	ldmia.w	sp!, {r4, r5, r6, lr}
 8006ca4:	4718      	bx	r3
 8006ca6:	f884 02a0 	strb.w	r0, [r4, #672]	; 0x2a0
 8006caa:	b002      	add	sp, #8
 8006cac:	bd70      	pop	{r4, r5, r6, pc}
 8006cae:	e9d0 2607 	ldrd	r2, r6, [r0, #28]
 8006cb2:	42b2      	cmp	r2, r6
 8006cb4:	d81b      	bhi.n	8006cee <USBD_LL_DataInStage+0x82>
 8006cb6:	d027      	beq.n	8006d08 <USBD_LL_DataInStage+0x9c>
 8006cb8:	f8d4 32b8 	ldr.w	r3, [r4, #696]	; 0x2b8
 8006cbc:	68db      	ldr	r3, [r3, #12]
 8006cbe:	b12b      	cbz	r3, 8006ccc <USBD_LL_DataInStage+0x60>
 8006cc0:	f894 229c 	ldrb.w	r2, [r4, #668]	; 0x29c
 8006cc4:	2a03      	cmp	r2, #3
 8006cc6:	d101      	bne.n	8006ccc <USBD_LL_DataInStage+0x60>
 8006cc8:	4620      	mov	r0, r4
 8006cca:	4798      	blx	r3
 8006ccc:	2180      	movs	r1, #128	; 0x80
 8006cce:	4620      	mov	r0, r4
 8006cd0:	f001 fbaa 	bl	8008428 <USBD_LL_StallEP>
 8006cd4:	4620      	mov	r0, r4
 8006cd6:	f000 fb77 	bl	80073c8 <USBD_CtlReceiveStatus>
 8006cda:	f894 32a0 	ldrb.w	r3, [r4, #672]	; 0x2a0
 8006cde:	2b01      	cmp	r3, #1
 8006ce0:	f04f 0000 	mov.w	r0, #0
 8006ce4:	d1d1      	bne.n	8006c8a <USBD_LL_DataInStage+0x1e>
 8006ce6:	e7de      	b.n	8006ca6 <USBD_LL_DataInStage+0x3a>
 8006ce8:	2003      	movs	r0, #3
 8006cea:	b002      	add	sp, #8
 8006cec:	bd70      	pop	{r4, r5, r6, pc}
 8006cee:	1b92      	subs	r2, r2, r6
 8006cf0:	9101      	str	r1, [sp, #4]
 8006cf2:	61c2      	str	r2, [r0, #28]
 8006cf4:	4629      	mov	r1, r5
 8006cf6:	f000 fb3b 	bl	8007370 <USBD_CtlContinueSendData>
 8006cfa:	9b01      	ldr	r3, [sp, #4]
 8006cfc:	4620      	mov	r0, r4
 8006cfe:	461a      	mov	r2, r3
 8006d00:	4619      	mov	r1, r3
 8006d02:	f001 fbdd 	bl	80084c0 <USBD_LL_PrepareReceive>
 8006d06:	e7ba      	b.n	8006c7e <USBD_LL_DataInStage+0x12>
 8006d08:	6985      	ldr	r5, [r0, #24]
 8006d0a:	42aa      	cmp	r2, r5
 8006d0c:	d8d4      	bhi.n	8006cb8 <USBD_LL_DataInStage+0x4c>
 8006d0e:	f8d0 2298 	ldr.w	r2, [r0, #664]	; 0x298
 8006d12:	4295      	cmp	r5, r2
 8006d14:	d2d0      	bcs.n	8006cb8 <USBD_LL_DataInStage+0x4c>
 8006d16:	460a      	mov	r2, r1
 8006d18:	9101      	str	r1, [sp, #4]
 8006d1a:	f000 fb29 	bl	8007370 <USBD_CtlContinueSendData>
 8006d1e:	9b01      	ldr	r3, [sp, #4]
 8006d20:	f8c4 3298 	str.w	r3, [r4, #664]	; 0x298
 8006d24:	461a      	mov	r2, r3
 8006d26:	4619      	mov	r1, r3
 8006d28:	4620      	mov	r0, r4
 8006d2a:	f001 fbc9 	bl	80084c0 <USBD_LL_PrepareReceive>
 8006d2e:	e7a6      	b.n	8006c7e <USBD_LL_DataInStage+0x12>

08006d30 <USBD_LL_Reset>:
 8006d30:	f8d0 32bc 	ldr.w	r3, [r0, #700]	; 0x2bc
 8006d34:	2100      	movs	r1, #0
 8006d36:	2201      	movs	r2, #1
 8006d38:	b570      	push	{r4, r5, r6, lr}
 8006d3a:	4604      	mov	r4, r0
 8006d3c:	f880 229c 	strb.w	r2, [r0, #668]	; 0x29c
 8006d40:	f8c0 1294 	str.w	r1, [r0, #660]	; 0x294
 8006d44:	6041      	str	r1, [r0, #4]
 8006d46:	f8c0 12a4 	str.w	r1, [r0, #676]	; 0x2a4
 8006d4a:	b11b      	cbz	r3, 8006d54 <USBD_LL_Reset+0x24>
 8006d4c:	f8d0 32b8 	ldr.w	r3, [r0, #696]	; 0x2b8
 8006d50:	685b      	ldr	r3, [r3, #4]
 8006d52:	4798      	blx	r3
 8006d54:	2200      	movs	r2, #0
 8006d56:	2340      	movs	r3, #64	; 0x40
 8006d58:	461d      	mov	r5, r3
 8006d5a:	4611      	mov	r1, r2
 8006d5c:	2601      	movs	r6, #1
 8006d5e:	4620      	mov	r0, r4
 8006d60:	f001 fb44 	bl	80083ec <USBD_LL_OpenEP>
 8006d64:	f8a4 6164 	strh.w	r6, [r4, #356]	; 0x164
 8006d68:	f8c4 5160 	str.w	r5, [r4, #352]	; 0x160
 8006d6c:	462b      	mov	r3, r5
 8006d6e:	2200      	movs	r2, #0
 8006d70:	2180      	movs	r1, #128	; 0x80
 8006d72:	4620      	mov	r0, r4
 8006d74:	f001 fb3a 	bl	80083ec <USBD_LL_OpenEP>
 8006d78:	84a6      	strh	r6, [r4, #36]	; 0x24
 8006d7a:	6225      	str	r5, [r4, #32]
 8006d7c:	2000      	movs	r0, #0
 8006d7e:	bd70      	pop	{r4, r5, r6, pc}

08006d80 <USBD_LL_SetSpeed>:
 8006d80:	7401      	strb	r1, [r0, #16]
 8006d82:	2000      	movs	r0, #0
 8006d84:	4770      	bx	lr
 8006d86:	bf00      	nop

08006d88 <USBD_LL_Suspend>:
 8006d88:	f890 229c 	ldrb.w	r2, [r0, #668]	; 0x29c
 8006d8c:	f880 229d 	strb.w	r2, [r0, #669]	; 0x29d
 8006d90:	2304      	movs	r3, #4
 8006d92:	f880 329c 	strb.w	r3, [r0, #668]	; 0x29c
 8006d96:	2000      	movs	r0, #0
 8006d98:	4770      	bx	lr
 8006d9a:	bf00      	nop

08006d9c <USBD_LL_Resume>:
 8006d9c:	f890 329c 	ldrb.w	r3, [r0, #668]	; 0x29c
 8006da0:	2b04      	cmp	r3, #4
 8006da2:	bf04      	itt	eq
 8006da4:	f890 329d 	ldrbeq.w	r3, [r0, #669]	; 0x29d
 8006da8:	f880 329c 	strbeq.w	r3, [r0, #668]	; 0x29c
 8006dac:	2000      	movs	r0, #0
 8006dae:	4770      	bx	lr

08006db0 <USBD_LL_SOF>:
 8006db0:	f890 229c 	ldrb.w	r2, [r0, #668]	; 0x29c
 8006db4:	2a03      	cmp	r2, #3
 8006db6:	d001      	beq.n	8006dbc <USBD_LL_SOF+0xc>
 8006db8:	2000      	movs	r0, #0
 8006dba:	4770      	bx	lr
 8006dbc:	b508      	push	{r3, lr}
 8006dbe:	f8d0 32b8 	ldr.w	r3, [r0, #696]	; 0x2b8
 8006dc2:	69db      	ldr	r3, [r3, #28]
 8006dc4:	b103      	cbz	r3, 8006dc8 <USBD_LL_SOF+0x18>
 8006dc6:	4798      	blx	r3
 8006dc8:	2000      	movs	r0, #0
 8006dca:	bd08      	pop	{r3, pc}

08006dcc <USBD_LL_IsoINIncomplete>:
 8006dcc:	2000      	movs	r0, #0
 8006dce:	4770      	bx	lr

08006dd0 <USBD_LL_IsoOUTIncomplete>:
 8006dd0:	2000      	movs	r0, #0
 8006dd2:	4770      	bx	lr

08006dd4 <USBD_LL_DevConnected>:
 8006dd4:	2000      	movs	r0, #0
 8006dd6:	4770      	bx	lr

08006dd8 <USBD_LL_DevDisconnected>:
 8006dd8:	f8d0 22b8 	ldr.w	r2, [r0, #696]	; 0x2b8
 8006ddc:	2101      	movs	r1, #1
 8006dde:	f880 129c 	strb.w	r1, [r0, #668]	; 0x29c
 8006de2:	b12a      	cbz	r2, 8006df0 <USBD_LL_DevDisconnected+0x18>
 8006de4:	b508      	push	{r3, lr}
 8006de6:	6852      	ldr	r2, [r2, #4]
 8006de8:	7901      	ldrb	r1, [r0, #4]
 8006dea:	4790      	blx	r2
 8006dec:	2000      	movs	r0, #0
 8006dee:	bd08      	pop	{r3, pc}
 8006df0:	2000      	movs	r0, #0
 8006df2:	4770      	bx	lr

08006df4 <USBD_StdDevReq>:
 8006df4:	b570      	push	{r4, r5, r6, lr}
 8006df6:	780b      	ldrb	r3, [r1, #0]
 8006df8:	f003 0360 	and.w	r3, r3, #96	; 0x60
 8006dfc:	2b20      	cmp	r3, #32
 8006dfe:	b082      	sub	sp, #8
 8006e00:	460d      	mov	r5, r1
 8006e02:	4604      	mov	r4, r0
 8006e04:	d028      	beq.n	8006e58 <USBD_StdDevReq+0x64>
 8006e06:	2b40      	cmp	r3, #64	; 0x40
 8006e08:	d026      	beq.n	8006e58 <USBD_StdDevReq+0x64>
 8006e0a:	b15b      	cbz	r3, 8006e24 <USBD_StdDevReq+0x30>
 8006e0c:	2180      	movs	r1, #128	; 0x80
 8006e0e:	4620      	mov	r0, r4
 8006e10:	f001 fb0a 	bl	8008428 <USBD_LL_StallEP>
 8006e14:	4620      	mov	r0, r4
 8006e16:	2100      	movs	r1, #0
 8006e18:	f001 fb06 	bl	8008428 <USBD_LL_StallEP>
 8006e1c:	2500      	movs	r5, #0
 8006e1e:	4628      	mov	r0, r5
 8006e20:	b002      	add	sp, #8
 8006e22:	bd70      	pop	{r4, r5, r6, pc}
 8006e24:	784b      	ldrb	r3, [r1, #1]
 8006e26:	2b09      	cmp	r3, #9
 8006e28:	d8f0      	bhi.n	8006e0c <USBD_StdDevReq+0x18>
 8006e2a:	a201      	add	r2, pc, #4	; (adr r2, 8006e30 <USBD_StdDevReq+0x3c>)
 8006e2c:	f852 f023 	ldr.w	pc, [r2, r3, lsl #2]
 8006e30:	08006ecf 	.word	0x08006ecf
 8006e34:	08006eff 	.word	0x08006eff
 8006e38:	08006e0d 	.word	0x08006e0d
 8006e3c:	08006f1d 	.word	0x08006f1d
 8006e40:	08006e0d 	.word	0x08006e0d
 8006e44:	08006f29 	.word	0x08006f29
 8006e48:	08006f6b 	.word	0x08006f6b
 8006e4c:	08006e0d 	.word	0x08006e0d
 8006e50:	08006f87 	.word	0x08006f87
 8006e54:	08006e6d 	.word	0x08006e6d
 8006e58:	f8d4 32b8 	ldr.w	r3, [r4, #696]	; 0x2b8
 8006e5c:	4629      	mov	r1, r5
 8006e5e:	689b      	ldr	r3, [r3, #8]
 8006e60:	4620      	mov	r0, r4
 8006e62:	4798      	blx	r3
 8006e64:	4605      	mov	r5, r0
 8006e66:	4628      	mov	r0, r5
 8006e68:	b002      	add	sp, #8
 8006e6a:	bd70      	pop	{r4, r5, r6, pc}
 8006e6c:	788d      	ldrb	r5, [r1, #2]
 8006e6e:	4eb1      	ldr	r6, [pc, #708]	; (8007134 <USBD_StdDevReq+0x340>)
 8006e70:	2d01      	cmp	r5, #1
 8006e72:	7035      	strb	r5, [r6, #0]
 8006e74:	f200 8112 	bhi.w	800709c <USBD_StdDevReq+0x2a8>
 8006e78:	f890 329c 	ldrb.w	r3, [r0, #668]	; 0x29c
 8006e7c:	2b02      	cmp	r3, #2
 8006e7e:	f000 8116 	beq.w	80070ae <USBD_StdDevReq+0x2ba>
 8006e82:	2b03      	cmp	r3, #3
 8006e84:	f040 8124 	bne.w	80070d0 <USBD_StdDevReq+0x2dc>
 8006e88:	2d00      	cmp	r5, #0
 8006e8a:	f000 813c 	beq.w	8007106 <USBD_StdDevReq+0x312>
 8006e8e:	6841      	ldr	r1, [r0, #4]
 8006e90:	2901      	cmp	r1, #1
 8006e92:	f000 80ff 	beq.w	8007094 <USBD_StdDevReq+0x2a0>
 8006e96:	b2c9      	uxtb	r1, r1
 8006e98:	f7ff fe7a 	bl	8006b90 <USBD_ClrClassConfig>
 8006e9c:	7831      	ldrb	r1, [r6, #0]
 8006e9e:	6061      	str	r1, [r4, #4]
 8006ea0:	4620      	mov	r0, r4
 8006ea2:	f7ff fe6d 	bl	8006b80 <USBD_SetClassConfig>
 8006ea6:	4605      	mov	r5, r0
 8006ea8:	2800      	cmp	r0, #0
 8006eaa:	f000 80f3 	beq.w	8007094 <USBD_StdDevReq+0x2a0>
 8006eae:	2180      	movs	r1, #128	; 0x80
 8006eb0:	4620      	mov	r0, r4
 8006eb2:	f001 fab9 	bl	8008428 <USBD_LL_StallEP>
 8006eb6:	2100      	movs	r1, #0
 8006eb8:	4620      	mov	r0, r4
 8006eba:	f001 fab5 	bl	8008428 <USBD_LL_StallEP>
 8006ebe:	7921      	ldrb	r1, [r4, #4]
 8006ec0:	4620      	mov	r0, r4
 8006ec2:	f7ff fe65 	bl	8006b90 <USBD_ClrClassConfig>
 8006ec6:	2302      	movs	r3, #2
 8006ec8:	f884 329c 	strb.w	r3, [r4, #668]	; 0x29c
 8006ecc:	e7a7      	b.n	8006e1e <USBD_StdDevReq+0x2a>
 8006ece:	f890 329c 	ldrb.w	r3, [r0, #668]	; 0x29c
 8006ed2:	3b01      	subs	r3, #1
 8006ed4:	2b02      	cmp	r3, #2
 8006ed6:	f04f 0203 	mov.w	r2, #3
 8006eda:	d897      	bhi.n	8006e0c <USBD_StdDevReq+0x18>
 8006edc:	88cb      	ldrh	r3, [r1, #6]
 8006ede:	2b02      	cmp	r3, #2
 8006ee0:	d194      	bne.n	8006e0c <USBD_StdDevReq+0x18>
 8006ee2:	f8d0 32a4 	ldr.w	r3, [r0, #676]	; 0x2a4
 8006ee6:	2101      	movs	r1, #1
 8006ee8:	60c1      	str	r1, [r0, #12]
 8006eea:	b103      	cbz	r3, 8006eee <USBD_StdDevReq+0xfa>
 8006eec:	60c2      	str	r2, [r0, #12]
 8006eee:	2202      	movs	r2, #2
 8006ef0:	f104 010c 	add.w	r1, r4, #12
 8006ef4:	4620      	mov	r0, r4
 8006ef6:	f000 fa2d 	bl	8007354 <USBD_CtlSendData>
 8006efa:	2500      	movs	r5, #0
 8006efc:	e78f      	b.n	8006e1e <USBD_StdDevReq+0x2a>
 8006efe:	f890 329c 	ldrb.w	r3, [r0, #668]	; 0x29c
 8006f02:	3b01      	subs	r3, #1
 8006f04:	2b02      	cmp	r3, #2
 8006f06:	d881      	bhi.n	8006e0c <USBD_StdDevReq+0x18>
 8006f08:	884b      	ldrh	r3, [r1, #2]
 8006f0a:	2b01      	cmp	r3, #1
 8006f0c:	f04f 0500 	mov.w	r5, #0
 8006f10:	d185      	bne.n	8006e1e <USBD_StdDevReq+0x2a>
 8006f12:	f8c0 52a4 	str.w	r5, [r0, #676]	; 0x2a4
 8006f16:	f000 fa4b 	bl	80073b0 <USBD_CtlSendStatus>
 8006f1a:	e780      	b.n	8006e1e <USBD_StdDevReq+0x2a>
 8006f1c:	884b      	ldrh	r3, [r1, #2]
 8006f1e:	2b01      	cmp	r3, #1
 8006f20:	f000 80b6 	beq.w	8007090 <USBD_StdDevReq+0x29c>
 8006f24:	2500      	movs	r5, #0
 8006f26:	e77a      	b.n	8006e1e <USBD_StdDevReq+0x2a>
 8006f28:	888b      	ldrh	r3, [r1, #4]
 8006f2a:	2b00      	cmp	r3, #0
 8006f2c:	f47f af6e 	bne.w	8006e0c <USBD_StdDevReq+0x18>
 8006f30:	88ce      	ldrh	r6, [r1, #6]
 8006f32:	2e00      	cmp	r6, #0
 8006f34:	f47f af6a 	bne.w	8006e0c <USBD_StdDevReq+0x18>
 8006f38:	884d      	ldrh	r5, [r1, #2]
 8006f3a:	2d7f      	cmp	r5, #127	; 0x7f
 8006f3c:	f63f af66 	bhi.w	8006e0c <USBD_StdDevReq+0x18>
 8006f40:	f890 329c 	ldrb.w	r3, [r0, #668]	; 0x29c
 8006f44:	2b03      	cmp	r3, #3
 8006f46:	f43f af61 	beq.w	8006e0c <USBD_StdDevReq+0x18>
 8006f4a:	b2e9      	uxtb	r1, r5
 8006f4c:	f880 129e 	strb.w	r1, [r0, #670]	; 0x29e
 8006f50:	f001 fa9a 	bl	8008488 <USBD_LL_SetUSBAddress>
 8006f54:	4620      	mov	r0, r4
 8006f56:	f000 fa2b 	bl	80073b0 <USBD_CtlSendStatus>
 8006f5a:	2d00      	cmp	r5, #0
 8006f5c:	f000 80e5 	beq.w	800712a <USBD_StdDevReq+0x336>
 8006f60:	2302      	movs	r3, #2
 8006f62:	4635      	mov	r5, r6
 8006f64:	f884 329c 	strb.w	r3, [r4, #668]	; 0x29c
 8006f68:	e759      	b.n	8006e1e <USBD_StdDevReq+0x2a>
 8006f6a:	884a      	ldrh	r2, [r1, #2]
 8006f6c:	0a13      	lsrs	r3, r2, #8
 8006f6e:	2100      	movs	r1, #0
 8006f70:	3b01      	subs	r3, #1
 8006f72:	f8ad 1006 	strh.w	r1, [sp, #6]
 8006f76:	2b06      	cmp	r3, #6
 8006f78:	d85f      	bhi.n	800703a <USBD_StdDevReq+0x246>
 8006f7a:	e8df f003 	tbb	[pc, r3]
 8006f7e:	3d52      	.short	0x3d52
 8006f80:	495e5e35 	.word	0x495e5e35
 8006f84:	18          	.byte	0x18
 8006f85:	00          	.byte	0x00
 8006f86:	88ca      	ldrh	r2, [r1, #6]
 8006f88:	2a01      	cmp	r2, #1
 8006f8a:	f47f af3f 	bne.w	8006e0c <USBD_StdDevReq+0x18>
 8006f8e:	f890 329c 	ldrb.w	r3, [r0, #668]	; 0x29c
 8006f92:	2b00      	cmp	r3, #0
 8006f94:	f43f af3a 	beq.w	8006e0c <USBD_StdDevReq+0x18>
 8006f98:	2b02      	cmp	r3, #2
 8006f9a:	f240 80a6 	bls.w	80070ea <USBD_StdDevReq+0x2f6>
 8006f9e:	2b03      	cmp	r3, #3
 8006fa0:	f47f af34 	bne.w	8006e0c <USBD_StdDevReq+0x18>
 8006fa4:	1d01      	adds	r1, r0, #4
 8006fa6:	f000 f9d5 	bl	8007354 <USBD_CtlSendData>
 8006faa:	2500      	movs	r5, #0
 8006fac:	e737      	b.n	8006e1e <USBD_StdDevReq+0x2a>
 8006fae:	7c03      	ldrb	r3, [r0, #16]
 8006fb0:	2b00      	cmp	r3, #0
 8006fb2:	d142      	bne.n	800703a <USBD_StdDevReq+0x246>
 8006fb4:	f8d0 32b8 	ldr.w	r3, [r0, #696]	; 0x2b8
 8006fb8:	f10d 0006 	add.w	r0, sp, #6
 8006fbc:	6b1b      	ldr	r3, [r3, #48]	; 0x30
 8006fbe:	4798      	blx	r3
 8006fc0:	2307      	movs	r3, #7
 8006fc2:	7043      	strb	r3, [r0, #1]
 8006fc4:	88eb      	ldrh	r3, [r5, #6]
 8006fc6:	2b00      	cmp	r3, #0
 8006fc8:	d064      	beq.n	8007094 <USBD_StdDevReq+0x2a0>
 8006fca:	f8bd 2006 	ldrh.w	r2, [sp, #6]
 8006fce:	2a00      	cmp	r2, #0
 8006fd0:	d033      	beq.n	800703a <USBD_StdDevReq+0x246>
 8006fd2:	4293      	cmp	r3, r2
 8006fd4:	bf28      	it	cs
 8006fd6:	4613      	movcs	r3, r2
 8006fd8:	4601      	mov	r1, r0
 8006fda:	461a      	mov	r2, r3
 8006fdc:	4620      	mov	r0, r4
 8006fde:	f8ad 3006 	strh.w	r3, [sp, #6]
 8006fe2:	f000 f9b7 	bl	8007354 <USBD_CtlSendData>
 8006fe6:	e79d      	b.n	8006f24 <USBD_StdDevReq+0x130>
 8006fe8:	b2d2      	uxtb	r2, r2
 8006fea:	2a05      	cmp	r2, #5
 8006fec:	d825      	bhi.n	800703a <USBD_StdDevReq+0x246>
 8006fee:	e8df f002 	tbb	[pc, r2]
 8006ff2:	4920      	.short	0x4920
 8006ff4:	2d373d43 	.word	0x2d373d43
 8006ff8:	7c02      	ldrb	r2, [r0, #16]
 8006ffa:	f8d0 32b8 	ldr.w	r3, [r0, #696]	; 0x2b8
 8006ffe:	2a00      	cmp	r2, #0
 8007000:	d17a      	bne.n	80070f8 <USBD_StdDevReq+0x304>
 8007002:	6a9b      	ldr	r3, [r3, #40]	; 0x28
 8007004:	f10d 0006 	add.w	r0, sp, #6
 8007008:	4798      	blx	r3
 800700a:	2302      	movs	r3, #2
 800700c:	7043      	strb	r3, [r0, #1]
 800700e:	e7d9      	b.n	8006fc4 <USBD_StdDevReq+0x1d0>
 8007010:	7c03      	ldrb	r3, [r0, #16]
 8007012:	b993      	cbnz	r3, 800703a <USBD_StdDevReq+0x246>
 8007014:	f8d0 32b8 	ldr.w	r3, [r0, #696]	; 0x2b8
 8007018:	f10d 0006 	add.w	r0, sp, #6
 800701c:	6b5b      	ldr	r3, [r3, #52]	; 0x34
 800701e:	4798      	blx	r3
 8007020:	e7d0      	b.n	8006fc4 <USBD_StdDevReq+0x1d0>
 8007022:	f8d0 32b4 	ldr.w	r3, [r0, #692]	; 0x2b4
 8007026:	7c00      	ldrb	r0, [r0, #16]
 8007028:	681b      	ldr	r3, [r3, #0]
 800702a:	f10d 0106 	add.w	r1, sp, #6
 800702e:	4798      	blx	r3
 8007030:	e7c8      	b.n	8006fc4 <USBD_StdDevReq+0x1d0>
 8007032:	f8d0 32b4 	ldr.w	r3, [r0, #692]	; 0x2b4
 8007036:	685b      	ldr	r3, [r3, #4]
 8007038:	b96b      	cbnz	r3, 8007056 <USBD_StdDevReq+0x262>
 800703a:	2180      	movs	r1, #128	; 0x80
 800703c:	4620      	mov	r0, r4
 800703e:	f001 f9f3 	bl	8008428 <USBD_LL_StallEP>
 8007042:	4620      	mov	r0, r4
 8007044:	2100      	movs	r1, #0
 8007046:	f001 f9ef 	bl	8008428 <USBD_LL_StallEP>
 800704a:	e76b      	b.n	8006f24 <USBD_StdDevReq+0x130>
 800704c:	f8d0 32b4 	ldr.w	r3, [r0, #692]	; 0x2b4
 8007050:	699b      	ldr	r3, [r3, #24]
 8007052:	2b00      	cmp	r3, #0
 8007054:	d0f1      	beq.n	800703a <USBD_StdDevReq+0x246>
 8007056:	f10d 0106 	add.w	r1, sp, #6
 800705a:	7c20      	ldrb	r0, [r4, #16]
 800705c:	4798      	blx	r3
 800705e:	e7b1      	b.n	8006fc4 <USBD_StdDevReq+0x1d0>
 8007060:	f8d0 32b4 	ldr.w	r3, [r0, #692]	; 0x2b4
 8007064:	695b      	ldr	r3, [r3, #20]
 8007066:	2b00      	cmp	r3, #0
 8007068:	d1f5      	bne.n	8007056 <USBD_StdDevReq+0x262>
 800706a:	e7e6      	b.n	800703a <USBD_StdDevReq+0x246>
 800706c:	f8d0 32b4 	ldr.w	r3, [r0, #692]	; 0x2b4
 8007070:	691b      	ldr	r3, [r3, #16]
 8007072:	2b00      	cmp	r3, #0
 8007074:	d1ef      	bne.n	8007056 <USBD_StdDevReq+0x262>
 8007076:	e7e0      	b.n	800703a <USBD_StdDevReq+0x246>
 8007078:	f8d0 32b4 	ldr.w	r3, [r0, #692]	; 0x2b4
 800707c:	68db      	ldr	r3, [r3, #12]
 800707e:	2b00      	cmp	r3, #0
 8007080:	d1e9      	bne.n	8007056 <USBD_StdDevReq+0x262>
 8007082:	e7da      	b.n	800703a <USBD_StdDevReq+0x246>
 8007084:	f8d0 32b4 	ldr.w	r3, [r0, #692]	; 0x2b4
 8007088:	689b      	ldr	r3, [r3, #8]
 800708a:	2b00      	cmp	r3, #0
 800708c:	d1e3      	bne.n	8007056 <USBD_StdDevReq+0x262>
 800708e:	e7d4      	b.n	800703a <USBD_StdDevReq+0x246>
 8007090:	f8c0 32a4 	str.w	r3, [r0, #676]	; 0x2a4
 8007094:	4620      	mov	r0, r4
 8007096:	f000 f98b 	bl	80073b0 <USBD_CtlSendStatus>
 800709a:	e743      	b.n	8006f24 <USBD_StdDevReq+0x130>
 800709c:	2180      	movs	r1, #128	; 0x80
 800709e:	f001 f9c3 	bl	8008428 <USBD_LL_StallEP>
 80070a2:	4620      	mov	r0, r4
 80070a4:	2100      	movs	r1, #0
 80070a6:	f001 f9bf 	bl	8008428 <USBD_LL_StallEP>
 80070aa:	2503      	movs	r5, #3
 80070ac:	e6b7      	b.n	8006e1e <USBD_StdDevReq+0x2a>
 80070ae:	2d00      	cmp	r5, #0
 80070b0:	d0f0      	beq.n	8007094 <USBD_StdDevReq+0x2a0>
 80070b2:	2101      	movs	r1, #1
 80070b4:	6041      	str	r1, [r0, #4]
 80070b6:	f7ff fd63 	bl	8006b80 <USBD_SetClassConfig>
 80070ba:	4605      	mov	r5, r0
 80070bc:	b370      	cbz	r0, 800711c <USBD_StdDevReq+0x328>
 80070be:	2180      	movs	r1, #128	; 0x80
 80070c0:	4620      	mov	r0, r4
 80070c2:	f001 f9b1 	bl	8008428 <USBD_LL_StallEP>
 80070c6:	4620      	mov	r0, r4
 80070c8:	2100      	movs	r1, #0
 80070ca:	f001 f9ad 	bl	8008428 <USBD_LL_StallEP>
 80070ce:	e6a6      	b.n	8006e1e <USBD_StdDevReq+0x2a>
 80070d0:	2180      	movs	r1, #128	; 0x80
 80070d2:	f001 f9a9 	bl	8008428 <USBD_LL_StallEP>
 80070d6:	2100      	movs	r1, #0
 80070d8:	4620      	mov	r0, r4
 80070da:	f001 f9a5 	bl	8008428 <USBD_LL_StallEP>
 80070de:	7831      	ldrb	r1, [r6, #0]
 80070e0:	4620      	mov	r0, r4
 80070e2:	f7ff fd55 	bl	8006b90 <USBD_ClrClassConfig>
 80070e6:	2503      	movs	r5, #3
 80070e8:	e699      	b.n	8006e1e <USBD_StdDevReq+0x2a>
 80070ea:	4601      	mov	r1, r0
 80070ec:	2500      	movs	r5, #0
 80070ee:	f841 5f08 	str.w	r5, [r1, #8]!
 80070f2:	f000 f92f 	bl	8007354 <USBD_CtlSendData>
 80070f6:	e692      	b.n	8006e1e <USBD_StdDevReq+0x2a>
 80070f8:	6adb      	ldr	r3, [r3, #44]	; 0x2c
 80070fa:	f10d 0006 	add.w	r0, sp, #6
 80070fe:	4798      	blx	r3
 8007100:	2302      	movs	r3, #2
 8007102:	7043      	strb	r3, [r0, #1]
 8007104:	e75e      	b.n	8006fc4 <USBD_StdDevReq+0x1d0>
 8007106:	2302      	movs	r3, #2
 8007108:	6045      	str	r5, [r0, #4]
 800710a:	f880 329c 	strb.w	r3, [r0, #668]	; 0x29c
 800710e:	4629      	mov	r1, r5
 8007110:	f7ff fd3e 	bl	8006b90 <USBD_ClrClassConfig>
 8007114:	4620      	mov	r0, r4
 8007116:	f000 f94b 	bl	80073b0 <USBD_CtlSendStatus>
 800711a:	e680      	b.n	8006e1e <USBD_StdDevReq+0x2a>
 800711c:	4620      	mov	r0, r4
 800711e:	f000 f947 	bl	80073b0 <USBD_CtlSendStatus>
 8007122:	2303      	movs	r3, #3
 8007124:	f884 329c 	strb.w	r3, [r4, #668]	; 0x29c
 8007128:	e679      	b.n	8006e1e <USBD_StdDevReq+0x2a>
 800712a:	2301      	movs	r3, #1
 800712c:	f884 329c 	strb.w	r3, [r4, #668]	; 0x29c
 8007130:	e675      	b.n	8006e1e <USBD_StdDevReq+0x2a>
 8007132:	bf00      	nop
 8007134:	20000384 	.word	0x20000384

08007138 <USBD_StdItfReq>:
 8007138:	b570      	push	{r4, r5, r6, lr}
 800713a:	780b      	ldrb	r3, [r1, #0]
 800713c:	f003 0360 	and.w	r3, r3, #96	; 0x60
 8007140:	2b20      	cmp	r3, #32
 8007142:	460d      	mov	r5, r1
 8007144:	4604      	mov	r4, r0
 8007146:	d00d      	beq.n	8007164 <USBD_StdItfReq+0x2c>
 8007148:	2b40      	cmp	r3, #64	; 0x40
 800714a:	d00b      	beq.n	8007164 <USBD_StdItfReq+0x2c>
 800714c:	b153      	cbz	r3, 8007164 <USBD_StdItfReq+0x2c>
 800714e:	2180      	movs	r1, #128	; 0x80
 8007150:	4620      	mov	r0, r4
 8007152:	f001 f969 	bl	8008428 <USBD_LL_StallEP>
 8007156:	4620      	mov	r0, r4
 8007158:	2100      	movs	r1, #0
 800715a:	f001 f965 	bl	8008428 <USBD_LL_StallEP>
 800715e:	2600      	movs	r6, #0
 8007160:	4630      	mov	r0, r6
 8007162:	bd70      	pop	{r4, r5, r6, pc}
 8007164:	f894 329c 	ldrb.w	r3, [r4, #668]	; 0x29c
 8007168:	3b01      	subs	r3, #1
 800716a:	2b02      	cmp	r3, #2
 800716c:	d8ef      	bhi.n	800714e <USBD_StdItfReq+0x16>
 800716e:	792b      	ldrb	r3, [r5, #4]
 8007170:	2b03      	cmp	r3, #3
 8007172:	d8ec      	bhi.n	800714e <USBD_StdItfReq+0x16>
 8007174:	f8d4 32b8 	ldr.w	r3, [r4, #696]	; 0x2b8
 8007178:	4629      	mov	r1, r5
 800717a:	689b      	ldr	r3, [r3, #8]
 800717c:	4620      	mov	r0, r4
 800717e:	4798      	blx	r3
 8007180:	88eb      	ldrh	r3, [r5, #6]
 8007182:	4606      	mov	r6, r0
 8007184:	2b00      	cmp	r3, #0
 8007186:	d1eb      	bne.n	8007160 <USBD_StdItfReq+0x28>
 8007188:	2800      	cmp	r0, #0
 800718a:	d1e9      	bne.n	8007160 <USBD_StdItfReq+0x28>
 800718c:	4620      	mov	r0, r4
 800718e:	f000 f90f 	bl	80073b0 <USBD_CtlSendStatus>
 8007192:	e7e5      	b.n	8007160 <USBD_StdItfReq+0x28>

08007194 <USBD_StdEPReq>:
 8007194:	b570      	push	{r4, r5, r6, lr}
 8007196:	780b      	ldrb	r3, [r1, #0]
 8007198:	f003 0360 	and.w	r3, r3, #96	; 0x60
 800719c:	2b20      	cmp	r3, #32
 800719e:	4605      	mov	r5, r0
 80071a0:	d027      	beq.n	80071f2 <USBD_StdEPReq+0x5e>
 80071a2:	2b40      	cmp	r3, #64	; 0x40
 80071a4:	d025      	beq.n	80071f2 <USBD_StdEPReq+0x5e>
 80071a6:	460c      	mov	r4, r1
 80071a8:	b14b      	cbz	r3, 80071be <USBD_StdEPReq+0x2a>
 80071aa:	2180      	movs	r1, #128	; 0x80
 80071ac:	4628      	mov	r0, r5
 80071ae:	f001 f93b 	bl	8008428 <USBD_LL_StallEP>
 80071b2:	4628      	mov	r0, r5
 80071b4:	2100      	movs	r1, #0
 80071b6:	f001 f937 	bl	8008428 <USBD_LL_StallEP>
 80071ba:	2000      	movs	r0, #0
 80071bc:	bd70      	pop	{r4, r5, r6, pc}
 80071be:	784b      	ldrb	r3, [r1, #1]
 80071c0:	888a      	ldrh	r2, [r1, #4]
 80071c2:	2b01      	cmp	r3, #1
 80071c4:	b2d1      	uxtb	r1, r2
 80071c6:	d042      	beq.n	800724e <USBD_StdEPReq+0xba>
 80071c8:	d31a      	bcc.n	8007200 <USBD_StdEPReq+0x6c>
 80071ca:	2b03      	cmp	r3, #3
 80071cc:	d1ed      	bne.n	80071aa <USBD_StdEPReq+0x16>
 80071ce:	f890 329c 	ldrb.w	r3, [r0, #668]	; 0x29c
 80071d2:	2b02      	cmp	r3, #2
 80071d4:	d052      	beq.n	800727c <USBD_StdEPReq+0xe8>
 80071d6:	2b03      	cmp	r3, #3
 80071d8:	d1e7      	bne.n	80071aa <USBD_StdEPReq+0x16>
 80071da:	8863      	ldrh	r3, [r4, #2]
 80071dc:	b92b      	cbnz	r3, 80071ea <USBD_StdEPReq+0x56>
 80071de:	064a      	lsls	r2, r1, #25
 80071e0:	d003      	beq.n	80071ea <USBD_StdEPReq+0x56>
 80071e2:	88e3      	ldrh	r3, [r4, #6]
 80071e4:	b90b      	cbnz	r3, 80071ea <USBD_StdEPReq+0x56>
 80071e6:	f001 f91f 	bl	8008428 <USBD_LL_StallEP>
 80071ea:	4628      	mov	r0, r5
 80071ec:	f000 f8e0 	bl	80073b0 <USBD_CtlSendStatus>
 80071f0:	e7e3      	b.n	80071ba <USBD_StdEPReq+0x26>
 80071f2:	f8d5 32b8 	ldr.w	r3, [r5, #696]	; 0x2b8
 80071f6:	4628      	mov	r0, r5
 80071f8:	689b      	ldr	r3, [r3, #8]
 80071fa:	e8bd 4070 	ldmia.w	sp!, {r4, r5, r6, lr}
 80071fe:	4718      	bx	r3
 8007200:	f890 329c 	ldrb.w	r3, [r0, #668]	; 0x29c
 8007204:	2b02      	cmp	r3, #2
 8007206:	d042      	beq.n	800728e <USBD_StdEPReq+0xfa>
 8007208:	2b03      	cmp	r3, #3
 800720a:	d1ce      	bne.n	80071aa <USBD_StdEPReq+0x16>
 800720c:	f001 030f 	and.w	r3, r1, #15
 8007210:	eb03 0383 	add.w	r3, r3, r3, lsl #2
 8007214:	0612      	lsls	r2, r2, #24
 8007216:	eb00 0383 	add.w	r3, r0, r3, lsl #2
 800721a:	d447      	bmi.n	80072ac <USBD_StdEPReq+0x118>
 800721c:	f8b3 3164 	ldrh.w	r3, [r3, #356]	; 0x164
 8007220:	2b00      	cmp	r3, #0
 8007222:	d0c2      	beq.n	80071aa <USBD_StdEPReq+0x16>
 8007224:	f001 037f 	and.w	r3, r1, #127	; 0x7f
 8007228:	2414      	movs	r4, #20
 800722a:	fb04 0403 	mla	r4, r4, r3, r0
 800722e:	f504 74aa 	add.w	r4, r4, #340	; 0x154
 8007232:	b12b      	cbz	r3, 8007240 <USBD_StdEPReq+0xac>
 8007234:	4628      	mov	r0, r5
 8007236:	f001 f913 	bl	8008460 <USBD_LL_IsStallEP>
 800723a:	2800      	cmp	r0, #0
 800723c:	d042      	beq.n	80072c4 <USBD_StdEPReq+0x130>
 800723e:	2301      	movs	r3, #1
 8007240:	6023      	str	r3, [r4, #0]
 8007242:	4621      	mov	r1, r4
 8007244:	4628      	mov	r0, r5
 8007246:	2202      	movs	r2, #2
 8007248:	f000 f884 	bl	8007354 <USBD_CtlSendData>
 800724c:	e7b5      	b.n	80071ba <USBD_StdEPReq+0x26>
 800724e:	f890 329c 	ldrb.w	r3, [r0, #668]	; 0x29c
 8007252:	2b02      	cmp	r3, #2
 8007254:	d012      	beq.n	800727c <USBD_StdEPReq+0xe8>
 8007256:	2b03      	cmp	r3, #3
 8007258:	d1a7      	bne.n	80071aa <USBD_StdEPReq+0x16>
 800725a:	8863      	ldrh	r3, [r4, #2]
 800725c:	2b00      	cmp	r3, #0
 800725e:	d1ac      	bne.n	80071ba <USBD_StdEPReq+0x26>
 8007260:	064e      	lsls	r6, r1, #25
 8007262:	d001      	beq.n	8007268 <USBD_StdEPReq+0xd4>
 8007264:	f001 f8ee 	bl	8008444 <USBD_LL_ClearStallEP>
 8007268:	4628      	mov	r0, r5
 800726a:	f000 f8a1 	bl	80073b0 <USBD_CtlSendStatus>
 800726e:	f8d5 32b8 	ldr.w	r3, [r5, #696]	; 0x2b8
 8007272:	4621      	mov	r1, r4
 8007274:	689b      	ldr	r3, [r3, #8]
 8007276:	4628      	mov	r0, r5
 8007278:	4798      	blx	r3
 800727a:	e79e      	b.n	80071ba <USBD_StdEPReq+0x26>
 800727c:	064b      	lsls	r3, r1, #25
 800727e:	d094      	beq.n	80071aa <USBD_StdEPReq+0x16>
 8007280:	f001 f8d2 	bl	8008428 <USBD_LL_StallEP>
 8007284:	4628      	mov	r0, r5
 8007286:	2180      	movs	r1, #128	; 0x80
 8007288:	f001 f8ce 	bl	8008428 <USBD_LL_StallEP>
 800728c:	e795      	b.n	80071ba <USBD_StdEPReq+0x26>
 800728e:	0648      	lsls	r0, r1, #25
 8007290:	d18b      	bne.n	80071aa <USBD_StdEPReq+0x16>
 8007292:	0611      	lsls	r1, r2, #24
 8007294:	bf4c      	ite	mi
 8007296:	f105 0114 	addmi.w	r1, r5, #20
 800729a:	f505 71aa 	addpl.w	r1, r5, #340	; 0x154
 800729e:	2300      	movs	r3, #0
 80072a0:	4628      	mov	r0, r5
 80072a2:	600b      	str	r3, [r1, #0]
 80072a4:	2202      	movs	r2, #2
 80072a6:	f000 f855 	bl	8007354 <USBD_CtlSendData>
 80072aa:	e786      	b.n	80071ba <USBD_StdEPReq+0x26>
 80072ac:	8c9b      	ldrh	r3, [r3, #36]	; 0x24
 80072ae:	2b00      	cmp	r3, #0
 80072b0:	f43f af7b 	beq.w	80071aa <USBD_StdEPReq+0x16>
 80072b4:	f001 037f 	and.w	r3, r1, #127	; 0x7f
 80072b8:	1c5c      	adds	r4, r3, #1
 80072ba:	eb04 0484 	add.w	r4, r4, r4, lsl #2
 80072be:	eb00 0484 	add.w	r4, r0, r4, lsl #2
 80072c2:	e7b6      	b.n	8007232 <USBD_StdEPReq+0x9e>
 80072c4:	6020      	str	r0, [r4, #0]
 80072c6:	e7bc      	b.n	8007242 <USBD_StdEPReq+0xae>

080072c8 <USBD_ParseSetupRequest>:
 80072c8:	780b      	ldrb	r3, [r1, #0]
 80072ca:	7003      	strb	r3, [r0, #0]
 80072cc:	784b      	ldrb	r3, [r1, #1]
 80072ce:	7043      	strb	r3, [r0, #1]
 80072d0:	78ca      	ldrb	r2, [r1, #3]
 80072d2:	788b      	ldrb	r3, [r1, #2]
 80072d4:	ea43 2302 	orr.w	r3, r3, r2, lsl #8
 80072d8:	8043      	strh	r3, [r0, #2]
 80072da:	794a      	ldrb	r2, [r1, #5]
 80072dc:	790b      	ldrb	r3, [r1, #4]
 80072de:	ea43 2302 	orr.w	r3, r3, r2, lsl #8
 80072e2:	8083      	strh	r3, [r0, #4]
 80072e4:	79ca      	ldrb	r2, [r1, #7]
 80072e6:	798b      	ldrb	r3, [r1, #6]
 80072e8:	ea43 2302 	orr.w	r3, r3, r2, lsl #8
 80072ec:	80c3      	strh	r3, [r0, #6]
 80072ee:	4770      	bx	lr

080072f0 <USBD_CtlError>:
 80072f0:	b510      	push	{r4, lr}
 80072f2:	2180      	movs	r1, #128	; 0x80
 80072f4:	4604      	mov	r4, r0
 80072f6:	f001 f897 	bl	8008428 <USBD_LL_StallEP>
 80072fa:	4620      	mov	r0, r4
 80072fc:	2100      	movs	r1, #0
 80072fe:	e8bd 4010 	ldmia.w	sp!, {r4, lr}
 8007302:	f001 b891 	b.w	8008428 <USBD_LL_StallEP>
 8007306:	bf00      	nop

08007308 <USBD_GetString>:
 8007308:	b300      	cbz	r0, 800734c <USBD_GetString+0x44>
 800730a:	7803      	ldrb	r3, [r0, #0]
 800730c:	b430      	push	{r4, r5}
 800730e:	b1f3      	cbz	r3, 800734e <USBD_GetString+0x46>
 8007310:	4604      	mov	r4, r0
 8007312:	2300      	movs	r3, #0
 8007314:	f814 5f01 	ldrb.w	r5, [r4, #1]!
 8007318:	3301      	adds	r3, #1
 800731a:	b2db      	uxtb	r3, r3
 800731c:	2d00      	cmp	r5, #0
 800731e:	d1f9      	bne.n	8007314 <USBD_GetString+0xc>
 8007320:	005b      	lsls	r3, r3, #1
 8007322:	3302      	adds	r3, #2
 8007324:	2403      	movs	r4, #3
 8007326:	8013      	strh	r3, [r2, #0]
 8007328:	700b      	strb	r3, [r1, #0]
 800732a:	704c      	strb	r4, [r1, #1]
 800732c:	7804      	ldrb	r4, [r0, #0]
 800732e:	b15c      	cbz	r4, 8007348 <USBD_GetString+0x40>
 8007330:	2302      	movs	r3, #2
 8007332:	2500      	movs	r5, #0
 8007334:	1c5a      	adds	r2, r3, #1
 8007336:	b2d2      	uxtb	r2, r2
 8007338:	54cc      	strb	r4, [r1, r3]
 800733a:	548d      	strb	r5, [r1, r2]
 800733c:	f810 4f01 	ldrb.w	r4, [r0, #1]!
 8007340:	3302      	adds	r3, #2
 8007342:	b2db      	uxtb	r3, r3
 8007344:	2c00      	cmp	r4, #0
 8007346:	d1f5      	bne.n	8007334 <USBD_GetString+0x2c>
 8007348:	bc30      	pop	{r4, r5}
 800734a:	4770      	bx	lr
 800734c:	4770      	bx	lr
 800734e:	2302      	movs	r3, #2
 8007350:	e7e8      	b.n	8007324 <USBD_GetString+0x1c>
 8007352:	bf00      	nop

08007354 <USBD_CtlSendData>:
 8007354:	b538      	push	{r3, r4, r5, lr}
 8007356:	4613      	mov	r3, r2
 8007358:	2502      	movs	r5, #2
 800735a:	460a      	mov	r2, r1
 800735c:	e9c0 3306 	strd	r3, r3, [r0, #24]
 8007360:	f8c0 5294 	str.w	r5, [r0, #660]	; 0x294
 8007364:	2100      	movs	r1, #0
 8007366:	f001 f89d 	bl	80084a4 <USBD_LL_Transmit>
 800736a:	2000      	movs	r0, #0
 800736c:	bd38      	pop	{r3, r4, r5, pc}
 800736e:	bf00      	nop

08007370 <USBD_CtlContinueSendData>:
 8007370:	b508      	push	{r3, lr}
 8007372:	4613      	mov	r3, r2
 8007374:	460a      	mov	r2, r1
 8007376:	2100      	movs	r1, #0
 8007378:	f001 f894 	bl	80084a4 <USBD_LL_Transmit>
 800737c:	2000      	movs	r0, #0
 800737e:	bd08      	pop	{r3, pc}

08007380 <USBD_CtlPrepareRx>:
 8007380:	b538      	push	{r3, r4, r5, lr}
 8007382:	4613      	mov	r3, r2
 8007384:	2503      	movs	r5, #3
 8007386:	460a      	mov	r2, r1
 8007388:	f8c0 3158 	str.w	r3, [r0, #344]	; 0x158
 800738c:	f8c0 315c 	str.w	r3, [r0, #348]	; 0x15c
 8007390:	f8c0 5294 	str.w	r5, [r0, #660]	; 0x294
 8007394:	2100      	movs	r1, #0
 8007396:	f001 f893 	bl	80084c0 <USBD_LL_PrepareReceive>
 800739a:	2000      	movs	r0, #0
 800739c:	bd38      	pop	{r3, r4, r5, pc}
 800739e:	bf00      	nop

080073a0 <USBD_CtlContinueRx>:
 80073a0:	b508      	push	{r3, lr}
 80073a2:	4613      	mov	r3, r2
 80073a4:	460a      	mov	r2, r1
 80073a6:	2100      	movs	r1, #0
 80073a8:	f001 f88a 	bl	80084c0 <USBD_LL_PrepareReceive>
 80073ac:	2000      	movs	r0, #0
 80073ae:	bd08      	pop	{r3, pc}

080073b0 <USBD_CtlSendStatus>:
 80073b0:	b508      	push	{r3, lr}
 80073b2:	2204      	movs	r2, #4
 80073b4:	2300      	movs	r3, #0
 80073b6:	f8c0 2294 	str.w	r2, [r0, #660]	; 0x294
 80073ba:	4619      	mov	r1, r3
 80073bc:	461a      	mov	r2, r3
 80073be:	f001 f871 	bl	80084a4 <USBD_LL_Transmit>
 80073c2:	2000      	movs	r0, #0
 80073c4:	bd08      	pop	{r3, pc}
 80073c6:	bf00      	nop

080073c8 <USBD_CtlReceiveStatus>:
 80073c8:	b508      	push	{r3, lr}
 80073ca:	2205      	movs	r2, #5
 80073cc:	2300      	movs	r3, #0
 80073ce:	f8c0 2294 	str.w	r2, [r0, #660]	; 0x294
 80073d2:	4619      	mov	r1, r3
 80073d4:	461a      	mov	r2, r3
 80073d6:	f001 f873 	bl	80084c0 <USBD_LL_PrepareReceive>
 80073da:	2000      	movs	r0, #0
 80073dc:	bd08      	pop	{r3, pc}
 80073de:	bf00      	nop

080073e0 <FATFS_LinkDriver>:
 80073e0:	b4f0      	push	{r4, r5, r6, r7}
 80073e2:	4b10      	ldr	r3, [pc, #64]	; (8007424 <FATFS_LinkDriver+0x44>)
 80073e4:	7a5c      	ldrb	r4, [r3, #9]
 80073e6:	b114      	cbz	r4, 80073ee <FATFS_LinkDriver+0xe>
 80073e8:	2001      	movs	r0, #1
 80073ea:	bcf0      	pop	{r4, r5, r6, r7}
 80073ec:	4770      	bx	lr
 80073ee:	7a5f      	ldrb	r7, [r3, #9]
 80073f0:	7a5e      	ldrb	r6, [r3, #9]
 80073f2:	7a5d      	ldrb	r5, [r3, #9]
 80073f4:	f004 02ff 	and.w	r2, r4, #255	; 0xff
 80073f8:	7a5c      	ldrb	r4, [r3, #9]
 80073fa:	55da      	strb	r2, [r3, r7]
 80073fc:	eb03 0686 	add.w	r6, r3, r6, lsl #2
 8007400:	b2e4      	uxtb	r4, r4
 8007402:	6070      	str	r0, [r6, #4]
 8007404:	441d      	add	r5, r3
 8007406:	1c60      	adds	r0, r4, #1
 8007408:	b2c0      	uxtb	r0, r0
 800740a:	7258      	strb	r0, [r3, #9]
 800740c:	722a      	strb	r2, [r5, #8]
 800740e:	3430      	adds	r4, #48	; 0x30
 8007410:	253a      	movs	r5, #58	; 0x3a
 8007412:	232f      	movs	r3, #47	; 0x2f
 8007414:	700c      	strb	r4, [r1, #0]
 8007416:	4610      	mov	r0, r2
 8007418:	704d      	strb	r5, [r1, #1]
 800741a:	70ca      	strb	r2, [r1, #3]
 800741c:	708b      	strb	r3, [r1, #2]
 800741e:	bcf0      	pop	{r4, r5, r6, r7}
 8007420:	4770      	bx	lr
 8007422:	bf00      	nop
 8007424:	20000388 	.word	0x20000388

08007428 <AudioPlay_Play>:
 8007428:	460a      	mov	r2, r1
 800742a:	f5b2 3f00 	cmp.w	r2, #131072	; 0x20000
 800742e:	4601      	mov	r1, r0
 8007430:	bf34      	ite	cc
 8007432:	f3c2 024f 	ubfxcc	r2, r2, #1, #16
 8007436:	f64f 72ff 	movwcs	r2, #65535	; 0xffff
 800743a:	b508      	push	{r3, lr}
 800743c:	4803      	ldr	r0, [pc, #12]	; (800744c <AudioPlay_Play+0x24>)
 800743e:	f7fb fca7 	bl	8002d90 <HAL_I2S_Transmit_DMA>
 8007442:	3000      	adds	r0, #0
 8007444:	bf18      	it	ne
 8007446:	2001      	movne	r0, #1
 8007448:	bd08      	pop	{r3, pc}
 800744a:	bf00      	nop
 800744c:	200009bc 	.word	0x200009bc

08007450 <AudioPlay_Stop>:
 8007450:	b508      	push	{r3, lr}
 8007452:	4803      	ldr	r0, [pc, #12]	; (8007460 <AudioPlay_Stop+0x10>)
 8007454:	f7fb fcfe 	bl	8002e54 <HAL_I2S_DMAStop>
 8007458:	3000      	adds	r0, #0
 800745a:	bf18      	it	ne
 800745c:	2001      	movne	r0, #1
 800745e:	bd08      	pop	{r3, pc}
 8007460:	200009bc 	.word	0x200009bc

08007464 <AudioPlay_ChangeBuffer>:
 8007464:	460a      	mov	r2, r1
 8007466:	4601      	mov	r1, r0
 8007468:	4801      	ldr	r0, [pc, #4]	; (8007470 <AudioPlay_ChangeBuffer+0xc>)
 800746a:	f7fb bc91 	b.w	8002d90 <HAL_I2S_Transmit_DMA>
 800746e:	bf00      	nop
 8007470:	200009bc 	.word	0x200009bc

08007474 <AudioPlay_HalfTransfer_CallBack>:
 8007474:	f000 bed2 	b.w	800821c <HalfTransfer_CallBack_FS>

08007478 <AudioPlay_TransferComplete_CallBack>:
 8007478:	f000 beca 	b.w	8008210 <TransferComplete_CallBack_FS>

0800747c <BSP_SD_ReadBlocks>:
 800747c:	b500      	push	{lr}
 800747e:	b083      	sub	sp, #12
 8007480:	9300      	str	r3, [sp, #0]
 8007482:	4613      	mov	r3, r2
 8007484:	460a      	mov	r2, r1
 8007486:	4601      	mov	r1, r0
 8007488:	4804      	ldr	r0, [pc, #16]	; (800749c <BSP_SD_ReadBlocks+0x20>)
 800748a:	f7fd f8f9 	bl	8004680 <HAL_SD_ReadBlocks>
 800748e:	3000      	adds	r0, #0
 8007490:	bf18      	it	ne
 8007492:	2001      	movne	r0, #1
 8007494:	b003      	add	sp, #12
 8007496:	f85d fb04 	ldr.w	pc, [sp], #4
 800749a:	bf00      	nop
 800749c:	200008d8 	.word	0x200008d8

080074a0 <BSP_SD_WriteBlocks>:
 80074a0:	b500      	push	{lr}
 80074a2:	b083      	sub	sp, #12
 80074a4:	9300      	str	r3, [sp, #0]
 80074a6:	4613      	mov	r3, r2
 80074a8:	460a      	mov	r2, r1
 80074aa:	4601      	mov	r1, r0
 80074ac:	4804      	ldr	r0, [pc, #16]	; (80074c0 <BSP_SD_WriteBlocks+0x20>)
 80074ae:	f7fd fa0b 	bl	80048c8 <HAL_SD_WriteBlocks>
 80074b2:	3000      	adds	r0, #0
 80074b4:	bf18      	it	ne
 80074b6:	2001      	movne	r0, #1
 80074b8:	b003      	add	sp, #12
 80074ba:	f85d fb04 	ldr.w	pc, [sp], #4
 80074be:	bf00      	nop
 80074c0:	200008d8 	.word	0x200008d8

080074c4 <BSP_SD_GetCardState>:
 80074c4:	b508      	push	{r3, lr}
 80074c6:	4803      	ldr	r0, [pc, #12]	; (80074d4 <BSP_SD_GetCardState+0x10>)
 80074c8:	f7fd fd74 	bl	8004fb4 <HAL_SD_GetCardState>
 80074cc:	3804      	subs	r0, #4
 80074ce:	bf18      	it	ne
 80074d0:	2001      	movne	r0, #1
 80074d2:	bd08      	pop	{r3, pc}
 80074d4:	200008d8 	.word	0x200008d8

080074d8 <BSP_SD_GetCardInfo>:
 80074d8:	4601      	mov	r1, r0
 80074da:	4801      	ldr	r0, [pc, #4]	; (80074e0 <BSP_SD_GetCardInfo+0x8>)
 80074dc:	f7fd bccc 	b.w	8004e78 <HAL_SD_GetCardInfo>
 80074e0:	200008d8 	.word	0x200008d8

080074e4 <BSP_SD_IsDetected>:
 80074e4:	b500      	push	{lr}
 80074e6:	b083      	sub	sp, #12
 80074e8:	2301      	movs	r3, #1
 80074ea:	f88d 3007 	strb.w	r3, [sp, #7]
 80074ee:	f000 f82f 	bl	8007550 <BSP_PlatformIsDetected>
 80074f2:	b908      	cbnz	r0, 80074f8 <BSP_SD_IsDetected+0x14>
 80074f4:	f88d 0007 	strb.w	r0, [sp, #7]
 80074f8:	f89d 0007 	ldrb.w	r0, [sp, #7]
 80074fc:	b003      	add	sp, #12
 80074fe:	f85d fb04 	ldr.w	pc, [sp], #4
 8007502:	bf00      	nop

08007504 <BSP_SD_Init>:
 8007504:	b508      	push	{r3, lr}
 8007506:	f7ff ffed 	bl	80074e4 <BSP_SD_IsDetected>
 800750a:	2801      	cmp	r0, #1
 800750c:	d001      	beq.n	8007512 <BSP_SD_Init+0xe>
 800750e:	2001      	movs	r0, #1
 8007510:	bd08      	pop	{r3, pc}
 8007512:	4807      	ldr	r0, [pc, #28]	; (8007530 <BSP_SD_Init+0x2c>)
 8007514:	f7fd fc8a 	bl	8004e2c <HAL_SD_Init>
 8007518:	2800      	cmp	r0, #0
 800751a:	d1f9      	bne.n	8007510 <BSP_SD_Init+0xc>
 800751c:	f44f 6100 	mov.w	r1, #2048	; 0x800
 8007520:	4803      	ldr	r0, [pc, #12]	; (8007530 <BSP_SD_Init+0x2c>)
 8007522:	f7fd fcbd 	bl	8004ea0 <HAL_SD_ConfigWideBusOperation>
 8007526:	3000      	adds	r0, #0
 8007528:	bf18      	it	ne
 800752a:	2001      	movne	r0, #1
 800752c:	bd08      	pop	{r3, pc}
 800752e:	bf00      	nop
 8007530:	200008d8 	.word	0x200008d8

08007534 <MX_FATFS_Init>:
 8007534:	b508      	push	{r3, lr}
 8007536:	4903      	ldr	r1, [pc, #12]	; (8007544 <MX_FATFS_Init+0x10>)
 8007538:	4803      	ldr	r0, [pc, #12]	; (8007548 <MX_FATFS_Init+0x14>)
 800753a:	f7ff ff51 	bl	80073e0 <FATFS_LinkDriver>
 800753e:	4b03      	ldr	r3, [pc, #12]	; (800754c <MX_FATFS_Init+0x18>)
 8007540:	7018      	strb	r0, [r3, #0]
 8007542:	bd08      	pop	{r3, pc}
 8007544:	200003d0 	.word	0x200003d0
 8007548:	0800a91c 	.word	0x0800a91c
 800754c:	200003cc 	.word	0x200003cc

08007550 <BSP_PlatformIsDetected>:
 8007550:	b508      	push	{r3, lr}
 8007552:	2180      	movs	r1, #128	; 0x80
 8007554:	4803      	ldr	r0, [pc, #12]	; (8007564 <BSP_PlatformIsDetected+0x14>)
 8007556:	f7fa f85f 	bl	8001618 <HAL_GPIO_ReadPin>
 800755a:	fab0 f080 	clz	r0, r0
 800755e:	0940      	lsrs	r0, r0, #5
 8007560:	bd08      	pop	{r3, pc}
 8007562:	bf00      	nop
 8007564:	40020800 	.word	0x40020800

08007568 <SystemClock_Config>:
 8007568:	b570      	push	{r4, r5, r6, lr}
 800756a:	2400      	movs	r4, #0
 800756c:	b098      	sub	sp, #96	; 0x60
 800756e:	e9cd 440e 	strd	r4, r4, [sp, #56]	; 0x38
 8007572:	e9cd 4410 	strd	r4, r4, [sp, #64]	; 0x40
 8007576:	e9cd 4403 	strd	r4, r4, [sp, #12]
 800757a:	e9cd 4405 	strd	r4, r4, [sp, #20]
 800757e:	e9cd 4408 	strd	r4, r4, [sp, #32]
 8007582:	e9cd 440a 	strd	r4, r4, [sp, #40]	; 0x28
 8007586:	4b21      	ldr	r3, [pc, #132]	; (800760c <SystemClock_Config+0xa4>)
 8007588:	9400      	str	r4, [sp, #0]
 800758a:	9402      	str	r4, [sp, #8]
 800758c:	9407      	str	r4, [sp, #28]
 800758e:	6c19      	ldr	r1, [r3, #64]	; 0x40
 8007590:	4a1f      	ldr	r2, [pc, #124]	; (8007610 <SystemClock_Config+0xa8>)
 8007592:	f041 5180 	orr.w	r1, r1, #268435456	; 0x10000000
 8007596:	6419      	str	r1, [r3, #64]	; 0x40
 8007598:	6c1b      	ldr	r3, [r3, #64]	; 0x40
 800759a:	f003 5380 	and.w	r3, r3, #268435456	; 0x10000000
 800759e:	9300      	str	r3, [sp, #0]
 80075a0:	9b00      	ldr	r3, [sp, #0]
 80075a2:	9401      	str	r4, [sp, #4]
 80075a4:	6813      	ldr	r3, [r2, #0]
 80075a6:	f423 4340 	bic.w	r3, r3, #49152	; 0xc000
 80075aa:	f443 4300 	orr.w	r3, r3, #32768	; 0x8000
 80075ae:	6013      	str	r3, [r2, #0]
 80075b0:	6813      	ldr	r3, [r2, #0]
 80075b2:	f403 4340 	and.w	r3, r3, #49152	; 0xc000
 80075b6:	2502      	movs	r5, #2
 80075b8:	9301      	str	r3, [sp, #4]
 80075ba:	2601      	movs	r6, #1
 80075bc:	f44f 3180 	mov.w	r1, #65536	; 0x10000
 80075c0:	f44f 0280 	mov.w	r2, #4194304	; 0x400000
 80075c4:	2308      	movs	r3, #8
 80075c6:	9801      	ldr	r0, [sp, #4]
 80075c8:	e9cd 610c 	strd	r6, r1, [sp, #48]	; 0x30
 80075cc:	e9cd 5212 	strd	r5, r2, [sp, #72]	; 0x48
 80075d0:	21fa      	movs	r1, #250	; 0xfa
 80075d2:	2206      	movs	r2, #6
 80075d4:	a80c      	add	r0, sp, #48	; 0x30
 80075d6:	e9cd 3114 	strd	r3, r1, [sp, #80]	; 0x50
 80075da:	e9cd 2316 	strd	r2, r3, [sp, #88]	; 0x58
 80075de:	f7fc fc45 	bl	8003e6c <HAL_RCC_OscConfig>
 80075e2:	220f      	movs	r2, #15
 80075e4:	4629      	mov	r1, r5
 80075e6:	f44f 5380 	mov.w	r3, #4096	; 0x1000
 80075ea:	a802      	add	r0, sp, #8
 80075ec:	9202      	str	r2, [sp, #8]
 80075ee:	9305      	str	r3, [sp, #20]
 80075f0:	e9cd 5403 	strd	r5, r4, [sp, #12]
 80075f4:	9406      	str	r4, [sp, #24]
 80075f6:	f7fc fe4d 	bl	8004294 <HAL_RCC_ClockConfig>
 80075fa:	23c0      	movs	r3, #192	; 0xc0
 80075fc:	a807      	add	r0, sp, #28
 80075fe:	9607      	str	r6, [sp, #28]
 8007600:	e9cd 3508 	strd	r3, r5, [sp, #32]
 8007604:	f7fc fefa 	bl	80043fc <HAL_RCCEx_PeriphCLKConfig>
 8007608:	b018      	add	sp, #96	; 0x60
 800760a:	bd70      	pop	{r4, r5, r6, pc}
 800760c:	40023800 	.word	0x40023800
 8007610:	40007000 	.word	0x40007000
 8007614:	00000000 	.word	0x00000000

08007618 <main>:
 8007618:	e92d 4ff0 	stmdb	sp!, {r4, r5, r6, r7, r8, r9, sl, fp, lr}
 800761c:	2400      	movs	r4, #0
 800761e:	b099      	sub	sp, #100	; 0x64
 8007620:	f7f9 fc6a 	bl	8000ef8 <HAL_Init>
 8007624:	f7ff ffa0 	bl	8007568 <SystemClock_Config>
 8007628:	e9cd 4413 	strd	r4, r4, [sp, #76]	; 0x4c
 800762c:	4e98      	ldr	r6, [pc, #608]	; (8007890 <main+0x278>)
 800762e:	9402      	str	r4, [sp, #8]
 8007630:	6b33      	ldr	r3, [r6, #48]	; 0x30
 8007632:	4898      	ldr	r0, [pc, #608]	; (8007894 <main+0x27c>)
 8007634:	4f98      	ldr	r7, [pc, #608]	; (8007898 <main+0x280>)
 8007636:	4d99      	ldr	r5, [pc, #612]	; (800789c <main+0x284>)
 8007638:	f8df a290 	ldr.w	sl, [pc, #656]	; 80078cc <main+0x2b4>
 800763c:	f043 0380 	orr.w	r3, r3, #128	; 0x80
 8007640:	6333      	str	r3, [r6, #48]	; 0x30
 8007642:	6b33      	ldr	r3, [r6, #48]	; 0x30
 8007644:	f003 0380 	and.w	r3, r3, #128	; 0x80
 8007648:	9302      	str	r3, [sp, #8]
 800764a:	9b02      	ldr	r3, [sp, #8]
 800764c:	9403      	str	r4, [sp, #12]
 800764e:	6b33      	ldr	r3, [r6, #48]	; 0x30
 8007650:	f043 0304 	orr.w	r3, r3, #4
 8007654:	6333      	str	r3, [r6, #48]	; 0x30
 8007656:	6b33      	ldr	r3, [r6, #48]	; 0x30
 8007658:	f003 0304 	and.w	r3, r3, #4
 800765c:	9303      	str	r3, [sp, #12]
 800765e:	9b03      	ldr	r3, [sp, #12]
 8007660:	9404      	str	r4, [sp, #16]
 8007662:	6b33      	ldr	r3, [r6, #48]	; 0x30
 8007664:	f043 0302 	orr.w	r3, r3, #2
 8007668:	6333      	str	r3, [r6, #48]	; 0x30
 800766a:	6b33      	ldr	r3, [r6, #48]	; 0x30
 800766c:	f003 0302 	and.w	r3, r3, #2
 8007670:	9304      	str	r3, [sp, #16]
 8007672:	9b04      	ldr	r3, [sp, #16]
 8007674:	9405      	str	r4, [sp, #20]
 8007676:	6b33      	ldr	r3, [r6, #48]	; 0x30
 8007678:	f043 0301 	orr.w	r3, r3, #1
 800767c:	6333      	str	r3, [r6, #48]	; 0x30
 800767e:	6b33      	ldr	r3, [r6, #48]	; 0x30
 8007680:	f003 0301 	and.w	r3, r3, #1
 8007684:	9305      	str	r3, [sp, #20]
 8007686:	9b05      	ldr	r3, [sp, #20]
 8007688:	9406      	str	r4, [sp, #24]
 800768a:	6b33      	ldr	r3, [r6, #48]	; 0x30
 800768c:	f043 0308 	orr.w	r3, r3, #8
 8007690:	6333      	str	r3, [r6, #48]	; 0x30
 8007692:	6b33      	ldr	r3, [r6, #48]	; 0x30
 8007694:	f003 0308 	and.w	r3, r3, #8
 8007698:	9306      	str	r3, [sp, #24]
 800769a:	f04f 0980 	mov.w	r9, #128	; 0x80
 800769e:	2302      	movs	r3, #2
 80076a0:	f04f 0801 	mov.w	r8, #1
 80076a4:	a910      	add	r1, sp, #64	; 0x40
 80076a6:	9a06      	ldr	r2, [sp, #24]
 80076a8:	e9cd 9810 	strd	r9, r8, [sp, #64]	; 0x40
 80076ac:	9312      	str	r3, [sp, #72]	; 0x48
 80076ae:	f7f9 fedd 	bl	800146c <HAL_GPIO_Init>
 80076b2:	a910      	add	r1, sp, #64	; 0x40
 80076b4:	487a      	ldr	r0, [pc, #488]	; (80078a0 <main+0x288>)
 80076b6:	f8cd 8048 	str.w	r8, [sp, #72]	; 0x48
 80076ba:	e9cd 9410 	strd	r9, r4, [sp, #64]	; 0x40
 80076be:	f7f9 fed5 	bl	800146c <HAL_GPIO_Init>
 80076c2:	9401      	str	r4, [sp, #4]
 80076c4:	6b33      	ldr	r3, [r6, #48]	; 0x30
 80076c6:	f443 1300 	orr.w	r3, r3, #2097152	; 0x200000
 80076ca:	6333      	str	r3, [r6, #48]	; 0x30
 80076cc:	6b33      	ldr	r3, [r6, #48]	; 0x30
 80076ce:	f403 1300 	and.w	r3, r3, #2097152	; 0x200000
 80076d2:	4622      	mov	r2, r4
 80076d4:	4621      	mov	r1, r4
 80076d6:	9301      	str	r3, [sp, #4]
 80076d8:	200f      	movs	r0, #15
 80076da:	9b01      	ldr	r3, [sp, #4]
 80076dc:	f7f9 fc5c 	bl	8000f98 <HAL_NVIC_SetPriority>
 80076e0:	200f      	movs	r0, #15
 80076e2:	f7f9 fc8f 	bl	8001004 <HAL_NVIC_EnableIRQ>
 80076e6:	f000 fd1b 	bl	8008120 <MX_USB_DEVICE_Init>
 80076ea:	4b6e      	ldr	r3, [pc, #440]	; (80078a4 <main+0x28c>)
 80076ec:	496e      	ldr	r1, [pc, #440]	; (80078a8 <main+0x290>)
 80076ee:	609c      	str	r4, [r3, #8]
 80076f0:	f44f 4280 	mov.w	r2, #16384	; 0x4000
 80076f4:	f5a6 36f2 	sub.w	r6, r6, #123904	; 0x1e400
 80076f8:	4618      	mov	r0, r3
 80076fa:	e9c3 6100 	strd	r6, r1, [r3]
 80076fe:	60dc      	str	r4, [r3, #12]
 8007700:	e9c3 4405 	strd	r4, r4, [r3, #20]
 8007704:	e9c3 4407 	strd	r4, r4, [r3, #28]
 8007708:	611a      	str	r2, [r3, #16]
 800770a:	f7fa f971 	bl	80019f0 <HAL_I2C_Init>
 800770e:	4b67      	ldr	r3, [pc, #412]	; (80078ac <main+0x294>)
 8007710:	f64b 3180 	movw	r1, #48000	; 0xbb80
 8007714:	f44f 7200 	mov.w	r2, #512	; 0x200
 8007718:	4618      	mov	r0, r3
 800771a:	f5a6 56e0 	sub.w	r6, r6, #7168	; 0x1c00
 800771e:	6159      	str	r1, [r3, #20]
 8007720:	609c      	str	r4, [r3, #8]
 8007722:	60dc      	str	r4, [r3, #12]
 8007724:	e9c3 4406 	strd	r4, r4, [r3, #24]
 8007728:	621c      	str	r4, [r3, #32]
 800772a:	605a      	str	r2, [r3, #4]
 800772c:	611a      	str	r2, [r3, #16]
 800772e:	601e      	str	r6, [r3, #0]
 8007730:	f7fb fa84 	bl	8002c3c <HAL_I2S_Init>
 8007734:	4b5e      	ldr	r3, [pc, #376]	; (80078b0 <main+0x298>)
 8007736:	4a5f      	ldr	r2, [pc, #380]	; (80078b4 <main+0x29c>)
 8007738:	601a      	str	r2, [r3, #0]
 800773a:	e9c3 4401 	strd	r4, r4, [r3, #4]
 800773e:	e9c3 4403 	strd	r4, r4, [r3, #12]
 8007742:	e9c3 4405 	strd	r4, r4, [r3, #20]
 8007746:	f7ff fef5 	bl	8007534 <MX_FATFS_Init>
 800774a:	4621      	mov	r1, r4
 800774c:	2220      	movs	r2, #32
 800774e:	a810      	add	r0, sp, #64	; 0x40
 8007750:	9407      	str	r4, [sp, #28]
 8007752:	e9cd 4408 	strd	r4, r4, [sp, #32]
 8007756:	e9cd 440a 	strd	r4, r4, [sp, #40]	; 0x28
 800775a:	e9cd 440c 	strd	r4, r4, [sp, #48]	; 0x30
 800775e:	e9cd 440e 	strd	r4, r4, [sp, #56]	; 0x38
 8007762:	f000 ffa3 	bl	80086ac <memset>
 8007766:	4a54      	ldr	r2, [pc, #336]	; (80078b8 <main+0x2a0>)
 8007768:	603a      	str	r2, [r7, #0]
 800776a:	f64f 73fe 	movw	r3, #65534	; 0xfffe
 800776e:	4638      	mov	r0, r7
 8007770:	60fb      	str	r3, [r7, #12]
 8007772:	607c      	str	r4, [r7, #4]
 8007774:	60bc      	str	r4, [r7, #8]
 8007776:	e9c7 4404 	strd	r4, r4, [r7, #16]
 800777a:	61bc      	str	r4, [r7, #24]
 800777c:	f7fd fdac 	bl	80052d8 <HAL_TIM_PWM_Init>
 8007780:	a907      	add	r1, sp, #28
 8007782:	4638      	mov	r0, r7
 8007784:	e9cd 4407 	strd	r4, r4, [sp, #28]
 8007788:	f7fd fe8a 	bl	80054a0 <HAL_TIMEx_MasterConfigSynchronization>
 800778c:	4622      	mov	r2, r4
 800778e:	2360      	movs	r3, #96	; 0x60
 8007790:	a909      	add	r1, sp, #36	; 0x24
 8007792:	4638      	mov	r0, r7
 8007794:	e9cd 440a 	strd	r4, r4, [sp, #40]	; 0x28
 8007798:	e9cd 440c 	strd	r4, r4, [sp, #48]	; 0x30
 800779c:	e9cd 440e 	strd	r4, r4, [sp, #56]	; 0x38
 80077a0:	9309      	str	r3, [sp, #36]	; 0x24
 80077a2:	f7fd fde3 	bl	800536c <HAL_TIM_PWM_ConfigChannel>
 80077a6:	f44f 5300 	mov.w	r3, #8192	; 0x2000
 80077aa:	a910      	add	r1, sp, #64	; 0x40
 80077ac:	4638      	mov	r0, r7
 80077ae:	9315      	str	r3, [sp, #84]	; 0x54
 80077b0:	e9cd 4410 	strd	r4, r4, [sp, #64]	; 0x40
 80077b4:	e9cd 4412 	strd	r4, r4, [sp, #72]	; 0x48
 80077b8:	9414      	str	r4, [sp, #80]	; 0x50
 80077ba:	9417      	str	r4, [sp, #92]	; 0x5c
 80077bc:	f7fd feae 	bl	800551c <HAL_TIMEx_ConfigBreakDeadTime>
 80077c0:	4638      	mov	r0, r7
 80077c2:	f000 fb55 	bl	8007e70 <HAL_TIM_MspPostInit>
 80077c6:	4621      	mov	r1, r4
 80077c8:	4638      	mov	r0, r7
 80077ca:	f7fd fe67 	bl	800549c <HAL_TIMEx_PWMN_Start>
 80077ce:	f20f 09a0 	addw	r9, pc, #160	; 0xa0
 80077d2:	e9d9 8900 	ldrd	r8, r9, [r9]
 80077d6:	2464      	movs	r4, #100	; 0x64
 80077d8:	6828      	ldr	r0, [r5, #0]
 80077da:	f7f8 fe69 	bl	80004b0 <__aeabi_f2d>
 80077de:	4642      	mov	r2, r8
 80077e0:	464b      	mov	r3, r9
 80077e2:	f7f8 febd 	bl	8000560 <__aeabi_dmul>
 80077e6:	460f      	mov	r7, r1
 80077e8:	4606      	mov	r6, r0
 80077ea:	f000 fc3d 	bl	8008068 <getMagVal>
 80077ee:	f7f8 fe4d 	bl	800048c <__aeabi_i2d>
 80077f2:	a321      	add	r3, pc, #132	; (adr r3, 8007878 <main+0x260>)
 80077f4:	e9d3 2300 	ldrd	r2, r3, [r3]
 80077f8:	f7f8 feb2 	bl	8000560 <__aeabi_dmul>
 80077fc:	4632      	mov	r2, r6
 80077fe:	463b      	mov	r3, r7
 8007800:	f7f8 fcf8 	bl	80001f4 <__adddf3>
 8007804:	f7f9 f984 	bl	8000b10 <__aeabi_d2f>
 8007808:	6028      	str	r0, [r5, #0]
 800780a:	f8da 0000 	ldr.w	r0, [sl]
 800780e:	f7f8 fe4f 	bl	80004b0 <__aeabi_f2d>
 8007812:	a31b      	add	r3, pc, #108	; (adr r3, 8007880 <main+0x268>)
 8007814:	e9d3 2300 	ldrd	r2, r3, [r3]
 8007818:	f7f8 fea2 	bl	8000560 <__aeabi_dmul>
 800781c:	460f      	mov	r7, r1
 800781e:	4606      	mov	r6, r0
 8007820:	f000 fc22 	bl	8008068 <getMagVal>
 8007824:	f7f8 fe32 	bl	800048c <__aeabi_i2d>
 8007828:	a317      	add	r3, pc, #92	; (adr r3, 8007888 <main+0x270>)
 800782a:	e9d3 2300 	ldrd	r2, r3, [r3]
 800782e:	f7f8 fe97 	bl	8000560 <__aeabi_dmul>
 8007832:	4632      	mov	r2, r6
 8007834:	463b      	mov	r3, r7
 8007836:	f7f8 fcdd 	bl	80001f4 <__adddf3>
 800783a:	f7f9 f969 	bl	8000b10 <__aeabi_d2f>
 800783e:	3c01      	subs	r4, #1
 8007840:	f8ca 0000 	str.w	r0, [sl]
 8007844:	d1c8      	bne.n	80077d8 <main+0x1c0>
 8007846:	ed95 7a00 	vldr	s14, [r5]
 800784a:	f8df b084 	ldr.w	fp, [pc, #132]	; 80078d0 <main+0x2b8>
 800784e:	481b      	ldr	r0, [pc, #108]	; (80078bc <main+0x2a4>)
 8007850:	4c1b      	ldr	r4, [pc, #108]	; (80078c0 <main+0x2a8>)
 8007852:	4e1c      	ldr	r6, [pc, #112]	; (80078c4 <main+0x2ac>)
 8007854:	4f1c      	ldr	r7, [pc, #112]	; (80078c8 <main+0x2b0>)
 8007856:	eef2 7a0a 	vmov.f32	s15, #42	; 0x41500000  13.0
 800785a:	eeb4 7ae7 	vcmpe.f32	s14, s15
 800785e:	eef1 fa10 	vmrs	APSR_nzcv, fpscr
 8007862:	bf44      	itt	mi
 8007864:	2301      	movmi	r3, #1
 8007866:	f8cb 3000 	strmi.w	r3, [fp]
 800786a:	f001 fb75 	bl	8008f58 <puts>
 800786e:	e06d      	b.n	800794c <main+0x334>
 8007870:	3d70a3d7 	.word	0x3d70a3d7
 8007874:	3fefd70a 	.word	0x3fefd70a
 8007878:	47ae147b 	.word	0x47ae147b
 800787c:	3f747ae1 	.word	0x3f747ae1
 8007880:	66666666 	.word	0x66666666
 8007884:	3fe66666 	.word	0x3fe66666
 8007888:	33333333 	.word	0x33333333
 800788c:	3fd33333 	.word	0x3fd33333
 8007890:	40023800 	.word	0x40023800
 8007894:	40020000 	.word	0x40020000
 8007898:	20000898 	.word	0x20000898
 800789c:	20000394 	.word	0x20000394
 80078a0:	40020800 	.word	0x40020800
 80078a4:	20000838 	.word	0x20000838
 80078a8:	000186a0 	.word	0x000186a0
 80078ac:	200009bc 	.word	0x200009bc
 80078b0:	200008d8 	.word	0x200008d8
 80078b4:	40012c00 	.word	0x40012c00
 80078b8:	40010000 	.word	0x40010000
 80078bc:	0800a910 	.word	0x0800a910
 80078c0:	20000890 	.word	0x20000890
 80078c4:	20000120 	.word	0x20000120
 80078c8:	2000011c 	.word	0x2000011c
 80078cc:	20000398 	.word	0x20000398
 80078d0:	200003a4 	.word	0x200003a4
 80078d4:	6831      	ldr	r1, [r6, #0]
 80078d6:	2301      	movs	r3, #1
 80078d8:	4299      	cmp	r1, r3
 80078da:	f8cb 3000 	str.w	r3, [fp]
 80078de:	f000 80b0 	beq.w	8007a42 <main+0x42a>
 80078e2:	f04f 0800 	mov.w	r8, #0
 80078e6:	2313      	movs	r3, #19
 80078e8:	2208      	movs	r2, #8
 80078ea:	4965      	ldr	r1, [pc, #404]	; (8007a80 <main+0x468>)
 80078ec:	4865      	ldr	r0, [pc, #404]	; (8007a84 <main+0x46c>)
 80078ee:	70a3      	strb	r3, [r4, #2]
 80078f0:	f884 8000 	strb.w	r8, [r4]
 80078f4:	f884 8001 	strb.w	r8, [r4, #1]
 80078f8:	f7ff f8fc 	bl	8006af4 <USBD_HID_SendReport>
 80078fc:	2014      	movs	r0, #20
 80078fe:	f7f9 fb27 	bl	8000f50 <HAL_Delay>
 8007902:	2208      	movs	r2, #8
 8007904:	495e      	ldr	r1, [pc, #376]	; (8007a80 <main+0x468>)
 8007906:	485f      	ldr	r0, [pc, #380]	; (8007a84 <main+0x46c>)
 8007908:	f884 8000 	strb.w	r8, [r4]
 800790c:	f884 8001 	strb.w	r8, [r4, #1]
 8007910:	f884 8002 	strb.w	r8, [r4, #2]
 8007914:	f7ff f8ee 	bl	8006af4 <USBD_HID_SendReport>
 8007918:	683b      	ldr	r3, [r7, #0]
 800791a:	f8db 1000 	ldr.w	r1, [fp]
 800791e:	f44f 72fa 	mov.w	r2, #500	; 0x1f4
 8007922:	fb92 f2f3 	sdiv	r2, r2, r3
 8007926:	fb03 f302 	mul.w	r3, r3, r2
 800792a:	4a57      	ldr	r2, [pc, #348]	; (8007a88 <main+0x470>)
 800792c:	6013      	str	r3, [r2, #0]
 800792e:	4857      	ldr	r0, [pc, #348]	; (8007a8c <main+0x474>)
 8007930:	6031      	str	r1, [r6, #0]
 8007932:	6802      	ldr	r2, [r0, #0]
 8007934:	429a      	cmp	r2, r3
 8007936:	d006      	beq.n	8007946 <main+0x32e>
 8007938:	683b      	ldr	r3, [r7, #0]
 800793a:	f280 8085 	bge.w	8007a48 <main+0x430>
 800793e:	441a      	add	r2, r3
 8007940:	6002      	str	r2, [r0, #0]
 8007942:	4b53      	ldr	r3, [pc, #332]	; (8007a90 <main+0x478>)
 8007944:	635a      	str	r2, [r3, #52]	; 0x34
 8007946:	2001      	movs	r0, #1
 8007948:	f7f9 fb02 	bl	8000f50 <HAL_Delay>
 800794c:	6828      	ldr	r0, [r5, #0]
 800794e:	f7f8 fdaf 	bl	80004b0 <__aeabi_f2d>
 8007952:	a343      	add	r3, pc, #268	; (adr r3, 8007a60 <main+0x448>)
 8007954:	e9d3 2300 	ldrd	r2, r3, [r3]
 8007958:	f7f8 fe02 	bl	8000560 <__aeabi_dmul>
 800795c:	4689      	mov	r9, r1
 800795e:	4680      	mov	r8, r0
 8007960:	f000 fb82 	bl	8008068 <getMagVal>
 8007964:	f7f8 fd92 	bl	800048c <__aeabi_i2d>
 8007968:	a33f      	add	r3, pc, #252	; (adr r3, 8007a68 <main+0x450>)
 800796a:	e9d3 2300 	ldrd	r2, r3, [r3]
 800796e:	f7f8 fdf7 	bl	8000560 <__aeabi_dmul>
 8007972:	4642      	mov	r2, r8
 8007974:	464b      	mov	r3, r9
 8007976:	f7f8 fc3d 	bl	80001f4 <__adddf3>
 800797a:	f7f9 f8c9 	bl	8000b10 <__aeabi_d2f>
 800797e:	6028      	str	r0, [r5, #0]
 8007980:	f8da 0000 	ldr.w	r0, [sl]
 8007984:	f7f8 fd94 	bl	80004b0 <__aeabi_f2d>
 8007988:	a339      	add	r3, pc, #228	; (adr r3, 8007a70 <main+0x458>)
 800798a:	e9d3 2300 	ldrd	r2, r3, [r3]
 800798e:	f7f8 fde7 	bl	8000560 <__aeabi_dmul>
 8007992:	4689      	mov	r9, r1
 8007994:	4680      	mov	r8, r0
 8007996:	f000 fb67 	bl	8008068 <getMagVal>
 800799a:	f7f8 fd77 	bl	800048c <__aeabi_i2d>
 800799e:	a336      	add	r3, pc, #216	; (adr r3, 8007a78 <main+0x460>)
 80079a0:	e9d3 2300 	ldrd	r2, r3, [r3]
 80079a4:	f7f8 fddc 	bl	8000560 <__aeabi_dmul>
 80079a8:	464b      	mov	r3, r9
 80079aa:	4642      	mov	r2, r8
 80079ac:	f7f8 fc22 	bl	80001f4 <__adddf3>
 80079b0:	f7f9 f8ae 	bl	8000b10 <__aeabi_d2f>
 80079b4:	ed95 7a00 	vldr	s14, [r5]
 80079b8:	4b36      	ldr	r3, [pc, #216]	; (8007a94 <main+0x47c>)
 80079ba:	f8ca 0000 	str.w	r0, [sl]
 80079be:	ee07 0a90 	vmov	s15, r0
 80079c2:	ee77 7a67 	vsub.f32	s15, s14, s15
 80079c6:	eeb1 7a00 	vmov.f32	s14, #16	; 0x40800000  4.0
 80079ca:	eef4 7ac7 	vcmpe.f32	s15, s14
 80079ce:	eef1 fa10 	vmrs	APSR_nzcv, fpscr
 80079d2:	edc3 7a00 	vstr	s15, [r3]
 80079d6:	f73f af7d 	bgt.w	80078d4 <main+0x2bc>
 80079da:	eeb9 7a00 	vmov.f32	s14, #144	; 0xc0800000 -4.0
 80079de:	eef4 7ac7 	vcmpe.f32	s15, s14
 80079e2:	eef1 fa10 	vmrs	APSR_nzcv, fpscr
 80079e6:	6831      	ldr	r1, [r6, #0]
 80079e8:	d532      	bpl.n	8007a50 <main+0x438>
 80079ea:	2300      	movs	r3, #0
 80079ec:	f8cb 3000 	str.w	r3, [fp]
 80079f0:	b339      	cbz	r1, 8007a42 <main+0x42a>
 80079f2:	f04f 0800 	mov.w	r8, #0
 80079f6:	2316      	movs	r3, #22
 80079f8:	2208      	movs	r2, #8
 80079fa:	4921      	ldr	r1, [pc, #132]	; (8007a80 <main+0x468>)
 80079fc:	4821      	ldr	r0, [pc, #132]	; (8007a84 <main+0x46c>)
 80079fe:	70a3      	strb	r3, [r4, #2]
 8007a00:	f884 8000 	strb.w	r8, [r4]
 8007a04:	f884 8001 	strb.w	r8, [r4, #1]
 8007a08:	f7ff f874 	bl	8006af4 <USBD_HID_SendReport>
 8007a0c:	2014      	movs	r0, #20
 8007a0e:	f7f9 fa9f 	bl	8000f50 <HAL_Delay>
 8007a12:	2208      	movs	r2, #8
 8007a14:	491a      	ldr	r1, [pc, #104]	; (8007a80 <main+0x468>)
 8007a16:	481b      	ldr	r0, [pc, #108]	; (8007a84 <main+0x46c>)
 8007a18:	f884 8000 	strb.w	r8, [r4]
 8007a1c:	f884 8001 	strb.w	r8, [r4, #1]
 8007a20:	f884 8002 	strb.w	r8, [r4, #2]
 8007a24:	f7ff f866 	bl	8006af4 <USBD_HID_SendReport>
 8007a28:	6838      	ldr	r0, [r7, #0]
 8007a2a:	f8db 1000 	ldr.w	r1, [fp]
 8007a2e:	f64f 73fd 	movw	r3, #65533	; 0xfffd
 8007a32:	fb93 f2f0 	sdiv	r2, r3, r0
 8007a36:	fb00 3212 	mls	r2, r0, r2, r3
 8007a3a:	1a9b      	subs	r3, r3, r2
 8007a3c:	4a12      	ldr	r2, [pc, #72]	; (8007a88 <main+0x470>)
 8007a3e:	6013      	str	r3, [r2, #0]
 8007a40:	e775      	b.n	800792e <main+0x316>
 8007a42:	4b11      	ldr	r3, [pc, #68]	; (8007a88 <main+0x470>)
 8007a44:	681b      	ldr	r3, [r3, #0]
 8007a46:	e772      	b.n	800792e <main+0x316>
 8007a48:	1ad2      	subs	r2, r2, r3
 8007a4a:	4b10      	ldr	r3, [pc, #64]	; (8007a8c <main+0x474>)
 8007a4c:	601a      	str	r2, [r3, #0]
 8007a4e:	e778      	b.n	8007942 <main+0x32a>
 8007a50:	f8db 3000 	ldr.w	r3, [fp]
 8007a54:	428b      	cmp	r3, r1
 8007a56:	d0f4      	beq.n	8007a42 <main+0x42a>
 8007a58:	2b00      	cmp	r3, #0
 8007a5a:	d0ca      	beq.n	80079f2 <main+0x3da>
 8007a5c:	e741      	b.n	80078e2 <main+0x2ca>
 8007a5e:	bf00      	nop
 8007a60:	c8b43958 	.word	0xc8b43958
 8007a64:	3fefbe76 	.word	0x3fefbe76
 8007a68:	d2f1a9fc 	.word	0xd2f1a9fc
 8007a6c:	3f80624d 	.word	0x3f80624d
 8007a70:	66666666 	.word	0x66666666
 8007a74:	3fee6666 	.word	0x3fee6666
 8007a78:	9999999a 	.word	0x9999999a
 8007a7c:	3fa99999 	.word	0x3fa99999
 8007a80:	20000890 	.word	0x20000890
 8007a84:	20000a0c 	.word	0x20000a0c
 8007a88:	2000088c 	.word	0x2000088c
 8007a8c:	200003a0 	.word	0x200003a0
 8007a90:	40010000 	.word	0x40010000
 8007a94:	2000039c 	.word	0x2000039c

08007a98 <HAL_I2S_TxCpltCallback>:
 8007a98:	6802      	ldr	r2, [r0, #0]
 8007a9a:	4b03      	ldr	r3, [pc, #12]	; (8007aa8 <HAL_I2S_TxCpltCallback+0x10>)
 8007a9c:	429a      	cmp	r2, r3
 8007a9e:	d000      	beq.n	8007aa2 <HAL_I2S_TxCpltCallback+0xa>
 8007aa0:	4770      	bx	lr
 8007aa2:	f7ff bce9 	b.w	8007478 <AudioPlay_TransferComplete_CallBack>
 8007aa6:	bf00      	nop
 8007aa8:	40003800 	.word	0x40003800

08007aac <HAL_I2S_TxHalfCpltCallback>:
 8007aac:	6802      	ldr	r2, [r0, #0]
 8007aae:	4b03      	ldr	r3, [pc, #12]	; (8007abc <HAL_I2S_TxHalfCpltCallback+0x10>)
 8007ab0:	429a      	cmp	r2, r3
 8007ab2:	d000      	beq.n	8007ab6 <HAL_I2S_TxHalfCpltCallback+0xa>
 8007ab4:	4770      	bx	lr
 8007ab6:	f7ff bcdd 	b.w	8007474 <AudioPlay_HalfTransfer_CallBack>
 8007aba:	bf00      	nop
 8007abc:	40003800 	.word	0x40003800

08007ac0 <Error_Handler>:
 8007ac0:	4770      	bx	lr
 8007ac2:	bf00      	nop

08007ac4 <SD_initialize>:
 8007ac4:	b538      	push	{r3, r4, r5, lr}
 8007ac6:	4c0a      	ldr	r4, [pc, #40]	; (8007af0 <SD_initialize+0x2c>)
 8007ac8:	2501      	movs	r5, #1
 8007aca:	7025      	strb	r5, [r4, #0]
 8007acc:	f7ff fd1a 	bl	8007504 <BSP_SD_Init>
 8007ad0:	b108      	cbz	r0, 8007ad6 <SD_initialize+0x12>
 8007ad2:	7820      	ldrb	r0, [r4, #0]
 8007ad4:	bd38      	pop	{r3, r4, r5, pc}
 8007ad6:	7025      	strb	r5, [r4, #0]
 8007ad8:	f7ff fcf4 	bl	80074c4 <BSP_SD_GetCardState>
 8007adc:	b918      	cbnz	r0, 8007ae6 <SD_initialize+0x22>
 8007ade:	7823      	ldrb	r3, [r4, #0]
 8007ae0:	f003 03fe 	and.w	r3, r3, #254	; 0xfe
 8007ae4:	7023      	strb	r3, [r4, #0]
 8007ae6:	7823      	ldrb	r3, [r4, #0]
 8007ae8:	b2db      	uxtb	r3, r3
 8007aea:	7023      	strb	r3, [r4, #0]
 8007aec:	7820      	ldrb	r0, [r4, #0]
 8007aee:	bd38      	pop	{r3, r4, r5, pc}
 8007af0:	20000124 	.word	0x20000124

08007af4 <SD_status>:
 8007af4:	b510      	push	{r4, lr}
 8007af6:	4c06      	ldr	r4, [pc, #24]	; (8007b10 <SD_status+0x1c>)
 8007af8:	2301      	movs	r3, #1
 8007afa:	7023      	strb	r3, [r4, #0]
 8007afc:	f7ff fce2 	bl	80074c4 <BSP_SD_GetCardState>
 8007b00:	b918      	cbnz	r0, 8007b0a <SD_status+0x16>
 8007b02:	7823      	ldrb	r3, [r4, #0]
 8007b04:	f003 03fe 	and.w	r3, r3, #254	; 0xfe
 8007b08:	7023      	strb	r3, [r4, #0]
 8007b0a:	7820      	ldrb	r0, [r4, #0]
 8007b0c:	bd10      	pop	{r4, pc}
 8007b0e:	bf00      	nop
 8007b10:	20000124 	.word	0x20000124

08007b14 <SD_read>:
 8007b14:	b508      	push	{r3, lr}
 8007b16:	4608      	mov	r0, r1
 8007b18:	4611      	mov	r1, r2
 8007b1a:	461a      	mov	r2, r3
 8007b1c:	f04f 33ff 	mov.w	r3, #4294967295
 8007b20:	f7ff fcac 	bl	800747c <BSP_SD_ReadBlocks>
 8007b24:	b920      	cbnz	r0, 8007b30 <SD_read+0x1c>
 8007b26:	f7ff fccd 	bl	80074c4 <BSP_SD_GetCardState>
 8007b2a:	2800      	cmp	r0, #0
 8007b2c:	d1fb      	bne.n	8007b26 <SD_read+0x12>
 8007b2e:	bd08      	pop	{r3, pc}
 8007b30:	2001      	movs	r0, #1
 8007b32:	bd08      	pop	{r3, pc}

08007b34 <SD_ioctl>:
 8007b34:	4b16      	ldr	r3, [pc, #88]	; (8007b90 <SD_ioctl+0x5c>)
 8007b36:	781b      	ldrb	r3, [r3, #0]
 8007b38:	07db      	lsls	r3, r3, #31
 8007b3a:	d408      	bmi.n	8007b4e <SD_ioctl+0x1a>
 8007b3c:	b510      	push	{r4, lr}
 8007b3e:	4614      	mov	r4, r2
 8007b40:	b088      	sub	sp, #32
 8007b42:	2903      	cmp	r1, #3
 8007b44:	d821      	bhi.n	8007b8a <SD_ioctl+0x56>
 8007b46:	e8df f001 	tbb	[pc, r1]
 8007b4a:	0704      	.short	0x0704
 8007b4c:	170f      	.short	0x170f
 8007b4e:	2003      	movs	r0, #3
 8007b50:	4770      	bx	lr
 8007b52:	2000      	movs	r0, #0
 8007b54:	b008      	add	sp, #32
 8007b56:	bd10      	pop	{r4, pc}
 8007b58:	4668      	mov	r0, sp
 8007b5a:	f7ff fcbd 	bl	80074d8 <BSP_SD_GetCardInfo>
 8007b5e:	9b06      	ldr	r3, [sp, #24]
 8007b60:	6023      	str	r3, [r4, #0]
 8007b62:	2000      	movs	r0, #0
 8007b64:	b008      	add	sp, #32
 8007b66:	bd10      	pop	{r4, pc}
 8007b68:	4668      	mov	r0, sp
 8007b6a:	f7ff fcb5 	bl	80074d8 <BSP_SD_GetCardInfo>
 8007b6e:	9b07      	ldr	r3, [sp, #28]
 8007b70:	8023      	strh	r3, [r4, #0]
 8007b72:	2000      	movs	r0, #0
 8007b74:	b008      	add	sp, #32
 8007b76:	bd10      	pop	{r4, pc}
 8007b78:	4668      	mov	r0, sp
 8007b7a:	f7ff fcad 	bl	80074d8 <BSP_SD_GetCardInfo>
 8007b7e:	9b07      	ldr	r3, [sp, #28]
 8007b80:	2000      	movs	r0, #0
 8007b82:	0a5b      	lsrs	r3, r3, #9
 8007b84:	6023      	str	r3, [r4, #0]
 8007b86:	b008      	add	sp, #32
 8007b88:	bd10      	pop	{r4, pc}
 8007b8a:	2004      	movs	r0, #4
 8007b8c:	b008      	add	sp, #32
 8007b8e:	bd10      	pop	{r4, pc}
 8007b90:	20000124 	.word	0x20000124

08007b94 <SD_write>:
 8007b94:	b508      	push	{r3, lr}
 8007b96:	4608      	mov	r0, r1
 8007b98:	4611      	mov	r1, r2
 8007b9a:	461a      	mov	r2, r3
 8007b9c:	f04f 33ff 	mov.w	r3, #4294967295
 8007ba0:	f7ff fc7e 	bl	80074a0 <BSP_SD_WriteBlocks>
 8007ba4:	b920      	cbnz	r0, 8007bb0 <SD_write+0x1c>
 8007ba6:	f7ff fc8d 	bl	80074c4 <BSP_SD_GetCardState>
 8007baa:	2800      	cmp	r0, #0
 8007bac:	d1fb      	bne.n	8007ba6 <SD_write+0x12>
 8007bae:	bd08      	pop	{r3, pc}
 8007bb0:	2001      	movs	r0, #1
 8007bb2:	bd08      	pop	{r3, pc}

08007bb4 <HAL_MspInit>:
 8007bb4:	b082      	sub	sp, #8
 8007bb6:	4b0c      	ldr	r3, [pc, #48]	; (8007be8 <HAL_MspInit+0x34>)
 8007bb8:	2100      	movs	r1, #0
 8007bba:	9100      	str	r1, [sp, #0]
 8007bbc:	6c5a      	ldr	r2, [r3, #68]	; 0x44
 8007bbe:	f442 4280 	orr.w	r2, r2, #16384	; 0x4000
 8007bc2:	645a      	str	r2, [r3, #68]	; 0x44
 8007bc4:	6c5a      	ldr	r2, [r3, #68]	; 0x44
 8007bc6:	f402 4280 	and.w	r2, r2, #16384	; 0x4000
 8007bca:	9200      	str	r2, [sp, #0]
 8007bcc:	9a00      	ldr	r2, [sp, #0]
 8007bce:	9101      	str	r1, [sp, #4]
 8007bd0:	6c1a      	ldr	r2, [r3, #64]	; 0x40
 8007bd2:	f042 5280 	orr.w	r2, r2, #268435456	; 0x10000000
 8007bd6:	641a      	str	r2, [r3, #64]	; 0x40
 8007bd8:	6c1b      	ldr	r3, [r3, #64]	; 0x40
 8007bda:	f003 5380 	and.w	r3, r3, #268435456	; 0x10000000
 8007bde:	9301      	str	r3, [sp, #4]
 8007be0:	9b01      	ldr	r3, [sp, #4]
 8007be2:	b002      	add	sp, #8
 8007be4:	4770      	bx	lr
 8007be6:	bf00      	nop
 8007be8:	40023800 	.word	0x40023800

08007bec <HAL_I2C_MspInit>:
 8007bec:	b570      	push	{r4, r5, r6, lr}
 8007bee:	6802      	ldr	r2, [r0, #0]
 8007bf0:	4b1b      	ldr	r3, [pc, #108]	; (8007c60 <HAL_I2C_MspInit+0x74>)
 8007bf2:	b088      	sub	sp, #32
 8007bf4:	2400      	movs	r4, #0
 8007bf6:	429a      	cmp	r2, r3
 8007bf8:	e9cd 4403 	strd	r4, r4, [sp, #12]
 8007bfc:	e9cd 4405 	strd	r4, r4, [sp, #20]
 8007c00:	9407      	str	r4, [sp, #28]
 8007c02:	d001      	beq.n	8007c08 <HAL_I2C_MspInit+0x1c>
 8007c04:	b008      	add	sp, #32
 8007c06:	bd70      	pop	{r4, r5, r6, pc}
 8007c08:	4d16      	ldr	r5, [pc, #88]	; (8007c64 <HAL_I2C_MspInit+0x78>)
 8007c0a:	9401      	str	r4, [sp, #4]
 8007c0c:	6b2b      	ldr	r3, [r5, #48]	; 0x30
 8007c0e:	4816      	ldr	r0, [pc, #88]	; (8007c68 <HAL_I2C_MspInit+0x7c>)
 8007c10:	f043 0302 	orr.w	r3, r3, #2
 8007c14:	632b      	str	r3, [r5, #48]	; 0x30
 8007c16:	6b2b      	ldr	r3, [r5, #48]	; 0x30
 8007c18:	f003 0302 	and.w	r3, r3, #2
 8007c1c:	9301      	str	r3, [sp, #4]
 8007c1e:	22c0      	movs	r2, #192	; 0xc0
 8007c20:	2312      	movs	r3, #18
 8007c22:	a903      	add	r1, sp, #12
 8007c24:	9203      	str	r2, [sp, #12]
 8007c26:	9304      	str	r3, [sp, #16]
 8007c28:	2201      	movs	r2, #1
 8007c2a:	2304      	movs	r3, #4
 8007c2c:	9205      	str	r2, [sp, #20]
 8007c2e:	9307      	str	r3, [sp, #28]
 8007c30:	9e01      	ldr	r6, [sp, #4]
 8007c32:	f7f9 fc1b 	bl	800146c <HAL_GPIO_Init>
 8007c36:	9402      	str	r4, [sp, #8]
 8007c38:	6c2b      	ldr	r3, [r5, #64]	; 0x40
 8007c3a:	f443 1300 	orr.w	r3, r3, #2097152	; 0x200000
 8007c3e:	642b      	str	r3, [r5, #64]	; 0x40
 8007c40:	6c2b      	ldr	r3, [r5, #64]	; 0x40
 8007c42:	f403 1300 	and.w	r3, r3, #2097152	; 0x200000
 8007c46:	9302      	str	r3, [sp, #8]
 8007c48:	4622      	mov	r2, r4
 8007c4a:	4621      	mov	r1, r4
 8007c4c:	201f      	movs	r0, #31
 8007c4e:	9b02      	ldr	r3, [sp, #8]
 8007c50:	f7f9 f9a2 	bl	8000f98 <HAL_NVIC_SetPriority>
 8007c54:	201f      	movs	r0, #31
 8007c56:	f7f9 f9d5 	bl	8001004 <HAL_NVIC_EnableIRQ>
 8007c5a:	b008      	add	sp, #32
 8007c5c:	bd70      	pop	{r4, r5, r6, pc}
 8007c5e:	bf00      	nop
 8007c60:	40005400 	.word	0x40005400
 8007c64:	40023800 	.word	0x40023800
 8007c68:	40020400 	.word	0x40020400

08007c6c <HAL_I2S_MspInit>:
 8007c6c:	e92d 43f0 	stmdb	sp!, {r4, r5, r6, r7, r8, r9, lr}
 8007c70:	6802      	ldr	r2, [r0, #0]
 8007c72:	4b42      	ldr	r3, [pc, #264]	; (8007d7c <HAL_I2S_MspInit+0x110>)
 8007c74:	b089      	sub	sp, #36	; 0x24
 8007c76:	2400      	movs	r4, #0
 8007c78:	429a      	cmp	r2, r3
 8007c7a:	e9cd 4403 	strd	r4, r4, [sp, #12]
 8007c7e:	e9cd 4405 	strd	r4, r4, [sp, #20]
 8007c82:	9407      	str	r4, [sp, #28]
 8007c84:	d002      	beq.n	8007c8c <HAL_I2S_MspInit+0x20>
 8007c86:	b009      	add	sp, #36	; 0x24
 8007c88:	e8bd 83f0 	ldmia.w	sp!, {r4, r5, r6, r7, r8, r9, pc}
 8007c8c:	f503 3300 	add.w	r3, r3, #131072	; 0x20000
 8007c90:	9400      	str	r4, [sp, #0]
 8007c92:	6c1a      	ldr	r2, [r3, #64]	; 0x40
 8007c94:	4d3a      	ldr	r5, [pc, #232]	; (8007d80 <HAL_I2S_MspInit+0x114>)
 8007c96:	f442 4280 	orr.w	r2, r2, #16384	; 0x4000
 8007c9a:	641a      	str	r2, [r3, #64]	; 0x40
 8007c9c:	6c1a      	ldr	r2, [r3, #64]	; 0x40
 8007c9e:	f402 4280 	and.w	r2, r2, #16384	; 0x4000
 8007ca2:	9200      	str	r2, [sp, #0]
 8007ca4:	9a00      	ldr	r2, [sp, #0]
 8007ca6:	9401      	str	r4, [sp, #4]
 8007ca8:	6b1a      	ldr	r2, [r3, #48]	; 0x30
 8007caa:	f042 0204 	orr.w	r2, r2, #4
 8007cae:	631a      	str	r2, [r3, #48]	; 0x30
 8007cb0:	6b1a      	ldr	r2, [r3, #48]	; 0x30
 8007cb2:	f002 0204 	and.w	r2, r2, #4
 8007cb6:	9201      	str	r2, [sp, #4]
 8007cb8:	9a01      	ldr	r2, [sp, #4]
 8007cba:	9402      	str	r4, [sp, #8]
 8007cbc:	6b1a      	ldr	r2, [r3, #48]	; 0x30
 8007cbe:	f042 0202 	orr.w	r2, r2, #2
 8007cc2:	631a      	str	r2, [r3, #48]	; 0x30
 8007cc4:	6b1b      	ldr	r3, [r3, #48]	; 0x30
 8007cc6:	f003 0302 	and.w	r3, r3, #2
 8007cca:	2705      	movs	r7, #5
 8007ccc:	9302      	str	r3, [sp, #8]
 8007cce:	f04f 0802 	mov.w	r8, #2
 8007cd2:	2308      	movs	r3, #8
 8007cd4:	a903      	add	r1, sp, #12
 8007cd6:	4606      	mov	r6, r0
 8007cd8:	482a      	ldr	r0, [pc, #168]	; (8007d84 <HAL_I2S_MspInit+0x118>)
 8007cda:	9a02      	ldr	r2, [sp, #8]
 8007cdc:	9303      	str	r3, [sp, #12]
 8007cde:	9707      	str	r7, [sp, #28]
 8007ce0:	f8cd 8010 	str.w	r8, [sp, #16]
 8007ce4:	f7f9 fbc2 	bl	800146c <HAL_GPIO_Init>
 8007ce8:	f44f 53a0 	mov.w	r3, #5120	; 0x1400
 8007cec:	a903      	add	r1, sp, #12
 8007cee:	4826      	ldr	r0, [pc, #152]	; (8007d88 <HAL_I2S_MspInit+0x11c>)
 8007cf0:	9707      	str	r7, [sp, #28]
 8007cf2:	9303      	str	r3, [sp, #12]
 8007cf4:	f04f 0940 	mov.w	r9, #64	; 0x40
 8007cf8:	f8cd 8010 	str.w	r8, [sp, #16]
 8007cfc:	e9cd 4405 	strd	r4, r4, [sp, #20]
 8007d00:	f7f9 fbb4 	bl	800146c <HAL_GPIO_Init>
 8007d04:	2301      	movs	r3, #1
 8007d06:	a903      	add	r1, sp, #12
 8007d08:	481e      	ldr	r0, [pc, #120]	; (8007d84 <HAL_I2S_MspInit+0x118>)
 8007d0a:	9707      	str	r7, [sp, #28]
 8007d0c:	9306      	str	r3, [sp, #24]
 8007d0e:	f8cd 8010 	str.w	r8, [sp, #16]
 8007d12:	9405      	str	r4, [sp, #20]
 8007d14:	f8cd 900c 	str.w	r9, [sp, #12]
 8007d18:	f7f9 fba8 	bl	800146c <HAL_GPIO_Init>
 8007d1c:	4a1b      	ldr	r2, [pc, #108]	; (8007d8c <HAL_I2S_MspInit+0x120>)
 8007d1e:	602a      	str	r2, [r5, #0]
 8007d20:	f44f 6380 	mov.w	r3, #1024	; 0x400
 8007d24:	f44f 6000 	mov.w	r0, #2048	; 0x800
 8007d28:	f44f 5c00 	mov.w	ip, #8192	; 0x2000
 8007d2c:	f44f 3780 	mov.w	r7, #65536	; 0x10000
 8007d30:	2104      	movs	r1, #4
 8007d32:	2203      	movs	r2, #3
 8007d34:	612b      	str	r3, [r5, #16]
 8007d36:	6168      	str	r0, [r5, #20]
 8007d38:	f04f 7380 	mov.w	r3, #16777216	; 0x1000000
 8007d3c:	4628      	mov	r0, r5
 8007d3e:	f8c5 9008 	str.w	r9, [r5, #8]
 8007d42:	606c      	str	r4, [r5, #4]
 8007d44:	60ec      	str	r4, [r5, #12]
 8007d46:	61ec      	str	r4, [r5, #28]
 8007d48:	632c      	str	r4, [r5, #48]	; 0x30
 8007d4a:	f8c5 c018 	str.w	ip, [r5, #24]
 8007d4e:	e9c5 7108 	strd	r7, r1, [r5, #32]
 8007d52:	e9c5 230a 	strd	r2, r3, [r5, #40]	; 0x28
 8007d56:	f7f9 f97d 	bl	8001054 <HAL_DMA_Init>
 8007d5a:	b960      	cbnz	r0, 8007d76 <HAL_I2S_MspInit+0x10a>
 8007d5c:	2200      	movs	r2, #0
 8007d5e:	63b5      	str	r5, [r6, #56]	; 0x38
 8007d60:	4611      	mov	r1, r2
 8007d62:	2024      	movs	r0, #36	; 0x24
 8007d64:	63ae      	str	r6, [r5, #56]	; 0x38
 8007d66:	f7f9 f917 	bl	8000f98 <HAL_NVIC_SetPriority>
 8007d6a:	2024      	movs	r0, #36	; 0x24
 8007d6c:	f7f9 f94a 	bl	8001004 <HAL_NVIC_EnableIRQ>
 8007d70:	b009      	add	sp, #36	; 0x24
 8007d72:	e8bd 83f0 	ldmia.w	sp!, {r4, r5, r6, r7, r8, r9, pc}
 8007d76:	f7ff fea3 	bl	8007ac0 <Error_Handler>
 8007d7a:	e7ef      	b.n	8007d5c <HAL_I2S_MspInit+0xf0>
 8007d7c:	40003800 	.word	0x40003800
 8007d80:	2000095c 	.word	0x2000095c
 8007d84:	40020800 	.word	0x40020800
 8007d88:	40020400 	.word	0x40020400
 8007d8c:	40026070 	.word	0x40026070

08007d90 <HAL_SD_MspInit>:
 8007d90:	b5f0      	push	{r4, r5, r6, r7, lr}
 8007d92:	6802      	ldr	r2, [r0, #0]
 8007d94:	4b23      	ldr	r3, [pc, #140]	; (8007e24 <HAL_SD_MspInit+0x94>)
 8007d96:	b089      	sub	sp, #36	; 0x24
 8007d98:	2400      	movs	r4, #0
 8007d9a:	429a      	cmp	r2, r3
 8007d9c:	e9cd 4403 	strd	r4, r4, [sp, #12]
 8007da0:	e9cd 4405 	strd	r4, r4, [sp, #20]
 8007da4:	9407      	str	r4, [sp, #28]
 8007da6:	d001      	beq.n	8007dac <HAL_SD_MspInit+0x1c>
 8007da8:	b009      	add	sp, #36	; 0x24
 8007daa:	bdf0      	pop	{r4, r5, r6, r7, pc}
 8007dac:	f503 3386 	add.w	r3, r3, #68608	; 0x10c00
 8007db0:	9400      	str	r4, [sp, #0]
 8007db2:	6c5a      	ldr	r2, [r3, #68]	; 0x44
 8007db4:	481c      	ldr	r0, [pc, #112]	; (8007e28 <HAL_SD_MspInit+0x98>)
 8007db6:	f442 6200 	orr.w	r2, r2, #2048	; 0x800
 8007dba:	645a      	str	r2, [r3, #68]	; 0x44
 8007dbc:	6c5a      	ldr	r2, [r3, #68]	; 0x44
 8007dbe:	f402 6200 	and.w	r2, r2, #2048	; 0x800
 8007dc2:	9200      	str	r2, [sp, #0]
 8007dc4:	9a00      	ldr	r2, [sp, #0]
 8007dc6:	9401      	str	r4, [sp, #4]
 8007dc8:	6b1a      	ldr	r2, [r3, #48]	; 0x30
 8007dca:	f042 0204 	orr.w	r2, r2, #4
 8007dce:	631a      	str	r2, [r3, #48]	; 0x30
 8007dd0:	6b1a      	ldr	r2, [r3, #48]	; 0x30
 8007dd2:	f002 0204 	and.w	r2, r2, #4
 8007dd6:	9201      	str	r2, [sp, #4]
 8007dd8:	9a01      	ldr	r2, [sp, #4]
 8007dda:	9402      	str	r4, [sp, #8]
 8007ddc:	6b1a      	ldr	r2, [r3, #48]	; 0x30
 8007dde:	f042 0208 	orr.w	r2, r2, #8
 8007de2:	631a      	str	r2, [r3, #48]	; 0x30
 8007de4:	6b1b      	ldr	r3, [r3, #48]	; 0x30
 8007de6:	250c      	movs	r5, #12
 8007de8:	f003 0308 	and.w	r3, r3, #8
 8007dec:	9302      	str	r3, [sp, #8]
 8007dee:	2702      	movs	r7, #2
 8007df0:	f44f 53f8 	mov.w	r3, #7936	; 0x1f00
 8007df4:	2603      	movs	r6, #3
 8007df6:	eb0d 0105 	add.w	r1, sp, r5
 8007dfa:	9a02      	ldr	r2, [sp, #8]
 8007dfc:	e9cd 3703 	strd	r3, r7, [sp, #12]
 8007e00:	e9cd 6506 	strd	r6, r5, [sp, #24]
 8007e04:	f7f9 fb32 	bl	800146c <HAL_GPIO_Init>
 8007e08:	2304      	movs	r3, #4
 8007e0a:	eb0d 0105 	add.w	r1, sp, r5
 8007e0e:	4807      	ldr	r0, [pc, #28]	; (8007e2c <HAL_SD_MspInit+0x9c>)
 8007e10:	9704      	str	r7, [sp, #16]
 8007e12:	e9cd 6506 	strd	r6, r5, [sp, #24]
 8007e16:	9405      	str	r4, [sp, #20]
 8007e18:	9303      	str	r3, [sp, #12]
 8007e1a:	f7f9 fb27 	bl	800146c <HAL_GPIO_Init>
 8007e1e:	b009      	add	sp, #36	; 0x24
 8007e20:	bdf0      	pop	{r4, r5, r6, r7, pc}
 8007e22:	bf00      	nop
 8007e24:	40012c00 	.word	0x40012c00
 8007e28:	40020800 	.word	0x40020800
 8007e2c:	40020c00 	.word	0x40020c00

08007e30 <HAL_TIM_PWM_MspInit>:
 8007e30:	6802      	ldr	r2, [r0, #0]
 8007e32:	4b0e      	ldr	r3, [pc, #56]	; (8007e6c <HAL_TIM_PWM_MspInit+0x3c>)
 8007e34:	429a      	cmp	r2, r3
 8007e36:	d000      	beq.n	8007e3a <HAL_TIM_PWM_MspInit+0xa>
 8007e38:	4770      	bx	lr
 8007e3a:	b500      	push	{lr}
 8007e3c:	b083      	sub	sp, #12
 8007e3e:	2200      	movs	r2, #0
 8007e40:	f503 339c 	add.w	r3, r3, #79872	; 0x13800
 8007e44:	9201      	str	r2, [sp, #4]
 8007e46:	6c59      	ldr	r1, [r3, #68]	; 0x44
 8007e48:	f041 0101 	orr.w	r1, r1, #1
 8007e4c:	6459      	str	r1, [r3, #68]	; 0x44
 8007e4e:	6c5b      	ldr	r3, [r3, #68]	; 0x44
 8007e50:	f003 0301 	and.w	r3, r3, #1
 8007e54:	9301      	str	r3, [sp, #4]
 8007e56:	4611      	mov	r1, r2
 8007e58:	201b      	movs	r0, #27
 8007e5a:	9b01      	ldr	r3, [sp, #4]
 8007e5c:	f7f9 f89c 	bl	8000f98 <HAL_NVIC_SetPriority>
 8007e60:	201b      	movs	r0, #27
 8007e62:	b003      	add	sp, #12
 8007e64:	f85d eb04 	ldr.w	lr, [sp], #4
 8007e68:	f7f9 b8cc 	b.w	8001004 <HAL_NVIC_EnableIRQ>
 8007e6c:	40010000 	.word	0x40010000

08007e70 <HAL_TIM_MspPostInit>:
 8007e70:	b530      	push	{r4, r5, lr}
 8007e72:	6801      	ldr	r1, [r0, #0]
 8007e74:	4a12      	ldr	r2, [pc, #72]	; (8007ec0 <HAL_TIM_MspPostInit+0x50>)
 8007e76:	b087      	sub	sp, #28
 8007e78:	2300      	movs	r3, #0
 8007e7a:	4291      	cmp	r1, r2
 8007e7c:	e9cd 3301 	strd	r3, r3, [sp, #4]
 8007e80:	e9cd 3303 	strd	r3, r3, [sp, #12]
 8007e84:	9305      	str	r3, [sp, #20]
 8007e86:	d001      	beq.n	8007e8c <HAL_TIM_MspPostInit+0x1c>
 8007e88:	b007      	add	sp, #28
 8007e8a:	bd30      	pop	{r4, r5, pc}
 8007e8c:	f502 329c 	add.w	r2, r2, #79872	; 0x13800
 8007e90:	9300      	str	r3, [sp, #0]
 8007e92:	6b13      	ldr	r3, [r2, #48]	; 0x30
 8007e94:	480b      	ldr	r0, [pc, #44]	; (8007ec4 <HAL_TIM_MspPostInit+0x54>)
 8007e96:	f043 0302 	orr.w	r3, r3, #2
 8007e9a:	6313      	str	r3, [r2, #48]	; 0x30
 8007e9c:	6b13      	ldr	r3, [r2, #48]	; 0x30
 8007e9e:	f003 0302 	and.w	r3, r3, #2
 8007ea2:	9300      	str	r3, [sp, #0]
 8007ea4:	2202      	movs	r2, #2
 8007ea6:	2301      	movs	r3, #1
 8007ea8:	a901      	add	r1, sp, #4
 8007eaa:	f44f 5400 	mov.w	r4, #8192	; 0x2000
 8007eae:	9d00      	ldr	r5, [sp, #0]
 8007eb0:	9305      	str	r3, [sp, #20]
 8007eb2:	e9cd 4201 	strd	r4, r2, [sp, #4]
 8007eb6:	f7f9 fad9 	bl	800146c <HAL_GPIO_Init>
 8007eba:	b007      	add	sp, #28
 8007ebc:	bd30      	pop	{r4, r5, pc}
 8007ebe:	bf00      	nop
 8007ec0:	40010000 	.word	0x40010000
 8007ec4:	40020400 	.word	0x40020400

08007ec8 <NMI_Handler>:
 8007ec8:	4770      	bx	lr
 8007eca:	bf00      	nop

08007ecc <HardFault_Handler>:
 8007ecc:	e7fe      	b.n	8007ecc <HardFault_Handler>
 8007ece:	bf00      	nop

08007ed0 <MemManage_Handler>:
 8007ed0:	e7fe      	b.n	8007ed0 <MemManage_Handler>
 8007ed2:	bf00      	nop

08007ed4 <BusFault_Handler>:
 8007ed4:	e7fe      	b.n	8007ed4 <BusFault_Handler>
 8007ed6:	bf00      	nop

08007ed8 <UsageFault_Handler>:
 8007ed8:	e7fe      	b.n	8007ed8 <UsageFault_Handler>
 8007eda:	bf00      	nop

08007edc <SVC_Handler>:
 8007edc:	4770      	bx	lr
 8007ede:	bf00      	nop

08007ee0 <DebugMon_Handler>:
 8007ee0:	4770      	bx	lr
 8007ee2:	bf00      	nop

08007ee4 <PendSV_Handler>:
 8007ee4:	4770      	bx	lr
 8007ee6:	bf00      	nop

08007ee8 <SysTick_Handler>:
 8007ee8:	f7f9 b820 	b.w	8000f2c <HAL_IncTick>

08007eec <DMA1_Stream4_IRQHandler>:
 8007eec:	4801      	ldr	r0, [pc, #4]	; (8007ef4 <DMA1_Stream4_IRQHandler+0x8>)
 8007eee:	f7f9 b9e3 	b.w	80012b8 <HAL_DMA_IRQHandler>
 8007ef2:	bf00      	nop
 8007ef4:	2000095c 	.word	0x2000095c

08007ef8 <TIM1_CC_IRQHandler>:
 8007ef8:	4801      	ldr	r0, [pc, #4]	; (8007f00 <TIM1_CC_IRQHandler+0x8>)
 8007efa:	f7fd b8f7 	b.w	80050ec <HAL_TIM_IRQHandler>
 8007efe:	bf00      	nop
 8007f00:	20000898 	.word	0x20000898

08007f04 <I2C1_EV_IRQHandler>:
 8007f04:	4801      	ldr	r0, [pc, #4]	; (8007f0c <I2C1_EV_IRQHandler+0x8>)
 8007f06:	f7fa ba05 	b.w	8002314 <HAL_I2C_EV_IRQHandler>
 8007f0a:	bf00      	nop
 8007f0c:	20000838 	.word	0x20000838

08007f10 <SPI2_IRQHandler>:
 8007f10:	4801      	ldr	r0, [pc, #4]	; (8007f18 <SPI2_IRQHandler+0x8>)
 8007f12:	f7fb b89d 	b.w	8003050 <HAL_I2S_IRQHandler>
 8007f16:	bf00      	nop
 8007f18:	200009bc 	.word	0x200009bc

08007f1c <OTG_FS_IRQHandler>:
 8007f1c:	4801      	ldr	r0, [pc, #4]	; (8007f24 <OTG_FS_IRQHandler+0x8>)
 8007f1e:	f7fb bb27 	b.w	8003570 <HAL_PCD_IRQHandler>
 8007f22:	bf00      	nop
 8007f24:	20000cdc 	.word	0x20000cdc

08007f28 <_read>:
 8007f28:	b570      	push	{r4, r5, r6, lr}
 8007f2a:	1e16      	subs	r6, r2, #0
 8007f2c:	dd07      	ble.n	8007f3e <_read+0x16>
 8007f2e:	460c      	mov	r4, r1
 8007f30:	198d      	adds	r5, r1, r6
 8007f32:	f3af 8000 	nop.w
 8007f36:	f804 0b01 	strb.w	r0, [r4], #1
 8007f3a:	42a5      	cmp	r5, r4
 8007f3c:	d1f9      	bne.n	8007f32 <_read+0xa>
 8007f3e:	4630      	mov	r0, r6
 8007f40:	bd70      	pop	{r4, r5, r6, pc}
 8007f42:	bf00      	nop

08007f44 <_write>:
 8007f44:	1e10      	subs	r0, r2, #0
 8007f46:	dd1d      	ble.n	8007f84 <_write+0x40>
 8007f48:	b430      	push	{r4, r5}
 8007f4a:	f04f 4360 	mov.w	r3, #3758096384	; 0xe0000000
 8007f4e:	180d      	adds	r5, r1, r0
 8007f50:	e001      	b.n	8007f56 <_write+0x12>
 8007f52:	42a9      	cmp	r1, r5
 8007f54:	d014      	beq.n	8007f80 <_write+0x3c>
 8007f56:	f8d3 4e80 	ldr.w	r4, [r3, #3712]	; 0xe80
 8007f5a:	07e4      	lsls	r4, r4, #31
 8007f5c:	f101 0101 	add.w	r1, r1, #1
 8007f60:	d5f7      	bpl.n	8007f52 <_write+0xe>
 8007f62:	f8d3 4e00 	ldr.w	r4, [r3, #3584]	; 0xe00
 8007f66:	07e2      	lsls	r2, r4, #31
 8007f68:	d5f3      	bpl.n	8007f52 <_write+0xe>
 8007f6a:	681c      	ldr	r4, [r3, #0]
 8007f6c:	f811 2c01 	ldrb.w	r2, [r1, #-1]
 8007f70:	b91c      	cbnz	r4, 8007f7a <_write+0x36>
 8007f72:	bf00      	nop
 8007f74:	681c      	ldr	r4, [r3, #0]
 8007f76:	2c00      	cmp	r4, #0
 8007f78:	d0fb      	beq.n	8007f72 <_write+0x2e>
 8007f7a:	42a9      	cmp	r1, r5
 8007f7c:	701a      	strb	r2, [r3, #0]
 8007f7e:	d1ea      	bne.n	8007f56 <_write+0x12>
 8007f80:	bc30      	pop	{r4, r5}
 8007f82:	4770      	bx	lr
 8007f84:	4770      	bx	lr
 8007f86:	bf00      	nop

08007f88 <_close>:
 8007f88:	f04f 30ff 	mov.w	r0, #4294967295
 8007f8c:	4770      	bx	lr
 8007f8e:	bf00      	nop

08007f90 <_fstat>:
 8007f90:	f44f 5300 	mov.w	r3, #8192	; 0x2000
 8007f94:	604b      	str	r3, [r1, #4]
 8007f96:	2000      	movs	r0, #0
 8007f98:	4770      	bx	lr
 8007f9a:	bf00      	nop

08007f9c <_isatty>:
 8007f9c:	2001      	movs	r0, #1
 8007f9e:	4770      	bx	lr

08007fa0 <_lseek>:
 8007fa0:	2000      	movs	r0, #0
 8007fa2:	4770      	bx	lr

08007fa4 <_sbrk>:
 8007fa4:	4a0c      	ldr	r2, [pc, #48]	; (8007fd8 <_sbrk+0x34>)
 8007fa6:	b508      	push	{r3, lr}
 8007fa8:	6813      	ldr	r3, [r2, #0]
 8007faa:	b133      	cbz	r3, 8007fba <_sbrk+0x16>
 8007fac:	4418      	add	r0, r3
 8007fae:	4669      	mov	r1, sp
 8007fb0:	4288      	cmp	r0, r1
 8007fb2:	d808      	bhi.n	8007fc6 <_sbrk+0x22>
 8007fb4:	6010      	str	r0, [r2, #0]
 8007fb6:	4618      	mov	r0, r3
 8007fb8:	bd08      	pop	{r3, pc}
 8007fba:	4b08      	ldr	r3, [pc, #32]	; (8007fdc <_sbrk+0x38>)
 8007fbc:	6013      	str	r3, [r2, #0]
 8007fbe:	4418      	add	r0, r3
 8007fc0:	4669      	mov	r1, sp
 8007fc2:	4288      	cmp	r0, r1
 8007fc4:	d9f6      	bls.n	8007fb4 <_sbrk+0x10>
 8007fc6:	f000 fb37 	bl	8008638 <__errno>
 8007fca:	230c      	movs	r3, #12
 8007fcc:	6003      	str	r3, [r0, #0]
 8007fce:	f04f 33ff 	mov.w	r3, #4294967295
 8007fd2:	4618      	mov	r0, r3
 8007fd4:	bd08      	pop	{r3, pc}
 8007fd6:	bf00      	nop
 8007fd8:	200003a8 	.word	0x200003a8
 8007fdc:	200012e8 	.word	0x200012e8

08007fe0 <SystemInit>:
 8007fe0:	4b05      	ldr	r3, [pc, #20]	; (8007ff8 <SystemInit+0x18>)
 8007fe2:	f8d3 2088 	ldr.w	r2, [r3, #136]	; 0x88
 8007fe6:	f04f 6100 	mov.w	r1, #134217728	; 0x8000000
 8007fea:	f442 0270 	orr.w	r2, r2, #15728640	; 0xf00000
 8007fee:	f8c3 2088 	str.w	r2, [r3, #136]	; 0x88
 8007ff2:	6099      	str	r1, [r3, #8]
 8007ff4:	4770      	bx	lr
 8007ff6:	bf00      	nop
 8007ff8:	e000ed00 	.word	0xe000ed00

08007ffc <tlv_init>:
 8007ffc:	b5f0      	push	{r4, r5, r6, r7, lr}
 8007ffe:	b085      	sub	sp, #20
 8008000:	ad04      	add	r5, sp, #16
 8008002:	4c16      	ldr	r4, [pc, #88]	; (800805c <tlv_init+0x60>)
 8008004:	4f16      	ldr	r7, [pc, #88]	; (8008060 <tlv_init+0x64>)
 8008006:	f44f 7300 	mov.w	r3, #512	; 0x200
 800800a:	2102      	movs	r1, #2
 800800c:	f825 3d04 	strh.w	r3, [r5, #-4]!
 8008010:	8021      	strh	r1, [r4, #0]
 8008012:	2605      	movs	r6, #5
 8008014:	e008      	b.n	8008028 <tlv_init+0x2c>
 8008016:	2005      	movs	r0, #5
 8008018:	f7f8 ff9a 	bl	8000f50 <HAL_Delay>
 800801c:	8821      	ldrh	r1, [r4, #0]
 800801e:	3101      	adds	r1, #1
 8008020:	b289      	uxth	r1, r1
 8008022:	29fe      	cmp	r1, #254	; 0xfe
 8008024:	8021      	strh	r1, [r4, #0]
 8008026:	d808      	bhi.n	800803a <tlv_init+0x3e>
 8008028:	9600      	str	r6, [sp, #0]
 800802a:	2302      	movs	r3, #2
 800802c:	462a      	mov	r2, r5
 800802e:	4638      	mov	r0, r7
 8008030:	f7f9 fd9e 	bl	8001b70 <HAL_I2C_Master_Transmit>
 8008034:	2800      	cmp	r0, #0
 8008036:	d1ee      	bne.n	8008016 <tlv_init+0x1a>
 8008038:	8821      	ldrh	r1, [r4, #0]
 800803a:	4809      	ldr	r0, [pc, #36]	; (8008060 <tlv_init+0x64>)
 800803c:	2314      	movs	r3, #20
 800803e:	2201      	movs	r2, #1
 8008040:	f7f9 ff90 	bl	8001f64 <HAL_I2C_IsDeviceReady>
 8008044:	b110      	cbz	r0, 800804c <tlv_init+0x50>
 8008046:	8823      	ldrh	r3, [r4, #0]
 8008048:	2bfe      	cmp	r3, #254	; 0xfe
 800804a:	d804      	bhi.n	8008056 <tlv_init+0x5a>
 800804c:	4b05      	ldr	r3, [pc, #20]	; (8008064 <tlv_init+0x68>)
 800804e:	2001      	movs	r0, #1
 8008050:	6018      	str	r0, [r3, #0]
 8008052:	b005      	add	sp, #20
 8008054:	bdf0      	pop	{r4, r5, r6, r7, pc}
 8008056:	f04f 30ff 	mov.w	r0, #4294967295
 800805a:	e7fa      	b.n	8008052 <tlv_init+0x56>
 800805c:	200003ac 	.word	0x200003ac
 8008060:	20000838 	.word	0x20000838
 8008064:	200003b0 	.word	0x200003b0

08008068 <getMagVal>:
 8008068:	b570      	push	{r4, r5, r6, lr}
 800806a:	4b29      	ldr	r3, [pc, #164]	; (8008110 <getMagVal+0xa8>)
 800806c:	681b      	ldr	r3, [r3, #0]
 800806e:	b084      	sub	sp, #16
 8008070:	2b00      	cmp	r3, #0
 8008072:	d043      	beq.n	80080fc <getMagVal+0x94>
 8008074:	4d27      	ldr	r5, [pc, #156]	; (8008114 <getMagVal+0xac>)
 8008076:	4e28      	ldr	r6, [pc, #160]	; (8008118 <getMagVal+0xb0>)
 8008078:	2406      	movs	r4, #6
 800807a:	e001      	b.n	8008080 <getMagVal+0x18>
 800807c:	3c01      	subs	r4, #1
 800807e:	d00c      	beq.n	800809a <getMagVal+0x32>
 8008080:	2314      	movs	r3, #20
 8008082:	2201      	movs	r2, #1
 8008084:	8829      	ldrh	r1, [r5, #0]
 8008086:	4630      	mov	r0, r6
 8008088:	f7f9 ff6c 	bl	8001f64 <HAL_I2C_IsDeviceReady>
 800808c:	2802      	cmp	r0, #2
 800808e:	d1f5      	bne.n	800807c <getMagVal+0x14>
 8008090:	201e      	movs	r0, #30
 8008092:	f7f8 ff5d 	bl	8000f50 <HAL_Delay>
 8008096:	3c01      	subs	r4, #1
 8008098:	d1f2      	bne.n	8008080 <getMagVal+0x18>
 800809a:	220a      	movs	r2, #10
 800809c:	4c1f      	ldr	r4, [pc, #124]	; (800811c <getMagVal+0xb4>)
 800809e:	8829      	ldrh	r1, [r5, #0]
 80080a0:	481d      	ldr	r0, [pc, #116]	; (8008118 <getMagVal+0xb0>)
 80080a2:	9400      	str	r4, [sp, #0]
 80080a4:	2307      	movs	r3, #7
 80080a6:	e9cd 3201 	strd	r3, r2, [sp, #4]
 80080aa:	2201      	movs	r2, #1
 80080ac:	f7f9 fe42 	bl	8001d34 <HAL_I2C_Mem_Read>
 80080b0:	bb50      	cbnz	r0, 8008108 <getMagVal+0xa0>
 80080b2:	7960      	ldrb	r0, [r4, #5]
 80080b4:	7922      	ldrb	r2, [r4, #4]
 80080b6:	78a6      	ldrb	r6, [r4, #2]
 80080b8:	7865      	ldrb	r5, [r4, #1]
 80080ba:	7821      	ldrb	r1, [r4, #0]
 80080bc:	0100      	lsls	r0, r0, #4
 80080be:	0113      	lsls	r3, r2, #4
 80080c0:	b2c0      	uxtb	r0, r0
 80080c2:	b2db      	uxtb	r3, r3
 80080c4:	ea40 2006 	orr.w	r0, r0, r6, lsl #8
 80080c8:	f340 100b 	sbfx	r0, r0, #4, #12
 80080cc:	ea43 2305 	orr.w	r3, r3, r5, lsl #8
 80080d0:	f343 130b 	sbfx	r3, r3, #4, #12
 80080d4:	2800      	cmp	r0, #0
 80080d6:	ea42 2201 	orr.w	r2, r2, r1, lsl #8
 80080da:	f342 120b 	sbfx	r2, r2, #4, #12
 80080de:	bfb8      	it	lt
 80080e0:	4240      	neglt	r0, r0
 80080e2:	2b00      	cmp	r3, #0
 80080e4:	bfb8      	it	lt
 80080e6:	425b      	neglt	r3, r3
 80080e8:	2a00      	cmp	r2, #0
 80080ea:	bfb8      	it	lt
 80080ec:	4252      	neglt	r2, r2
 80080ee:	4418      	add	r0, r3
 80080f0:	4410      	add	r0, r2
 80080f2:	2832      	cmp	r0, #50	; 0x32
 80080f4:	bfa8      	it	ge
 80080f6:	2032      	movge	r0, #50	; 0x32
 80080f8:	b004      	add	sp, #16
 80080fa:	bd70      	pop	{r4, r5, r6, pc}
 80080fc:	f7ff ff7e 	bl	8007ffc <tlv_init>
 8008100:	201e      	movs	r0, #30
 8008102:	f7f8 ff25 	bl	8000f50 <HAL_Delay>
 8008106:	e7b5      	b.n	8008074 <getMagVal+0xc>
 8008108:	f04f 30ff 	mov.w	r0, #4294967295
 800810c:	e7f4      	b.n	80080f8 <getMagVal+0x90>
 800810e:	bf00      	nop
 8008110:	200003b0 	.word	0x200003b0
 8008114:	200003ac 	.word	0x200003ac
 8008118:	20000838 	.word	0x20000838
 800811c:	20000a04 	.word	0x20000a04

08008120 <MX_USB_DEVICE_Init>:
 8008120:	b508      	push	{r3, lr}
 8008122:	2200      	movs	r2, #0
 8008124:	4910      	ldr	r1, [pc, #64]	; (8008168 <MX_USB_DEVICE_Init+0x48>)
 8008126:	4811      	ldr	r0, [pc, #68]	; (800816c <MX_USB_DEVICE_Init+0x4c>)
 8008128:	f7fe fcfc 	bl	8006b24 <USBD_Init>
 800812c:	b9c0      	cbnz	r0, 8008160 <MX_USB_DEVICE_Init+0x40>
 800812e:	4910      	ldr	r1, [pc, #64]	; (8008170 <MX_USB_DEVICE_Init+0x50>)
 8008130:	480e      	ldr	r0, [pc, #56]	; (800816c <MX_USB_DEVICE_Init+0x4c>)
 8008132:	f7fe fd0f 	bl	8006b54 <USBD_RegisterClass>
 8008136:	b980      	cbnz	r0, 800815a <MX_USB_DEVICE_Init+0x3a>
 8008138:	490e      	ldr	r1, [pc, #56]	; (8008174 <MX_USB_DEVICE_Init+0x54>)
 800813a:	480c      	ldr	r0, [pc, #48]	; (800816c <MX_USB_DEVICE_Init+0x4c>)
 800813c:	f7fe fbfc 	bl	8006938 <USBD_AUDIO_RegisterInterface>
 8008140:	b940      	cbnz	r0, 8008154 <MX_USB_DEVICE_Init+0x34>
 8008142:	480a      	ldr	r0, [pc, #40]	; (800816c <MX_USB_DEVICE_Init+0x4c>)
 8008144:	f7fe fd1a 	bl	8006b7c <USBD_Start>
 8008148:	b900      	cbnz	r0, 800814c <MX_USB_DEVICE_Init+0x2c>
 800814a:	bd08      	pop	{r3, pc}
 800814c:	e8bd 4008 	ldmia.w	sp!, {r3, lr}
 8008150:	f7ff bcb6 	b.w	8007ac0 <Error_Handler>
 8008154:	f7ff fcb4 	bl	8007ac0 <Error_Handler>
 8008158:	e7f3      	b.n	8008142 <MX_USB_DEVICE_Init+0x22>
 800815a:	f7ff fcb1 	bl	8007ac0 <Error_Handler>
 800815e:	e7eb      	b.n	8008138 <MX_USB_DEVICE_Init+0x18>
 8008160:	f7ff fcae 	bl	8007ac0 <Error_Handler>
 8008164:	e7e3      	b.n	800812e <MX_USB_DEVICE_Init+0xe>
 8008166:	bf00      	nop
 8008168:	20000148 	.word	0x20000148
 800816c:	20000a0c 	.word	0x20000a0c
 8008170:	20000008 	.word	0x20000008
 8008174:	2000012c 	.word	0x2000012c

08008178 <AUDIO_Init_FS>:
 8008178:	2000      	movs	r0, #0
 800817a:	4770      	bx	lr

0800817c <AUDIO_VolumeCtl_FS>:
 800817c:	2000      	movs	r0, #0
 800817e:	4770      	bx	lr

08008180 <AUDIO_PeriodicTC_FS>:
 8008180:	4a02      	ldr	r2, [pc, #8]	; (800818c <AUDIO_PeriodicTC_FS+0xc>)
 8008182:	6813      	ldr	r3, [r2, #0]
 8008184:	4419      	add	r1, r3
 8008186:	6011      	str	r1, [r2, #0]
 8008188:	2000      	movs	r0, #0
 800818a:	4770      	bx	lr
 800818c:	200003b4 	.word	0x200003b4

08008190 <AUDIO_GetState_FS>:
 8008190:	2000      	movs	r0, #0
 8008192:	4770      	bx	lr

08008194 <AUDIO_DeInit_FS>:
 8008194:	b508      	push	{r3, lr}
 8008196:	f7ff f95b 	bl	8007450 <AudioPlay_Stop>
 800819a:	2000      	movs	r0, #0
 800819c:	bd08      	pop	{r3, pc}
 800819e:	bf00      	nop

080081a0 <AUDIO_AudioCmd_FS>:
 80081a0:	b570      	push	{r4, r5, r6, lr}
 80081a2:	4c18      	ldr	r4, [pc, #96]	; (8008204 <AUDIO_AudioCmd_FS+0x64>)
 80081a4:	6823      	ldr	r3, [r4, #0]
 80081a6:	1a5b      	subs	r3, r3, r1
 80081a8:	6023      	str	r3, [r4, #0]
 80081aa:	6823      	ldr	r3, [r4, #0]
 80081ac:	f513 5f70 	cmn.w	r3, #15360	; 0x3c00
 80081b0:	4605      	mov	r5, r0
 80081b2:	da02      	bge.n	80081ba <AUDIO_AudioCmd_FS+0x1a>
 80081b4:	4e14      	ldr	r6, [pc, #80]	; (8008208 <AUDIO_AudioCmd_FS+0x68>)
 80081b6:	6833      	ldr	r3, [r6, #0]
 80081b8:	b973      	cbnz	r3, 80081d8 <AUDIO_AudioCmd_FS+0x38>
 80081ba:	2a02      	cmp	r2, #2
 80081bc:	d018      	beq.n	80081f0 <AUDIO_AudioCmd_FS+0x50>
 80081be:	2a04      	cmp	r2, #4
 80081c0:	d012      	beq.n	80081e8 <AUDIO_AudioCmd_FS+0x48>
 80081c2:	2a01      	cmp	r2, #1
 80081c4:	d106      	bne.n	80081d4 <AUDIO_AudioCmd_FS+0x34>
 80081c6:	6823      	ldr	r3, [r4, #0]
 80081c8:	4628      	mov	r0, r5
 80081ca:	eba3 0341 	sub.w	r3, r3, r1, lsl #1
 80081ce:	6023      	str	r3, [r4, #0]
 80081d0:	f7ff f92a 	bl	8007428 <AudioPlay_Play>
 80081d4:	2000      	movs	r0, #0
 80081d6:	bd70      	pop	{r4, r5, r6, pc}
 80081d8:	f44f 5270 	mov.w	r2, #15360	; 0x3c00
 80081dc:	2100      	movs	r1, #0
 80081de:	f000 fa65 	bl	80086ac <memset>
 80081e2:	2300      	movs	r3, #0
 80081e4:	6023      	str	r3, [r4, #0]
 80081e6:	6033      	str	r3, [r6, #0]
 80081e8:	f7ff f932 	bl	8007450 <AudioPlay_Stop>
 80081ec:	2000      	movs	r0, #0
 80081ee:	bd70      	pop	{r4, r5, r6, pc}
 80081f0:	6823      	ldr	r3, [r4, #0]
 80081f2:	4628      	mov	r0, r5
 80081f4:	1a5b      	subs	r3, r3, r1
 80081f6:	b289      	uxth	r1, r1
 80081f8:	6023      	str	r3, [r4, #0]
 80081fa:	f7ff f933 	bl	8007464 <AudioPlay_ChangeBuffer>
 80081fe:	2000      	movs	r0, #0
 8008200:	bd70      	pop	{r4, r5, r6, pc}
 8008202:	bf00      	nop
 8008204:	200003b4 	.word	0x200003b4
 8008208:	200003b8 	.word	0x200003b8

0800820c <AUDIO_MuteCtl_FS>:
 800820c:	2000      	movs	r0, #0
 800820e:	4770      	bx	lr

08008210 <TransferComplete_CallBack_FS>:
 8008210:	2102      	movs	r1, #2
 8008212:	4801      	ldr	r0, [pc, #4]	; (8008218 <TransferComplete_CallBack_FS+0x8>)
 8008214:	f7fe bb38 	b.w	8006888 <USBD_AUDIO_Sync>
 8008218:	20000a0c 	.word	0x20000a0c

0800821c <HalfTransfer_CallBack_FS>:
 800821c:	2101      	movs	r1, #1
 800821e:	4801      	ldr	r0, [pc, #4]	; (8008224 <HalfTransfer_CallBack_FS+0x8>)
 8008220:	f7fe bb32 	b.w	8006888 <USBD_AUDIO_Sync>
 8008224:	20000a0c 	.word	0x20000a0c

08008228 <HAL_PCD_MspInit>:
 8008228:	b570      	push	{r4, r5, r6, lr}
 800822a:	6803      	ldr	r3, [r0, #0]
 800822c:	b088      	sub	sp, #32
 800822e:	2400      	movs	r4, #0
 8008230:	f1b3 4fa0 	cmp.w	r3, #1342177280	; 0x50000000
 8008234:	e9cd 4403 	strd	r4, r4, [sp, #12]
 8008238:	e9cd 4405 	strd	r4, r4, [sp, #20]
 800823c:	9407      	str	r4, [sp, #28]
 800823e:	d001      	beq.n	8008244 <HAL_PCD_MspInit+0x1c>
 8008240:	b008      	add	sp, #32
 8008242:	bd70      	pop	{r4, r5, r6, pc}
 8008244:	4d17      	ldr	r5, [pc, #92]	; (80082a4 <HAL_PCD_MspInit+0x7c>)
 8008246:	9401      	str	r4, [sp, #4]
 8008248:	6b2b      	ldr	r3, [r5, #48]	; 0x30
 800824a:	4817      	ldr	r0, [pc, #92]	; (80082a8 <HAL_PCD_MspInit+0x80>)
 800824c:	f043 0301 	orr.w	r3, r3, #1
 8008250:	632b      	str	r3, [r5, #48]	; 0x30
 8008252:	6b2b      	ldr	r3, [r5, #48]	; 0x30
 8008254:	f003 0301 	and.w	r3, r3, #1
 8008258:	9301      	str	r3, [sp, #4]
 800825a:	f44f 52c0 	mov.w	r2, #6144	; 0x1800
 800825e:	2302      	movs	r3, #2
 8008260:	a903      	add	r1, sp, #12
 8008262:	9203      	str	r2, [sp, #12]
 8008264:	9304      	str	r3, [sp, #16]
 8008266:	2203      	movs	r2, #3
 8008268:	230a      	movs	r3, #10
 800826a:	e9cd 2306 	strd	r2, r3, [sp, #24]
 800826e:	9e01      	ldr	r6, [sp, #4]
 8008270:	f7f9 f8fc 	bl	800146c <HAL_GPIO_Init>
 8008274:	6b6b      	ldr	r3, [r5, #52]	; 0x34
 8008276:	f043 0380 	orr.w	r3, r3, #128	; 0x80
 800827a:	636b      	str	r3, [r5, #52]	; 0x34
 800827c:	9402      	str	r4, [sp, #8]
 800827e:	6c6b      	ldr	r3, [r5, #68]	; 0x44
 8008280:	f443 4380 	orr.w	r3, r3, #16384	; 0x4000
 8008284:	646b      	str	r3, [r5, #68]	; 0x44
 8008286:	6c6b      	ldr	r3, [r5, #68]	; 0x44
 8008288:	f403 4380 	and.w	r3, r3, #16384	; 0x4000
 800828c:	9302      	str	r3, [sp, #8]
 800828e:	4622      	mov	r2, r4
 8008290:	4621      	mov	r1, r4
 8008292:	2043      	movs	r0, #67	; 0x43
 8008294:	9b02      	ldr	r3, [sp, #8]
 8008296:	f7f8 fe7f 	bl	8000f98 <HAL_NVIC_SetPriority>
 800829a:	2043      	movs	r0, #67	; 0x43
 800829c:	f7f8 feb2 	bl	8001004 <HAL_NVIC_EnableIRQ>
 80082a0:	b008      	add	sp, #32
 80082a2:	bd70      	pop	{r4, r5, r6, pc}
 80082a4:	40023800 	.word	0x40023800
 80082a8:	40020000 	.word	0x40020000

080082ac <HAL_PCD_SetupStageCallback>:
 80082ac:	f500 7171 	add.w	r1, r0, #964	; 0x3c4
 80082b0:	f8d0 0404 	ldr.w	r0, [r0, #1028]	; 0x404
 80082b4:	f7fe bc74 	b.w	8006ba0 <USBD_LL_SetupStage>

080082b8 <HAL_PCD_DataOutStageCallback>:
 80082b8:	ebc1 03c1 	rsb	r3, r1, r1, lsl #3
 80082bc:	eb00 0383 	add.w	r3, r0, r3, lsl #2
 80082c0:	f8d0 0404 	ldr.w	r0, [r0, #1028]	; 0x404
 80082c4:	f8d3 2208 	ldr.w	r2, [r3, #520]	; 0x208
 80082c8:	f7fe bc9a 	b.w	8006c00 <USBD_LL_DataOutStage>

080082cc <HAL_PCD_DataInStageCallback>:
 80082cc:	ebc1 03c1 	rsb	r3, r1, r1, lsl #3
 80082d0:	eb00 0383 	add.w	r3, r0, r3, lsl #2
 80082d4:	f8d0 0404 	ldr.w	r0, [r0, #1028]	; 0x404
 80082d8:	6c9a      	ldr	r2, [r3, #72]	; 0x48
 80082da:	f7fe bcc7 	b.w	8006c6c <USBD_LL_DataInStage>
 80082de:	bf00      	nop

080082e0 <HAL_PCD_SOFCallback>:
 80082e0:	f8d0 0404 	ldr.w	r0, [r0, #1028]	; 0x404
 80082e4:	f7fe bd64 	b.w	8006db0 <USBD_LL_SOF>

080082e8 <HAL_PCD_ResetCallback>:
 80082e8:	68c1      	ldr	r1, [r0, #12]
 80082ea:	b510      	push	{r4, lr}
 80082ec:	4604      	mov	r4, r0
 80082ee:	b121      	cbz	r1, 80082fa <HAL_PCD_ResetCallback+0x12>
 80082f0:	2902      	cmp	r1, #2
 80082f2:	d00c      	beq.n	800830e <HAL_PCD_ResetCallback+0x26>
 80082f4:	f7ff fbe4 	bl	8007ac0 <Error_Handler>
 80082f8:	2101      	movs	r1, #1
 80082fa:	f8d4 0404 	ldr.w	r0, [r4, #1028]	; 0x404
 80082fe:	f7fe fd3f 	bl	8006d80 <USBD_LL_SetSpeed>
 8008302:	f8d4 0404 	ldr.w	r0, [r4, #1028]	; 0x404
 8008306:	e8bd 4010 	ldmia.w	sp!, {r4, lr}
 800830a:	f7fe bd11 	b.w	8006d30 <USBD_LL_Reset>
 800830e:	2101      	movs	r1, #1
 8008310:	e7f3      	b.n	80082fa <HAL_PCD_ResetCallback+0x12>
 8008312:	bf00      	nop

08008314 <HAL_PCD_SuspendCallback>:
 8008314:	b510      	push	{r4, lr}
 8008316:	4604      	mov	r4, r0
 8008318:	f8d0 0404 	ldr.w	r0, [r0, #1028]	; 0x404
 800831c:	f7fe fd34 	bl	8006d88 <USBD_LL_Suspend>
 8008320:	6822      	ldr	r2, [r4, #0]
 8008322:	f8d2 3e00 	ldr.w	r3, [r2, #3584]	; 0xe00
 8008326:	f043 0301 	orr.w	r3, r3, #1
 800832a:	f8c2 3e00 	str.w	r3, [r2, #3584]	; 0xe00
 800832e:	6a23      	ldr	r3, [r4, #32]
 8008330:	b123      	cbz	r3, 800833c <HAL_PCD_SuspendCallback+0x28>
 8008332:	4a03      	ldr	r2, [pc, #12]	; (8008340 <HAL_PCD_SuspendCallback+0x2c>)
 8008334:	6913      	ldr	r3, [r2, #16]
 8008336:	f043 0306 	orr.w	r3, r3, #6
 800833a:	6113      	str	r3, [r2, #16]
 800833c:	bd10      	pop	{r4, pc}
 800833e:	bf00      	nop
 8008340:	e000ed00 	.word	0xe000ed00

08008344 <HAL_PCD_ResumeCallback>:
 8008344:	f8d0 0404 	ldr.w	r0, [r0, #1028]	; 0x404
 8008348:	f7fe bd28 	b.w	8006d9c <USBD_LL_Resume>

0800834c <HAL_PCD_ISOOUTIncompleteCallback>:
 800834c:	f8d0 0404 	ldr.w	r0, [r0, #1028]	; 0x404
 8008350:	f7fe bd3e 	b.w	8006dd0 <USBD_LL_IsoOUTIncomplete>

08008354 <HAL_PCD_ISOINIncompleteCallback>:
 8008354:	f8d0 0404 	ldr.w	r0, [r0, #1028]	; 0x404
 8008358:	f7fe bd38 	b.w	8006dcc <USBD_LL_IsoINIncomplete>

0800835c <HAL_PCD_ConnectCallback>:
 800835c:	f8d0 0404 	ldr.w	r0, [r0, #1028]	; 0x404
 8008360:	f7fe bd38 	b.w	8006dd4 <USBD_LL_DevConnected>

08008364 <HAL_PCD_DisconnectCallback>:
 8008364:	f8d0 0404 	ldr.w	r0, [r0, #1028]	; 0x404
 8008368:	f7fe bd36 	b.w	8006dd8 <USBD_LL_DevDisconnected>

0800836c <USBD_LL_Init>:
 800836c:	7802      	ldrb	r2, [r0, #0]
 800836e:	b10a      	cbz	r2, 8008374 <USBD_LL_Init+0x8>
 8008370:	2000      	movs	r0, #0
 8008372:	4770      	bx	lr
 8008374:	b538      	push	{r3, r4, r5, lr}
 8008376:	4b15      	ldr	r3, [pc, #84]	; (80083cc <USBD_LL_Init+0x60>)
 8008378:	f04f 45a0 	mov.w	r5, #1342177280	; 0x50000000
 800837c:	f8c3 0404 	str.w	r0, [r3, #1028]	; 0x404
 8008380:	2404      	movs	r4, #4
 8008382:	f8c0 32c4 	str.w	r3, [r0, #708]	; 0x2c4
 8008386:	2101      	movs	r1, #1
 8008388:	611a      	str	r2, [r3, #16]
 800838a:	e9c3 2208 	strd	r2, r2, [r3, #32]
 800838e:	e9c3 220b 	strd	r2, r2, [r3, #44]	; 0x2c
 8008392:	4618      	mov	r0, r3
 8008394:	2202      	movs	r2, #2
 8008396:	e9c3 5400 	strd	r5, r4, [r3]
 800839a:	61d9      	str	r1, [r3, #28]
 800839c:	60da      	str	r2, [r3, #12]
 800839e:	619a      	str	r2, [r3, #24]
 80083a0:	f7fb f838 	bl	8003414 <HAL_PCD_Init>
 80083a4:	b978      	cbnz	r0, 80083c6 <USBD_LL_Init+0x5a>
 80083a6:	2180      	movs	r1, #128	; 0x80
 80083a8:	4808      	ldr	r0, [pc, #32]	; (80083cc <USBD_LL_Init+0x60>)
 80083aa:	f7fb fd59 	bl	8003e60 <HAL_PCDEx_SetRxFiFo>
 80083ae:	2240      	movs	r2, #64	; 0x40
 80083b0:	2100      	movs	r1, #0
 80083b2:	4806      	ldr	r0, [pc, #24]	; (80083cc <USBD_LL_Init+0x60>)
 80083b4:	f7fb fd30 	bl	8003e18 <HAL_PCDEx_SetTxFiFo>
 80083b8:	2280      	movs	r2, #128	; 0x80
 80083ba:	2101      	movs	r1, #1
 80083bc:	4803      	ldr	r0, [pc, #12]	; (80083cc <USBD_LL_Init+0x60>)
 80083be:	f7fb fd2b 	bl	8003e18 <HAL_PCDEx_SetTxFiFo>
 80083c2:	2000      	movs	r0, #0
 80083c4:	bd38      	pop	{r3, r4, r5, pc}
 80083c6:	f7ff fb7b 	bl	8007ac0 <Error_Handler>
 80083ca:	e7ec      	b.n	80083a6 <USBD_LL_Init+0x3a>
 80083cc:	20000cdc 	.word	0x20000cdc

080083d0 <USBD_LL_Start>:
 80083d0:	b508      	push	{r3, lr}
 80083d2:	f8d0 02c4 	ldr.w	r0, [r0, #708]	; 0x2c4
 80083d6:	f7fb f8a9 	bl	800352c <HAL_PCD_Start>
 80083da:	2803      	cmp	r0, #3
 80083dc:	bf96      	itet	ls
 80083de:	4b02      	ldrls	r3, [pc, #8]	; (80083e8 <USBD_LL_Start+0x18>)
 80083e0:	2003      	movhi	r0, #3
 80083e2:	5c18      	ldrbls	r0, [r3, r0]
 80083e4:	bd08      	pop	{r3, pc}
 80083e6:	bf00      	nop
 80083e8:	0800a948 	.word	0x0800a948

080083ec <USBD_LL_OpenEP>:
 80083ec:	b510      	push	{r4, lr}
 80083ee:	461c      	mov	r4, r3
 80083f0:	f8d0 02c4 	ldr.w	r0, [r0, #708]	; 0x2c4
 80083f4:	4613      	mov	r3, r2
 80083f6:	4622      	mov	r2, r4
 80083f8:	f7fb fbd8 	bl	8003bac <HAL_PCD_EP_Open>
 80083fc:	2803      	cmp	r0, #3
 80083fe:	bf96      	itet	ls
 8008400:	4b01      	ldrls	r3, [pc, #4]	; (8008408 <USBD_LL_OpenEP+0x1c>)
 8008402:	2003      	movhi	r0, #3
 8008404:	5c18      	ldrbls	r0, [r3, r0]
 8008406:	bd10      	pop	{r4, pc}
 8008408:	0800a948 	.word	0x0800a948

0800840c <USBD_LL_CloseEP>:
 800840c:	b508      	push	{r3, lr}
 800840e:	f8d0 02c4 	ldr.w	r0, [r0, #708]	; 0x2c4
 8008412:	f7fb fbff 	bl	8003c14 <HAL_PCD_EP_Close>
 8008416:	2803      	cmp	r0, #3
 8008418:	bf96      	itet	ls
 800841a:	4b02      	ldrls	r3, [pc, #8]	; (8008424 <USBD_LL_CloseEP+0x18>)
 800841c:	2003      	movhi	r0, #3
 800841e:	5c18      	ldrbls	r0, [r3, r0]
 8008420:	bd08      	pop	{r3, pc}
 8008422:	bf00      	nop
 8008424:	0800a948 	.word	0x0800a948

08008428 <USBD_LL_StallEP>:
 8008428:	b508      	push	{r3, lr}
 800842a:	f8d0 02c4 	ldr.w	r0, [r0, #708]	; 0x2c4
 800842e:	f7fb fc77 	bl	8003d20 <HAL_PCD_EP_SetStall>
 8008432:	2803      	cmp	r0, #3
 8008434:	bf96      	itet	ls
 8008436:	4b02      	ldrls	r3, [pc, #8]	; (8008440 <USBD_LL_StallEP+0x18>)
 8008438:	2003      	movhi	r0, #3
 800843a:	5c18      	ldrbls	r0, [r3, r0]
 800843c:	bd08      	pop	{r3, pc}
 800843e:	bf00      	nop
 8008440:	0800a948 	.word	0x0800a948

08008444 <USBD_LL_ClearStallEP>:
 8008444:	b508      	push	{r3, lr}
 8008446:	f8d0 02c4 	ldr.w	r0, [r0, #708]	; 0x2c4
 800844a:	f7fb fcad 	bl	8003da8 <HAL_PCD_EP_ClrStall>
 800844e:	2803      	cmp	r0, #3
 8008450:	bf96      	itet	ls
 8008452:	4b02      	ldrls	r3, [pc, #8]	; (800845c <USBD_LL_ClearStallEP+0x18>)
 8008454:	2003      	movhi	r0, #3
 8008456:	5c18      	ldrbls	r0, [r3, r0]
 8008458:	bd08      	pop	{r3, pc}
 800845a:	bf00      	nop
 800845c:	0800a948 	.word	0x0800a948

08008460 <USBD_LL_IsStallEP>:
 8008460:	060a      	lsls	r2, r1, #24
 8008462:	f8d0 32c4 	ldr.w	r3, [r0, #708]	; 0x2c4
 8008466:	d406      	bmi.n	8008476 <USBD_LL_IsStallEP+0x16>
 8008468:	ebc1 01c1 	rsb	r1, r1, r1, lsl #3
 800846c:	eb03 0181 	add.w	r1, r3, r1, lsl #2
 8008470:	f891 01fe 	ldrb.w	r0, [r1, #510]	; 0x1fe
 8008474:	4770      	bx	lr
 8008476:	f001 017f 	and.w	r1, r1, #127	; 0x7f
 800847a:	ebc1 01c1 	rsb	r1, r1, r1, lsl #3
 800847e:	eb03 0181 	add.w	r1, r3, r1, lsl #2
 8008482:	f891 003e 	ldrb.w	r0, [r1, #62]	; 0x3e
 8008486:	4770      	bx	lr

08008488 <USBD_LL_SetUSBAddress>:
 8008488:	b508      	push	{r3, lr}
 800848a:	f8d0 02c4 	ldr.w	r0, [r0, #708]	; 0x2c4
 800848e:	f7fb fb79 	bl	8003b84 <HAL_PCD_SetAddress>
 8008492:	2803      	cmp	r0, #3
 8008494:	bf96      	itet	ls
 8008496:	4b02      	ldrls	r3, [pc, #8]	; (80084a0 <USBD_LL_SetUSBAddress+0x18>)
 8008498:	2003      	movhi	r0, #3
 800849a:	5c18      	ldrbls	r0, [r3, r0]
 800849c:	bd08      	pop	{r3, pc}
 800849e:	bf00      	nop
 80084a0:	0800a948 	.word	0x0800a948

080084a4 <USBD_LL_Transmit>:
 80084a4:	b508      	push	{r3, lr}
 80084a6:	f8d0 02c4 	ldr.w	r0, [r0, #708]	; 0x2c4
 80084aa:	f7fb fc15 	bl	8003cd8 <HAL_PCD_EP_Transmit>
 80084ae:	2803      	cmp	r0, #3
 80084b0:	bf96      	itet	ls
 80084b2:	4b02      	ldrls	r3, [pc, #8]	; (80084bc <USBD_LL_Transmit+0x18>)
 80084b4:	2003      	movhi	r0, #3
 80084b6:	5c18      	ldrbls	r0, [r3, r0]
 80084b8:	bd08      	pop	{r3, pc}
 80084ba:	bf00      	nop
 80084bc:	0800a948 	.word	0x0800a948

080084c0 <USBD_LL_PrepareReceive>:
 80084c0:	b508      	push	{r3, lr}
 80084c2:	f8d0 02c4 	ldr.w	r0, [r0, #708]	; 0x2c4
 80084c6:	f7fb fbd5 	bl	8003c74 <HAL_PCD_EP_Receive>
 80084ca:	2803      	cmp	r0, #3
 80084cc:	bf96      	itet	ls
 80084ce:	4b02      	ldrls	r3, [pc, #8]	; (80084d8 <USBD_LL_PrepareReceive+0x18>)
 80084d0:	2003      	movhi	r0, #3
 80084d2:	5c18      	ldrbls	r0, [r3, r0]
 80084d4:	bd08      	pop	{r3, pc}
 80084d6:	bf00      	nop
 80084d8:	0800a948 	.word	0x0800a948

080084dc <USBD_LL_GetRxDataSize>:
 80084dc:	f8d0 02c4 	ldr.w	r0, [r0, #708]	; 0x2c4
 80084e0:	f7fb bbf0 	b.w	8003cc4 <HAL_PCD_EP_GetRxCount>

080084e4 <USBD_FS_DeviceDescriptor>:
 80084e4:	2312      	movs	r3, #18
 80084e6:	800b      	strh	r3, [r1, #0]
 80084e8:	4800      	ldr	r0, [pc, #0]	; (80084ec <USBD_FS_DeviceDescriptor+0x8>)
 80084ea:	4770      	bx	lr
 80084ec:	20000164 	.word	0x20000164

080084f0 <USBD_FS_LangIDStrDescriptor>:
 80084f0:	2304      	movs	r3, #4
 80084f2:	800b      	strh	r3, [r1, #0]
 80084f4:	4800      	ldr	r0, [pc, #0]	; (80084f8 <USBD_FS_LangIDStrDescriptor+0x8>)
 80084f6:	4770      	bx	lr
 80084f8:	20000178 	.word	0x20000178

080084fc <IntToUnicode>:
 80084fc:	3a01      	subs	r2, #1
 80084fe:	b430      	push	{r4, r5}
 8008500:	b2d2      	uxtb	r2, r2
 8008502:	1c8c      	adds	r4, r1, #2
 8008504:	eb04 0442 	add.w	r4, r4, r2, lsl #1
 8008508:	2500      	movs	r5, #0
 800850a:	0f02      	lsrs	r2, r0, #28
 800850c:	2a09      	cmp	r2, #9
 800850e:	b2d3      	uxtb	r3, r2
 8008510:	f103 0230 	add.w	r2, r3, #48	; 0x30
 8008514:	bf8a      	itet	hi
 8008516:	3337      	addhi	r3, #55	; 0x37
 8008518:	700a      	strbls	r2, [r1, #0]
 800851a:	700b      	strbhi	r3, [r1, #0]
 800851c:	704d      	strb	r5, [r1, #1]
 800851e:	3102      	adds	r1, #2
 8008520:	428c      	cmp	r4, r1
 8008522:	ea4f 1000 	mov.w	r0, r0, lsl #4
 8008526:	d1f0      	bne.n	800850a <IntToUnicode+0xe>
 8008528:	bc30      	pop	{r4, r5}
 800852a:	4770      	bx	lr

0800852c <USBD_FS_SerialStrDescriptor>:
 800852c:	4a0b      	ldr	r2, [pc, #44]	; (800855c <USBD_FS_SerialStrDescriptor+0x30>)
 800852e:	4b0c      	ldr	r3, [pc, #48]	; (8008560 <USBD_FS_SerialStrDescriptor+0x34>)
 8008530:	6810      	ldr	r0, [r2, #0]
 8008532:	681b      	ldr	r3, [r3, #0]
 8008534:	221a      	movs	r2, #26
 8008536:	18c0      	adds	r0, r0, r3
 8008538:	800a      	strh	r2, [r1, #0]
 800853a:	d101      	bne.n	8008540 <USBD_FS_SerialStrDescriptor+0x14>
 800853c:	4809      	ldr	r0, [pc, #36]	; (8008564 <USBD_FS_SerialStrDescriptor+0x38>)
 800853e:	4770      	bx	lr
 8008540:	b510      	push	{r4, lr}
 8008542:	4b09      	ldr	r3, [pc, #36]	; (8008568 <USBD_FS_SerialStrDescriptor+0x3c>)
 8008544:	4909      	ldr	r1, [pc, #36]	; (800856c <USBD_FS_SerialStrDescriptor+0x40>)
 8008546:	681c      	ldr	r4, [r3, #0]
 8008548:	2208      	movs	r2, #8
 800854a:	f7ff ffd7 	bl	80084fc <IntToUnicode>
 800854e:	4620      	mov	r0, r4
 8008550:	2204      	movs	r2, #4
 8008552:	4907      	ldr	r1, [pc, #28]	; (8008570 <USBD_FS_SerialStrDescriptor+0x44>)
 8008554:	f7ff ffd2 	bl	80084fc <IntToUnicode>
 8008558:	4802      	ldr	r0, [pc, #8]	; (8008564 <USBD_FS_SerialStrDescriptor+0x38>)
 800855a:	bd10      	pop	{r4, pc}
 800855c:	1fff7a10 	.word	0x1fff7a10
 8008560:	1fff7a18 	.word	0x1fff7a18
 8008564:	2000017c 	.word	0x2000017c
 8008568:	1fff7a14 	.word	0x1fff7a14
 800856c:	2000017e 	.word	0x2000017e
 8008570:	2000018e 	.word	0x2000018e

08008574 <USBD_FS_ManufacturerStrDescriptor>:
 8008574:	b510      	push	{r4, lr}
 8008576:	4c04      	ldr	r4, [pc, #16]	; (8008588 <USBD_FS_ManufacturerStrDescriptor+0x14>)
 8008578:	4804      	ldr	r0, [pc, #16]	; (800858c <USBD_FS_ManufacturerStrDescriptor+0x18>)
 800857a:	460a      	mov	r2, r1
 800857c:	4621      	mov	r1, r4
 800857e:	f7fe fec3 	bl	8007308 <USBD_GetString>
 8008582:	4620      	mov	r0, r4
 8008584:	bd10      	pop	{r4, pc}
 8008586:	bf00      	nop
 8008588:	200010e4 	.word	0x200010e4
 800858c:	0800a96c 	.word	0x0800a96c

08008590 <USBD_FS_ProductStrDescriptor>:
 8008590:	b510      	push	{r4, lr}
 8008592:	4c04      	ldr	r4, [pc, #16]	; (80085a4 <USBD_FS_ProductStrDescriptor+0x14>)
 8008594:	4804      	ldr	r0, [pc, #16]	; (80085a8 <USBD_FS_ProductStrDescriptor+0x18>)
 8008596:	460a      	mov	r2, r1
 8008598:	4621      	mov	r1, r4
 800859a:	f7fe feb5 	bl	8007308 <USBD_GetString>
 800859e:	4620      	mov	r0, r4
 80085a0:	bd10      	pop	{r4, pc}
 80085a2:	bf00      	nop
 80085a4:	200010e4 	.word	0x200010e4
 80085a8:	0800a97c 	.word	0x0800a97c

080085ac <USBD_FS_ConfigStrDescriptor>:
 80085ac:	b510      	push	{r4, lr}
 80085ae:	4c04      	ldr	r4, [pc, #16]	; (80085c0 <USBD_FS_ConfigStrDescriptor+0x14>)
 80085b0:	4804      	ldr	r0, [pc, #16]	; (80085c4 <USBD_FS_ConfigStrDescriptor+0x18>)
 80085b2:	460a      	mov	r2, r1
 80085b4:	4621      	mov	r1, r4
 80085b6:	f7fe fea7 	bl	8007308 <USBD_GetString>
 80085ba:	4620      	mov	r0, r4
 80085bc:	bd10      	pop	{r4, pc}
 80085be:	bf00      	nop
 80085c0:	200010e4 	.word	0x200010e4
 80085c4:	0800a94c 	.word	0x0800a94c

080085c8 <USBD_FS_InterfaceStrDescriptor>:
 80085c8:	b510      	push	{r4, lr}
 80085ca:	4c04      	ldr	r4, [pc, #16]	; (80085dc <USBD_FS_InterfaceStrDescriptor+0x14>)
 80085cc:	4804      	ldr	r0, [pc, #16]	; (80085e0 <USBD_FS_InterfaceStrDescriptor+0x18>)
 80085ce:	460a      	mov	r2, r1
 80085d0:	4621      	mov	r1, r4
 80085d2:	f7fe fe99 	bl	8007308 <USBD_GetString>
 80085d6:	4620      	mov	r0, r4
 80085d8:	bd10      	pop	{r4, pc}
 80085da:	bf00      	nop
 80085dc:	200010e4 	.word	0x200010e4
 80085e0:	0800a95c 	.word	0x0800a95c

080085e4 <Reset_Handler>:
 80085e4:	f8df d034 	ldr.w	sp, [pc, #52]	; 800861c <LoopFillZerobss+0x14>
 80085e8:	2100      	movs	r1, #0
 80085ea:	e003      	b.n	80085f4 <LoopCopyDataInit>

080085ec <CopyDataInit>:
 80085ec:	4b0c      	ldr	r3, [pc, #48]	; (8008620 <LoopFillZerobss+0x18>)
 80085ee:	585b      	ldr	r3, [r3, r1]
 80085f0:	5043      	str	r3, [r0, r1]
 80085f2:	3104      	adds	r1, #4

080085f4 <LoopCopyDataInit>:
 80085f4:	480b      	ldr	r0, [pc, #44]	; (8008624 <LoopFillZerobss+0x1c>)
 80085f6:	4b0c      	ldr	r3, [pc, #48]	; (8008628 <LoopFillZerobss+0x20>)
 80085f8:	1842      	adds	r2, r0, r1
 80085fa:	429a      	cmp	r2, r3
 80085fc:	d3f6      	bcc.n	80085ec <CopyDataInit>
 80085fe:	4a0b      	ldr	r2, [pc, #44]	; (800862c <LoopFillZerobss+0x24>)
 8008600:	e002      	b.n	8008608 <LoopFillZerobss>

08008602 <FillZerobss>:
 8008602:	2300      	movs	r3, #0
 8008604:	f842 3b04 	str.w	r3, [r2], #4

08008608 <LoopFillZerobss>:
 8008608:	4b09      	ldr	r3, [pc, #36]	; (8008630 <LoopFillZerobss+0x28>)
 800860a:	429a      	cmp	r2, r3
 800860c:	d3f9      	bcc.n	8008602 <FillZerobss>
 800860e:	f7ff fce7 	bl	8007fe0 <SystemInit>
 8008612:	f000 f817 	bl	8008644 <__libc_init_array>
 8008616:	f7fe ffff 	bl	8007618 <main>
 800861a:	4770      	bx	lr
 800861c:	20010000 	.word	0x20010000
 8008620:	0800ac28 	.word	0x0800ac28
 8008624:	20000000 	.word	0x20000000
 8008628:	20000368 	.word	0x20000368
 800862c:	20000368 	.word	0x20000368
 8008630:	200012e8 	.word	0x200012e8

08008634 <ADC_IRQHandler>:
 8008634:	e7fe      	b.n	8008634 <ADC_IRQHandler>
	...

08008638 <__errno>:
 8008638:	4b01      	ldr	r3, [pc, #4]	; (8008640 <__errno+0x8>)
 800863a:	6818      	ldr	r0, [r3, #0]
 800863c:	4770      	bx	lr
 800863e:	bf00      	nop
 8008640:	20000198 	.word	0x20000198

08008644 <__libc_init_array>:
 8008644:	b570      	push	{r4, r5, r6, lr}
 8008646:	4e0d      	ldr	r6, [pc, #52]	; (800867c <__libc_init_array+0x38>)
 8008648:	4c0d      	ldr	r4, [pc, #52]	; (8008680 <__libc_init_array+0x3c>)
 800864a:	1ba4      	subs	r4, r4, r6
 800864c:	10a4      	asrs	r4, r4, #2
 800864e:	2500      	movs	r5, #0
 8008650:	42a5      	cmp	r5, r4
 8008652:	d109      	bne.n	8008668 <__libc_init_array+0x24>
 8008654:	4e0b      	ldr	r6, [pc, #44]	; (8008684 <__libc_init_array+0x40>)
 8008656:	4c0c      	ldr	r4, [pc, #48]	; (8008688 <__libc_init_array+0x44>)
 8008658:	f002 f948 	bl	800a8ec <_init>
 800865c:	1ba4      	subs	r4, r4, r6
 800865e:	10a4      	asrs	r4, r4, #2
 8008660:	2500      	movs	r5, #0
 8008662:	42a5      	cmp	r5, r4
 8008664:	d105      	bne.n	8008672 <__libc_init_array+0x2e>
 8008666:	bd70      	pop	{r4, r5, r6, pc}
 8008668:	f856 3025 	ldr.w	r3, [r6, r5, lsl #2]
 800866c:	4798      	blx	r3
 800866e:	3501      	adds	r5, #1
 8008670:	e7ee      	b.n	8008650 <__libc_init_array+0xc>
 8008672:	f856 3025 	ldr.w	r3, [r6, r5, lsl #2]
 8008676:	4798      	blx	r3
 8008678:	3501      	adds	r5, #1
 800867a:	e7f2      	b.n	8008662 <__libc_init_array+0x1e>
 800867c:	0800ac20 	.word	0x0800ac20
 8008680:	0800ac20 	.word	0x0800ac20
 8008684:	0800ac20 	.word	0x0800ac20
 8008688:	0800ac24 	.word	0x0800ac24

0800868c <malloc>:
 800868c:	4b02      	ldr	r3, [pc, #8]	; (8008698 <malloc+0xc>)
 800868e:	4601      	mov	r1, r0
 8008690:	6818      	ldr	r0, [r3, #0]
 8008692:	f000 b861 	b.w	8008758 <_malloc_r>
 8008696:	bf00      	nop
 8008698:	20000198 	.word	0x20000198

0800869c <free>:
 800869c:	4b02      	ldr	r3, [pc, #8]	; (80086a8 <free+0xc>)
 800869e:	4601      	mov	r1, r0
 80086a0:	6818      	ldr	r0, [r3, #0]
 80086a2:	f000 b80b 	b.w	80086bc <_free_r>
 80086a6:	bf00      	nop
 80086a8:	20000198 	.word	0x20000198

080086ac <memset>:
 80086ac:	4402      	add	r2, r0
 80086ae:	4603      	mov	r3, r0
 80086b0:	4293      	cmp	r3, r2
 80086b2:	d100      	bne.n	80086b6 <memset+0xa>
 80086b4:	4770      	bx	lr
 80086b6:	f803 1b01 	strb.w	r1, [r3], #1
 80086ba:	e7f9      	b.n	80086b0 <memset+0x4>

080086bc <_free_r>:
 80086bc:	b538      	push	{r3, r4, r5, lr}
 80086be:	4605      	mov	r5, r0
 80086c0:	2900      	cmp	r1, #0
 80086c2:	d045      	beq.n	8008750 <_free_r+0x94>
 80086c4:	f851 3c04 	ldr.w	r3, [r1, #-4]
 80086c8:	1f0c      	subs	r4, r1, #4
 80086ca:	2b00      	cmp	r3, #0
 80086cc:	bfb8      	it	lt
 80086ce:	18e4      	addlt	r4, r4, r3
 80086d0:	f001 fd55 	bl	800a17e <__malloc_lock>
 80086d4:	4a1f      	ldr	r2, [pc, #124]	; (8008754 <_free_r+0x98>)
 80086d6:	6813      	ldr	r3, [r2, #0]
 80086d8:	4610      	mov	r0, r2
 80086da:	b933      	cbnz	r3, 80086ea <_free_r+0x2e>
 80086dc:	6063      	str	r3, [r4, #4]
 80086de:	6014      	str	r4, [r2, #0]
 80086e0:	4628      	mov	r0, r5
 80086e2:	e8bd 4038 	ldmia.w	sp!, {r3, r4, r5, lr}
 80086e6:	f001 bd4b 	b.w	800a180 <__malloc_unlock>
 80086ea:	42a3      	cmp	r3, r4
 80086ec:	d90c      	bls.n	8008708 <_free_r+0x4c>
 80086ee:	6821      	ldr	r1, [r4, #0]
 80086f0:	1862      	adds	r2, r4, r1
 80086f2:	4293      	cmp	r3, r2
 80086f4:	bf04      	itt	eq
 80086f6:	681a      	ldreq	r2, [r3, #0]
 80086f8:	685b      	ldreq	r3, [r3, #4]
 80086fa:	6063      	str	r3, [r4, #4]
 80086fc:	bf04      	itt	eq
 80086fe:	1852      	addeq	r2, r2, r1
 8008700:	6022      	streq	r2, [r4, #0]
 8008702:	6004      	str	r4, [r0, #0]
 8008704:	e7ec      	b.n	80086e0 <_free_r+0x24>
 8008706:	4613      	mov	r3, r2
 8008708:	685a      	ldr	r2, [r3, #4]
 800870a:	b10a      	cbz	r2, 8008710 <_free_r+0x54>
 800870c:	42a2      	cmp	r2, r4
 800870e:	d9fa      	bls.n	8008706 <_free_r+0x4a>
 8008710:	6819      	ldr	r1, [r3, #0]
 8008712:	1858      	adds	r0, r3, r1
 8008714:	42a0      	cmp	r0, r4
 8008716:	d10b      	bne.n	8008730 <_free_r+0x74>
 8008718:	6820      	ldr	r0, [r4, #0]
 800871a:	4401      	add	r1, r0
 800871c:	1858      	adds	r0, r3, r1
 800871e:	4282      	cmp	r2, r0
 8008720:	6019      	str	r1, [r3, #0]
 8008722:	d1dd      	bne.n	80086e0 <_free_r+0x24>
 8008724:	6810      	ldr	r0, [r2, #0]
 8008726:	6852      	ldr	r2, [r2, #4]
 8008728:	605a      	str	r2, [r3, #4]
 800872a:	4401      	add	r1, r0
 800872c:	6019      	str	r1, [r3, #0]
 800872e:	e7d7      	b.n	80086e0 <_free_r+0x24>
 8008730:	d902      	bls.n	8008738 <_free_r+0x7c>
 8008732:	230c      	movs	r3, #12
 8008734:	602b      	str	r3, [r5, #0]
 8008736:	e7d3      	b.n	80086e0 <_free_r+0x24>
 8008738:	6820      	ldr	r0, [r4, #0]
 800873a:	1821      	adds	r1, r4, r0
 800873c:	428a      	cmp	r2, r1
 800873e:	bf04      	itt	eq
 8008740:	6811      	ldreq	r1, [r2, #0]
 8008742:	6852      	ldreq	r2, [r2, #4]
 8008744:	6062      	str	r2, [r4, #4]
 8008746:	bf04      	itt	eq
 8008748:	1809      	addeq	r1, r1, r0
 800874a:	6021      	streq	r1, [r4, #0]
 800874c:	605c      	str	r4, [r3, #4]
 800874e:	e7c7      	b.n	80086e0 <_free_r+0x24>
 8008750:	bd38      	pop	{r3, r4, r5, pc}
 8008752:	bf00      	nop
 8008754:	200003bc 	.word	0x200003bc

08008758 <_malloc_r>:
 8008758:	b570      	push	{r4, r5, r6, lr}
 800875a:	1ccd      	adds	r5, r1, #3
 800875c:	f025 0503 	bic.w	r5, r5, #3
 8008760:	3508      	adds	r5, #8
 8008762:	2d0c      	cmp	r5, #12
 8008764:	bf38      	it	cc
 8008766:	250c      	movcc	r5, #12
 8008768:	2d00      	cmp	r5, #0
 800876a:	4606      	mov	r6, r0
 800876c:	db01      	blt.n	8008772 <_malloc_r+0x1a>
 800876e:	42a9      	cmp	r1, r5
 8008770:	d903      	bls.n	800877a <_malloc_r+0x22>
 8008772:	230c      	movs	r3, #12
 8008774:	6033      	str	r3, [r6, #0]
 8008776:	2000      	movs	r0, #0
 8008778:	bd70      	pop	{r4, r5, r6, pc}
 800877a:	f001 fd00 	bl	800a17e <__malloc_lock>
 800877e:	4a21      	ldr	r2, [pc, #132]	; (8008804 <_malloc_r+0xac>)
 8008780:	6814      	ldr	r4, [r2, #0]
 8008782:	4621      	mov	r1, r4
 8008784:	b991      	cbnz	r1, 80087ac <_malloc_r+0x54>
 8008786:	4c20      	ldr	r4, [pc, #128]	; (8008808 <_malloc_r+0xb0>)
 8008788:	6823      	ldr	r3, [r4, #0]
 800878a:	b91b      	cbnz	r3, 8008794 <_malloc_r+0x3c>
 800878c:	4630      	mov	r0, r6
 800878e:	f000 fbeb 	bl	8008f68 <_sbrk_r>
 8008792:	6020      	str	r0, [r4, #0]
 8008794:	4629      	mov	r1, r5
 8008796:	4630      	mov	r0, r6
 8008798:	f000 fbe6 	bl	8008f68 <_sbrk_r>
 800879c:	1c43      	adds	r3, r0, #1
 800879e:	d124      	bne.n	80087ea <_malloc_r+0x92>
 80087a0:	230c      	movs	r3, #12
 80087a2:	6033      	str	r3, [r6, #0]
 80087a4:	4630      	mov	r0, r6
 80087a6:	f001 fceb 	bl	800a180 <__malloc_unlock>
 80087aa:	e7e4      	b.n	8008776 <_malloc_r+0x1e>
 80087ac:	680b      	ldr	r3, [r1, #0]
 80087ae:	1b5b      	subs	r3, r3, r5
 80087b0:	d418      	bmi.n	80087e4 <_malloc_r+0x8c>
 80087b2:	2b0b      	cmp	r3, #11
 80087b4:	d90f      	bls.n	80087d6 <_malloc_r+0x7e>
 80087b6:	600b      	str	r3, [r1, #0]
 80087b8:	50cd      	str	r5, [r1, r3]
 80087ba:	18cc      	adds	r4, r1, r3
 80087bc:	4630      	mov	r0, r6
 80087be:	f001 fcdf 	bl	800a180 <__malloc_unlock>
 80087c2:	f104 000b 	add.w	r0, r4, #11
 80087c6:	1d23      	adds	r3, r4, #4
 80087c8:	f020 0007 	bic.w	r0, r0, #7
 80087cc:	1ac3      	subs	r3, r0, r3
 80087ce:	d0d3      	beq.n	8008778 <_malloc_r+0x20>
 80087d0:	425a      	negs	r2, r3
 80087d2:	50e2      	str	r2, [r4, r3]
 80087d4:	e7d0      	b.n	8008778 <_malloc_r+0x20>
 80087d6:	428c      	cmp	r4, r1
 80087d8:	684b      	ldr	r3, [r1, #4]
 80087da:	bf16      	itet	ne
 80087dc:	6063      	strne	r3, [r4, #4]
 80087de:	6013      	streq	r3, [r2, #0]
 80087e0:	460c      	movne	r4, r1
 80087e2:	e7eb      	b.n	80087bc <_malloc_r+0x64>
 80087e4:	460c      	mov	r4, r1
 80087e6:	6849      	ldr	r1, [r1, #4]
 80087e8:	e7cc      	b.n	8008784 <_malloc_r+0x2c>
 80087ea:	1cc4      	adds	r4, r0, #3
 80087ec:	f024 0403 	bic.w	r4, r4, #3
 80087f0:	42a0      	cmp	r0, r4
 80087f2:	d005      	beq.n	8008800 <_malloc_r+0xa8>
 80087f4:	1a21      	subs	r1, r4, r0
 80087f6:	4630      	mov	r0, r6
 80087f8:	f000 fbb6 	bl	8008f68 <_sbrk_r>
 80087fc:	3001      	adds	r0, #1
 80087fe:	d0cf      	beq.n	80087a0 <_malloc_r+0x48>
 8008800:	6025      	str	r5, [r4, #0]
 8008802:	e7db      	b.n	80087bc <_malloc_r+0x64>
 8008804:	200003bc 	.word	0x200003bc
 8008808:	200003c0 	.word	0x200003c0

0800880c <__cvt>:
 800880c:	e92d 47ff 	stmdb	sp!, {r0, r1, r2, r3, r4, r5, r6, r7, r8, r9, sl, lr}
 8008810:	ec55 4b10 	vmov	r4, r5, d0
 8008814:	9f0d      	ldr	r7, [sp, #52]	; 0x34
 8008816:	f8dd a030 	ldr.w	sl, [sp, #48]	; 0x30
 800881a:	2d00      	cmp	r5, #0
 800881c:	460e      	mov	r6, r1
 800881e:	4691      	mov	r9, r2
 8008820:	4619      	mov	r1, r3
 8008822:	bfb8      	it	lt
 8008824:	4622      	movlt	r2, r4
 8008826:	462b      	mov	r3, r5
 8008828:	f027 0720 	bic.w	r7, r7, #32
 800882c:	bfbb      	ittet	lt
 800882e:	f105 4300 	addlt.w	r3, r5, #2147483648	; 0x80000000
 8008832:	461d      	movlt	r5, r3
 8008834:	2300      	movge	r3, #0
 8008836:	232d      	movlt	r3, #45	; 0x2d
 8008838:	bfb8      	it	lt
 800883a:	4614      	movlt	r4, r2
 800883c:	2f46      	cmp	r7, #70	; 0x46
 800883e:	700b      	strb	r3, [r1, #0]
 8008840:	d004      	beq.n	800884c <__cvt+0x40>
 8008842:	2f45      	cmp	r7, #69	; 0x45
 8008844:	d100      	bne.n	8008848 <__cvt+0x3c>
 8008846:	3601      	adds	r6, #1
 8008848:	2102      	movs	r1, #2
 800884a:	e000      	b.n	800884e <__cvt+0x42>
 800884c:	2103      	movs	r1, #3
 800884e:	ab03      	add	r3, sp, #12
 8008850:	9301      	str	r3, [sp, #4]
 8008852:	ab02      	add	r3, sp, #8
 8008854:	9300      	str	r3, [sp, #0]
 8008856:	4632      	mov	r2, r6
 8008858:	4653      	mov	r3, sl
 800885a:	ec45 4b10 	vmov	d0, r4, r5
 800885e:	f000 fcdf 	bl	8009220 <_dtoa_r>
 8008862:	2f47      	cmp	r7, #71	; 0x47
 8008864:	4680      	mov	r8, r0
 8008866:	d102      	bne.n	800886e <__cvt+0x62>
 8008868:	f019 0f01 	tst.w	r9, #1
 800886c:	d026      	beq.n	80088bc <__cvt+0xb0>
 800886e:	2f46      	cmp	r7, #70	; 0x46
 8008870:	eb08 0906 	add.w	r9, r8, r6
 8008874:	d111      	bne.n	800889a <__cvt+0x8e>
 8008876:	f898 3000 	ldrb.w	r3, [r8]
 800887a:	2b30      	cmp	r3, #48	; 0x30
 800887c:	d10a      	bne.n	8008894 <__cvt+0x88>
 800887e:	2200      	movs	r2, #0
 8008880:	2300      	movs	r3, #0
 8008882:	4620      	mov	r0, r4
 8008884:	4629      	mov	r1, r5
 8008886:	f7f8 f8d3 	bl	8000a30 <__aeabi_dcmpeq>
 800888a:	b918      	cbnz	r0, 8008894 <__cvt+0x88>
 800888c:	f1c6 0601 	rsb	r6, r6, #1
 8008890:	f8ca 6000 	str.w	r6, [sl]
 8008894:	f8da 3000 	ldr.w	r3, [sl]
 8008898:	4499      	add	r9, r3
 800889a:	2200      	movs	r2, #0
 800889c:	2300      	movs	r3, #0
 800889e:	4620      	mov	r0, r4
 80088a0:	4629      	mov	r1, r5
 80088a2:	f7f8 f8c5 	bl	8000a30 <__aeabi_dcmpeq>
 80088a6:	b938      	cbnz	r0, 80088b8 <__cvt+0xac>
 80088a8:	2230      	movs	r2, #48	; 0x30
 80088aa:	9b03      	ldr	r3, [sp, #12]
 80088ac:	454b      	cmp	r3, r9
 80088ae:	d205      	bcs.n	80088bc <__cvt+0xb0>
 80088b0:	1c59      	adds	r1, r3, #1
 80088b2:	9103      	str	r1, [sp, #12]
 80088b4:	701a      	strb	r2, [r3, #0]
 80088b6:	e7f8      	b.n	80088aa <__cvt+0x9e>
 80088b8:	f8cd 900c 	str.w	r9, [sp, #12]
 80088bc:	9b03      	ldr	r3, [sp, #12]
 80088be:	9a0e      	ldr	r2, [sp, #56]	; 0x38
 80088c0:	eba3 0308 	sub.w	r3, r3, r8
 80088c4:	4640      	mov	r0, r8
 80088c6:	6013      	str	r3, [r2, #0]
 80088c8:	b004      	add	sp, #16
 80088ca:	e8bd 87f0 	ldmia.w	sp!, {r4, r5, r6, r7, r8, r9, sl, pc}

080088ce <__exponent>:
 80088ce:	b5f7      	push	{r0, r1, r2, r4, r5, r6, r7, lr}
 80088d0:	2900      	cmp	r1, #0
 80088d2:	4604      	mov	r4, r0
 80088d4:	bfba      	itte	lt
 80088d6:	4249      	neglt	r1, r1
 80088d8:	232d      	movlt	r3, #45	; 0x2d
 80088da:	232b      	movge	r3, #43	; 0x2b
 80088dc:	2909      	cmp	r1, #9
 80088de:	f804 2b02 	strb.w	r2, [r4], #2
 80088e2:	7043      	strb	r3, [r0, #1]
 80088e4:	dd20      	ble.n	8008928 <__exponent+0x5a>
 80088e6:	f10d 0307 	add.w	r3, sp, #7
 80088ea:	461f      	mov	r7, r3
 80088ec:	260a      	movs	r6, #10
 80088ee:	fb91 f5f6 	sdiv	r5, r1, r6
 80088f2:	fb06 1115 	mls	r1, r6, r5, r1
 80088f6:	3130      	adds	r1, #48	; 0x30
 80088f8:	2d09      	cmp	r5, #9
 80088fa:	f803 1c01 	strb.w	r1, [r3, #-1]
 80088fe:	f103 32ff 	add.w	r2, r3, #4294967295
 8008902:	4629      	mov	r1, r5
 8008904:	dc09      	bgt.n	800891a <__exponent+0x4c>
 8008906:	3130      	adds	r1, #48	; 0x30
 8008908:	3b02      	subs	r3, #2
 800890a:	f802 1c01 	strb.w	r1, [r2, #-1]
 800890e:	42bb      	cmp	r3, r7
 8008910:	4622      	mov	r2, r4
 8008912:	d304      	bcc.n	800891e <__exponent+0x50>
 8008914:	1a10      	subs	r0, r2, r0
 8008916:	b003      	add	sp, #12
 8008918:	bdf0      	pop	{r4, r5, r6, r7, pc}
 800891a:	4613      	mov	r3, r2
 800891c:	e7e7      	b.n	80088ee <__exponent+0x20>
 800891e:	f813 2b01 	ldrb.w	r2, [r3], #1
 8008922:	f804 2b01 	strb.w	r2, [r4], #1
 8008926:	e7f2      	b.n	800890e <__exponent+0x40>
 8008928:	2330      	movs	r3, #48	; 0x30
 800892a:	4419      	add	r1, r3
 800892c:	7083      	strb	r3, [r0, #2]
 800892e:	1d02      	adds	r2, r0, #4
 8008930:	70c1      	strb	r1, [r0, #3]
 8008932:	e7ef      	b.n	8008914 <__exponent+0x46>

08008934 <_printf_float>:
 8008934:	e92d 4ff0 	stmdb	sp!, {r4, r5, r6, r7, r8, r9, sl, fp, lr}
 8008938:	b08d      	sub	sp, #52	; 0x34
 800893a:	460c      	mov	r4, r1
 800893c:	f8dd 8058 	ldr.w	r8, [sp, #88]	; 0x58
 8008940:	4616      	mov	r6, r2
 8008942:	461f      	mov	r7, r3
 8008944:	4605      	mov	r5, r0
 8008946:	f001 fb9d 	bl	800a084 <_localeconv_r>
 800894a:	6803      	ldr	r3, [r0, #0]
 800894c:	9304      	str	r3, [sp, #16]
 800894e:	4618      	mov	r0, r3
 8008950:	f7f7 fc42 	bl	80001d8 <strlen>
 8008954:	2300      	movs	r3, #0
 8008956:	930a      	str	r3, [sp, #40]	; 0x28
 8008958:	f8d8 3000 	ldr.w	r3, [r8]
 800895c:	9005      	str	r0, [sp, #20]
 800895e:	3307      	adds	r3, #7
 8008960:	f023 0307 	bic.w	r3, r3, #7
 8008964:	f103 0208 	add.w	r2, r3, #8
 8008968:	f894 a018 	ldrb.w	sl, [r4, #24]
 800896c:	f8d4 b000 	ldr.w	fp, [r4]
 8008970:	f8c8 2000 	str.w	r2, [r8]
 8008974:	e9d3 2300 	ldrd	r2, r3, [r3]
 8008978:	e9c4 2312 	strd	r2, r3, [r4, #72]	; 0x48
 800897c:	e9d4 8912 	ldrd	r8, r9, [r4, #72]	; 0x48
 8008980:	f029 4300 	bic.w	r3, r9, #2147483648	; 0x80000000
 8008984:	9307      	str	r3, [sp, #28]
 8008986:	f8cd 8018 	str.w	r8, [sp, #24]
 800898a:	f04f 32ff 	mov.w	r2, #4294967295
 800898e:	4ba7      	ldr	r3, [pc, #668]	; (8008c2c <_printf_float+0x2f8>)
 8008990:	e9dd 0106 	ldrd	r0, r1, [sp, #24]
 8008994:	f7f8 f87e 	bl	8000a94 <__aeabi_dcmpun>
 8008998:	bb70      	cbnz	r0, 80089f8 <_printf_float+0xc4>
 800899a:	f04f 32ff 	mov.w	r2, #4294967295
 800899e:	4ba3      	ldr	r3, [pc, #652]	; (8008c2c <_printf_float+0x2f8>)
 80089a0:	e9dd 0106 	ldrd	r0, r1, [sp, #24]
 80089a4:	f7f8 f858 	bl	8000a58 <__aeabi_dcmple>
 80089a8:	bb30      	cbnz	r0, 80089f8 <_printf_float+0xc4>
 80089aa:	2200      	movs	r2, #0
 80089ac:	2300      	movs	r3, #0
 80089ae:	4640      	mov	r0, r8
 80089b0:	4649      	mov	r1, r9
 80089b2:	f7f8 f847 	bl	8000a44 <__aeabi_dcmplt>
 80089b6:	b110      	cbz	r0, 80089be <_printf_float+0x8a>
 80089b8:	232d      	movs	r3, #45	; 0x2d
 80089ba:	f884 3043 	strb.w	r3, [r4, #67]	; 0x43
 80089be:	4a9c      	ldr	r2, [pc, #624]	; (8008c30 <_printf_float+0x2fc>)
 80089c0:	4b9c      	ldr	r3, [pc, #624]	; (8008c34 <_printf_float+0x300>)
 80089c2:	f1ba 0f47 	cmp.w	sl, #71	; 0x47
 80089c6:	bf8c      	ite	hi
 80089c8:	4690      	movhi	r8, r2
 80089ca:	4698      	movls	r8, r3
 80089cc:	2303      	movs	r3, #3
 80089ce:	f02b 0204 	bic.w	r2, fp, #4
 80089d2:	6123      	str	r3, [r4, #16]
 80089d4:	6022      	str	r2, [r4, #0]
 80089d6:	f04f 0900 	mov.w	r9, #0
 80089da:	9700      	str	r7, [sp, #0]
 80089dc:	4633      	mov	r3, r6
 80089de:	aa0b      	add	r2, sp, #44	; 0x2c
 80089e0:	4621      	mov	r1, r4
 80089e2:	4628      	mov	r0, r5
 80089e4:	f000 f9e6 	bl	8008db4 <_printf_common>
 80089e8:	3001      	adds	r0, #1
 80089ea:	f040 808d 	bne.w	8008b08 <_printf_float+0x1d4>
 80089ee:	f04f 30ff 	mov.w	r0, #4294967295
 80089f2:	b00d      	add	sp, #52	; 0x34
 80089f4:	e8bd 8ff0 	ldmia.w	sp!, {r4, r5, r6, r7, r8, r9, sl, fp, pc}
 80089f8:	4642      	mov	r2, r8
 80089fa:	464b      	mov	r3, r9
 80089fc:	4640      	mov	r0, r8
 80089fe:	4649      	mov	r1, r9
 8008a00:	f7f8 f848 	bl	8000a94 <__aeabi_dcmpun>
 8008a04:	b110      	cbz	r0, 8008a0c <_printf_float+0xd8>
 8008a06:	4a8c      	ldr	r2, [pc, #560]	; (8008c38 <_printf_float+0x304>)
 8008a08:	4b8c      	ldr	r3, [pc, #560]	; (8008c3c <_printf_float+0x308>)
 8008a0a:	e7da      	b.n	80089c2 <_printf_float+0x8e>
 8008a0c:	6861      	ldr	r1, [r4, #4]
 8008a0e:	1c4b      	adds	r3, r1, #1
 8008a10:	f44b 6280 	orr.w	r2, fp, #1024	; 0x400
 8008a14:	a80a      	add	r0, sp, #40	; 0x28
 8008a16:	d13e      	bne.n	8008a96 <_printf_float+0x162>
 8008a18:	2306      	movs	r3, #6
 8008a1a:	6063      	str	r3, [r4, #4]
 8008a1c:	2300      	movs	r3, #0
 8008a1e:	e9cd 0302 	strd	r0, r3, [sp, #8]
 8008a22:	ab09      	add	r3, sp, #36	; 0x24
 8008a24:	9300      	str	r3, [sp, #0]
 8008a26:	ec49 8b10 	vmov	d0, r8, r9
 8008a2a:	f10d 0323 	add.w	r3, sp, #35	; 0x23
 8008a2e:	6022      	str	r2, [r4, #0]
 8008a30:	f8cd a004 	str.w	sl, [sp, #4]
 8008a34:	6861      	ldr	r1, [r4, #4]
 8008a36:	4628      	mov	r0, r5
 8008a38:	f7ff fee8 	bl	800880c <__cvt>
 8008a3c:	f00a 03df 	and.w	r3, sl, #223	; 0xdf
 8008a40:	2b47      	cmp	r3, #71	; 0x47
 8008a42:	4680      	mov	r8, r0
 8008a44:	d109      	bne.n	8008a5a <_printf_float+0x126>
 8008a46:	9b09      	ldr	r3, [sp, #36]	; 0x24
 8008a48:	1cd8      	adds	r0, r3, #3
 8008a4a:	db02      	blt.n	8008a52 <_printf_float+0x11e>
 8008a4c:	6862      	ldr	r2, [r4, #4]
 8008a4e:	4293      	cmp	r3, r2
 8008a50:	dd47      	ble.n	8008ae2 <_printf_float+0x1ae>
 8008a52:	f1aa 0a02 	sub.w	sl, sl, #2
 8008a56:	fa5f fa8a 	uxtb.w	sl, sl
 8008a5a:	f1ba 0f65 	cmp.w	sl, #101	; 0x65
 8008a5e:	9909      	ldr	r1, [sp, #36]	; 0x24
 8008a60:	d824      	bhi.n	8008aac <_printf_float+0x178>
 8008a62:	3901      	subs	r1, #1
 8008a64:	4652      	mov	r2, sl
 8008a66:	f104 0050 	add.w	r0, r4, #80	; 0x50
 8008a6a:	9109      	str	r1, [sp, #36]	; 0x24
 8008a6c:	f7ff ff2f 	bl	80088ce <__exponent>
 8008a70:	9a0a      	ldr	r2, [sp, #40]	; 0x28
 8008a72:	1813      	adds	r3, r2, r0
 8008a74:	2a01      	cmp	r2, #1
 8008a76:	4681      	mov	r9, r0
 8008a78:	6123      	str	r3, [r4, #16]
 8008a7a:	dc02      	bgt.n	8008a82 <_printf_float+0x14e>
 8008a7c:	6822      	ldr	r2, [r4, #0]
 8008a7e:	07d1      	lsls	r1, r2, #31
 8008a80:	d501      	bpl.n	8008a86 <_printf_float+0x152>
 8008a82:	3301      	adds	r3, #1
 8008a84:	6123      	str	r3, [r4, #16]
 8008a86:	f89d 3023 	ldrb.w	r3, [sp, #35]	; 0x23
 8008a8a:	2b00      	cmp	r3, #0
 8008a8c:	d0a5      	beq.n	80089da <_printf_float+0xa6>
 8008a8e:	232d      	movs	r3, #45	; 0x2d
 8008a90:	f884 3043 	strb.w	r3, [r4, #67]	; 0x43
 8008a94:	e7a1      	b.n	80089da <_printf_float+0xa6>
 8008a96:	f1ba 0f67 	cmp.w	sl, #103	; 0x67
 8008a9a:	f000 8177 	beq.w	8008d8c <_printf_float+0x458>
 8008a9e:	f1ba 0f47 	cmp.w	sl, #71	; 0x47
 8008aa2:	d1bb      	bne.n	8008a1c <_printf_float+0xe8>
 8008aa4:	2900      	cmp	r1, #0
 8008aa6:	d1b9      	bne.n	8008a1c <_printf_float+0xe8>
 8008aa8:	2301      	movs	r3, #1
 8008aaa:	e7b6      	b.n	8008a1a <_printf_float+0xe6>
 8008aac:	f1ba 0f66 	cmp.w	sl, #102	; 0x66
 8008ab0:	d119      	bne.n	8008ae6 <_printf_float+0x1b2>
 8008ab2:	2900      	cmp	r1, #0
 8008ab4:	6863      	ldr	r3, [r4, #4]
 8008ab6:	dd0c      	ble.n	8008ad2 <_printf_float+0x19e>
 8008ab8:	6121      	str	r1, [r4, #16]
 8008aba:	b913      	cbnz	r3, 8008ac2 <_printf_float+0x18e>
 8008abc:	6822      	ldr	r2, [r4, #0]
 8008abe:	07d2      	lsls	r2, r2, #31
 8008ac0:	d502      	bpl.n	8008ac8 <_printf_float+0x194>
 8008ac2:	3301      	adds	r3, #1
 8008ac4:	440b      	add	r3, r1
 8008ac6:	6123      	str	r3, [r4, #16]
 8008ac8:	9b09      	ldr	r3, [sp, #36]	; 0x24
 8008aca:	65a3      	str	r3, [r4, #88]	; 0x58
 8008acc:	f04f 0900 	mov.w	r9, #0
 8008ad0:	e7d9      	b.n	8008a86 <_printf_float+0x152>
 8008ad2:	b913      	cbnz	r3, 8008ada <_printf_float+0x1a6>
 8008ad4:	6822      	ldr	r2, [r4, #0]
 8008ad6:	07d0      	lsls	r0, r2, #31
 8008ad8:	d501      	bpl.n	8008ade <_printf_float+0x1aa>
 8008ada:	3302      	adds	r3, #2
 8008adc:	e7f3      	b.n	8008ac6 <_printf_float+0x192>
 8008ade:	2301      	movs	r3, #1
 8008ae0:	e7f1      	b.n	8008ac6 <_printf_float+0x192>
 8008ae2:	f04f 0a67 	mov.w	sl, #103	; 0x67
 8008ae6:	e9dd 3209 	ldrd	r3, r2, [sp, #36]	; 0x24
 8008aea:	4293      	cmp	r3, r2
 8008aec:	db05      	blt.n	8008afa <_printf_float+0x1c6>
 8008aee:	6822      	ldr	r2, [r4, #0]
 8008af0:	6123      	str	r3, [r4, #16]
 8008af2:	07d1      	lsls	r1, r2, #31
 8008af4:	d5e8      	bpl.n	8008ac8 <_printf_float+0x194>
 8008af6:	3301      	adds	r3, #1
 8008af8:	e7e5      	b.n	8008ac6 <_printf_float+0x192>
 8008afa:	2b00      	cmp	r3, #0
 8008afc:	bfd4      	ite	le
 8008afe:	f1c3 0302 	rsble	r3, r3, #2
 8008b02:	2301      	movgt	r3, #1
 8008b04:	4413      	add	r3, r2
 8008b06:	e7de      	b.n	8008ac6 <_printf_float+0x192>
 8008b08:	6823      	ldr	r3, [r4, #0]
 8008b0a:	055a      	lsls	r2, r3, #21
 8008b0c:	d407      	bmi.n	8008b1e <_printf_float+0x1ea>
 8008b0e:	6923      	ldr	r3, [r4, #16]
 8008b10:	4642      	mov	r2, r8
 8008b12:	4631      	mov	r1, r6
 8008b14:	4628      	mov	r0, r5
 8008b16:	47b8      	blx	r7
 8008b18:	3001      	adds	r0, #1
 8008b1a:	d12b      	bne.n	8008b74 <_printf_float+0x240>
 8008b1c:	e767      	b.n	80089ee <_printf_float+0xba>
 8008b1e:	f1ba 0f65 	cmp.w	sl, #101	; 0x65
 8008b22:	f240 80dc 	bls.w	8008cde <_printf_float+0x3aa>
 8008b26:	2200      	movs	r2, #0
 8008b28:	2300      	movs	r3, #0
 8008b2a:	e9d4 0112 	ldrd	r0, r1, [r4, #72]	; 0x48
 8008b2e:	f7f7 ff7f 	bl	8000a30 <__aeabi_dcmpeq>
 8008b32:	2800      	cmp	r0, #0
 8008b34:	d033      	beq.n	8008b9e <_printf_float+0x26a>
 8008b36:	2301      	movs	r3, #1
 8008b38:	4a41      	ldr	r2, [pc, #260]	; (8008c40 <_printf_float+0x30c>)
 8008b3a:	4631      	mov	r1, r6
 8008b3c:	4628      	mov	r0, r5
 8008b3e:	47b8      	blx	r7
 8008b40:	3001      	adds	r0, #1
 8008b42:	f43f af54 	beq.w	80089ee <_printf_float+0xba>
 8008b46:	e9dd 2309 	ldrd	r2, r3, [sp, #36]	; 0x24
 8008b4a:	429a      	cmp	r2, r3
 8008b4c:	db02      	blt.n	8008b54 <_printf_float+0x220>
 8008b4e:	6823      	ldr	r3, [r4, #0]
 8008b50:	07d8      	lsls	r0, r3, #31
 8008b52:	d50f      	bpl.n	8008b74 <_printf_float+0x240>
 8008b54:	e9dd 2304 	ldrd	r2, r3, [sp, #16]
 8008b58:	4631      	mov	r1, r6
 8008b5a:	4628      	mov	r0, r5
 8008b5c:	47b8      	blx	r7
 8008b5e:	3001      	adds	r0, #1
 8008b60:	f43f af45 	beq.w	80089ee <_printf_float+0xba>
 8008b64:	f04f 0800 	mov.w	r8, #0
 8008b68:	f104 091a 	add.w	r9, r4, #26
 8008b6c:	9b0a      	ldr	r3, [sp, #40]	; 0x28
 8008b6e:	3b01      	subs	r3, #1
 8008b70:	4543      	cmp	r3, r8
 8008b72:	dc09      	bgt.n	8008b88 <_printf_float+0x254>
 8008b74:	6823      	ldr	r3, [r4, #0]
 8008b76:	079b      	lsls	r3, r3, #30
 8008b78:	f100 8103 	bmi.w	8008d82 <_printf_float+0x44e>
 8008b7c:	68e0      	ldr	r0, [r4, #12]
 8008b7e:	9b0b      	ldr	r3, [sp, #44]	; 0x2c
 8008b80:	4298      	cmp	r0, r3
 8008b82:	bfb8      	it	lt
 8008b84:	4618      	movlt	r0, r3
 8008b86:	e734      	b.n	80089f2 <_printf_float+0xbe>
 8008b88:	2301      	movs	r3, #1
 8008b8a:	464a      	mov	r2, r9
 8008b8c:	4631      	mov	r1, r6
 8008b8e:	4628      	mov	r0, r5
 8008b90:	47b8      	blx	r7
 8008b92:	3001      	adds	r0, #1
 8008b94:	f43f af2b 	beq.w	80089ee <_printf_float+0xba>
 8008b98:	f108 0801 	add.w	r8, r8, #1
 8008b9c:	e7e6      	b.n	8008b6c <_printf_float+0x238>
 8008b9e:	9b09      	ldr	r3, [sp, #36]	; 0x24
 8008ba0:	2b00      	cmp	r3, #0
 8008ba2:	dc2b      	bgt.n	8008bfc <_printf_float+0x2c8>
 8008ba4:	2301      	movs	r3, #1
 8008ba6:	4a26      	ldr	r2, [pc, #152]	; (8008c40 <_printf_float+0x30c>)
 8008ba8:	4631      	mov	r1, r6
 8008baa:	4628      	mov	r0, r5
 8008bac:	47b8      	blx	r7
 8008bae:	3001      	adds	r0, #1
 8008bb0:	f43f af1d 	beq.w	80089ee <_printf_float+0xba>
 8008bb4:	9b09      	ldr	r3, [sp, #36]	; 0x24
 8008bb6:	b923      	cbnz	r3, 8008bc2 <_printf_float+0x28e>
 8008bb8:	9b0a      	ldr	r3, [sp, #40]	; 0x28
 8008bba:	b913      	cbnz	r3, 8008bc2 <_printf_float+0x28e>
 8008bbc:	6823      	ldr	r3, [r4, #0]
 8008bbe:	07d9      	lsls	r1, r3, #31
 8008bc0:	d5d8      	bpl.n	8008b74 <_printf_float+0x240>
 8008bc2:	e9dd 2304 	ldrd	r2, r3, [sp, #16]
 8008bc6:	4631      	mov	r1, r6
 8008bc8:	4628      	mov	r0, r5
 8008bca:	47b8      	blx	r7
 8008bcc:	3001      	adds	r0, #1
 8008bce:	f43f af0e 	beq.w	80089ee <_printf_float+0xba>
 8008bd2:	f04f 0900 	mov.w	r9, #0
 8008bd6:	f104 0a1a 	add.w	sl, r4, #26
 8008bda:	9b09      	ldr	r3, [sp, #36]	; 0x24
 8008bdc:	425b      	negs	r3, r3
 8008bde:	454b      	cmp	r3, r9
 8008be0:	dc01      	bgt.n	8008be6 <_printf_float+0x2b2>
 8008be2:	9b0a      	ldr	r3, [sp, #40]	; 0x28
 8008be4:	e794      	b.n	8008b10 <_printf_float+0x1dc>
 8008be6:	2301      	movs	r3, #1
 8008be8:	4652      	mov	r2, sl
 8008bea:	4631      	mov	r1, r6
 8008bec:	4628      	mov	r0, r5
 8008bee:	47b8      	blx	r7
 8008bf0:	3001      	adds	r0, #1
 8008bf2:	f43f aefc 	beq.w	80089ee <_printf_float+0xba>
 8008bf6:	f109 0901 	add.w	r9, r9, #1
 8008bfa:	e7ee      	b.n	8008bda <_printf_float+0x2a6>
 8008bfc:	9a0a      	ldr	r2, [sp, #40]	; 0x28
 8008bfe:	6da3      	ldr	r3, [r4, #88]	; 0x58
 8008c00:	429a      	cmp	r2, r3
 8008c02:	bfa8      	it	ge
 8008c04:	461a      	movge	r2, r3
 8008c06:	2a00      	cmp	r2, #0
 8008c08:	4691      	mov	r9, r2
 8008c0a:	dd07      	ble.n	8008c1c <_printf_float+0x2e8>
 8008c0c:	4613      	mov	r3, r2
 8008c0e:	4631      	mov	r1, r6
 8008c10:	4642      	mov	r2, r8
 8008c12:	4628      	mov	r0, r5
 8008c14:	47b8      	blx	r7
 8008c16:	3001      	adds	r0, #1
 8008c18:	f43f aee9 	beq.w	80089ee <_printf_float+0xba>
 8008c1c:	f104 031a 	add.w	r3, r4, #26
 8008c20:	f04f 0b00 	mov.w	fp, #0
 8008c24:	ea29 79e9 	bic.w	r9, r9, r9, asr #31
 8008c28:	9306      	str	r3, [sp, #24]
 8008c2a:	e015      	b.n	8008c58 <_printf_float+0x324>
 8008c2c:	7fefffff 	.word	0x7fefffff
 8008c30:	0800a990 	.word	0x0800a990
 8008c34:	0800a98c 	.word	0x0800a98c
 8008c38:	0800a998 	.word	0x0800a998
 8008c3c:	0800a994 	.word	0x0800a994
 8008c40:	0800a99c 	.word	0x0800a99c
 8008c44:	2301      	movs	r3, #1
 8008c46:	9a06      	ldr	r2, [sp, #24]
 8008c48:	4631      	mov	r1, r6
 8008c4a:	4628      	mov	r0, r5
 8008c4c:	47b8      	blx	r7
 8008c4e:	3001      	adds	r0, #1
 8008c50:	f43f aecd 	beq.w	80089ee <_printf_float+0xba>
 8008c54:	f10b 0b01 	add.w	fp, fp, #1
 8008c58:	f8d4 a058 	ldr.w	sl, [r4, #88]	; 0x58
 8008c5c:	ebaa 0309 	sub.w	r3, sl, r9
 8008c60:	455b      	cmp	r3, fp
 8008c62:	dcef      	bgt.n	8008c44 <_printf_float+0x310>
 8008c64:	e9dd 2309 	ldrd	r2, r3, [sp, #36]	; 0x24
 8008c68:	429a      	cmp	r2, r3
 8008c6a:	44d0      	add	r8, sl
 8008c6c:	db15      	blt.n	8008c9a <_printf_float+0x366>
 8008c6e:	6823      	ldr	r3, [r4, #0]
 8008c70:	07da      	lsls	r2, r3, #31
 8008c72:	d412      	bmi.n	8008c9a <_printf_float+0x366>
 8008c74:	9b0a      	ldr	r3, [sp, #40]	; 0x28
 8008c76:	9909      	ldr	r1, [sp, #36]	; 0x24
 8008c78:	eba3 020a 	sub.w	r2, r3, sl
 8008c7c:	eba3 0a01 	sub.w	sl, r3, r1
 8008c80:	4592      	cmp	sl, r2
 8008c82:	bfa8      	it	ge
 8008c84:	4692      	movge	sl, r2
 8008c86:	f1ba 0f00 	cmp.w	sl, #0
 8008c8a:	dc0e      	bgt.n	8008caa <_printf_float+0x376>
 8008c8c:	f04f 0800 	mov.w	r8, #0
 8008c90:	ea2a 7aea 	bic.w	sl, sl, sl, asr #31
 8008c94:	f104 091a 	add.w	r9, r4, #26
 8008c98:	e019      	b.n	8008cce <_printf_float+0x39a>
 8008c9a:	e9dd 2304 	ldrd	r2, r3, [sp, #16]
 8008c9e:	4631      	mov	r1, r6
 8008ca0:	4628      	mov	r0, r5
 8008ca2:	47b8      	blx	r7
 8008ca4:	3001      	adds	r0, #1
 8008ca6:	d1e5      	bne.n	8008c74 <_printf_float+0x340>
 8008ca8:	e6a1      	b.n	80089ee <_printf_float+0xba>
 8008caa:	4653      	mov	r3, sl
 8008cac:	4642      	mov	r2, r8
 8008cae:	4631      	mov	r1, r6
 8008cb0:	4628      	mov	r0, r5
 8008cb2:	47b8      	blx	r7
 8008cb4:	3001      	adds	r0, #1
 8008cb6:	d1e9      	bne.n	8008c8c <_printf_float+0x358>
 8008cb8:	e699      	b.n	80089ee <_printf_float+0xba>
 8008cba:	2301      	movs	r3, #1
 8008cbc:	464a      	mov	r2, r9
 8008cbe:	4631      	mov	r1, r6
 8008cc0:	4628      	mov	r0, r5
 8008cc2:	47b8      	blx	r7
 8008cc4:	3001      	adds	r0, #1
 8008cc6:	f43f ae92 	beq.w	80089ee <_printf_float+0xba>
 8008cca:	f108 0801 	add.w	r8, r8, #1
 8008cce:	e9dd 2309 	ldrd	r2, r3, [sp, #36]	; 0x24
 8008cd2:	1a9b      	subs	r3, r3, r2
 8008cd4:	eba3 030a 	sub.w	r3, r3, sl
 8008cd8:	4543      	cmp	r3, r8
 8008cda:	dcee      	bgt.n	8008cba <_printf_float+0x386>
 8008cdc:	e74a      	b.n	8008b74 <_printf_float+0x240>
 8008cde:	9a0a      	ldr	r2, [sp, #40]	; 0x28
 8008ce0:	2a01      	cmp	r2, #1
 8008ce2:	dc01      	bgt.n	8008ce8 <_printf_float+0x3b4>
 8008ce4:	07db      	lsls	r3, r3, #31
 8008ce6:	d53a      	bpl.n	8008d5e <_printf_float+0x42a>
 8008ce8:	2301      	movs	r3, #1
 8008cea:	4642      	mov	r2, r8
 8008cec:	4631      	mov	r1, r6
 8008cee:	4628      	mov	r0, r5
 8008cf0:	47b8      	blx	r7
 8008cf2:	3001      	adds	r0, #1
 8008cf4:	f43f ae7b 	beq.w	80089ee <_printf_float+0xba>
 8008cf8:	e9dd 2304 	ldrd	r2, r3, [sp, #16]
 8008cfc:	4631      	mov	r1, r6
 8008cfe:	4628      	mov	r0, r5
 8008d00:	47b8      	blx	r7
 8008d02:	3001      	adds	r0, #1
 8008d04:	f108 0801 	add.w	r8, r8, #1
 8008d08:	f43f ae71 	beq.w	80089ee <_printf_float+0xba>
 8008d0c:	9b0a      	ldr	r3, [sp, #40]	; 0x28
 8008d0e:	2200      	movs	r2, #0
 8008d10:	f103 3aff 	add.w	sl, r3, #4294967295
 8008d14:	e9d4 0112 	ldrd	r0, r1, [r4, #72]	; 0x48
 8008d18:	2300      	movs	r3, #0
 8008d1a:	f7f7 fe89 	bl	8000a30 <__aeabi_dcmpeq>
 8008d1e:	b9c8      	cbnz	r0, 8008d54 <_printf_float+0x420>
 8008d20:	4653      	mov	r3, sl
 8008d22:	4642      	mov	r2, r8
 8008d24:	4631      	mov	r1, r6
 8008d26:	4628      	mov	r0, r5
 8008d28:	47b8      	blx	r7
 8008d2a:	3001      	adds	r0, #1
 8008d2c:	d10e      	bne.n	8008d4c <_printf_float+0x418>
 8008d2e:	e65e      	b.n	80089ee <_printf_float+0xba>
 8008d30:	2301      	movs	r3, #1
 8008d32:	4652      	mov	r2, sl
 8008d34:	4631      	mov	r1, r6
 8008d36:	4628      	mov	r0, r5
 8008d38:	47b8      	blx	r7
 8008d3a:	3001      	adds	r0, #1
 8008d3c:	f43f ae57 	beq.w	80089ee <_printf_float+0xba>
 8008d40:	f108 0801 	add.w	r8, r8, #1
 8008d44:	9b0a      	ldr	r3, [sp, #40]	; 0x28
 8008d46:	3b01      	subs	r3, #1
 8008d48:	4543      	cmp	r3, r8
 8008d4a:	dcf1      	bgt.n	8008d30 <_printf_float+0x3fc>
 8008d4c:	464b      	mov	r3, r9
 8008d4e:	f104 0250 	add.w	r2, r4, #80	; 0x50
 8008d52:	e6de      	b.n	8008b12 <_printf_float+0x1de>
 8008d54:	f04f 0800 	mov.w	r8, #0
 8008d58:	f104 0a1a 	add.w	sl, r4, #26
 8008d5c:	e7f2      	b.n	8008d44 <_printf_float+0x410>
 8008d5e:	2301      	movs	r3, #1
 8008d60:	e7df      	b.n	8008d22 <_printf_float+0x3ee>
 8008d62:	2301      	movs	r3, #1
 8008d64:	464a      	mov	r2, r9
 8008d66:	4631      	mov	r1, r6
 8008d68:	4628      	mov	r0, r5
 8008d6a:	47b8      	blx	r7
 8008d6c:	3001      	adds	r0, #1
 8008d6e:	f43f ae3e 	beq.w	80089ee <_printf_float+0xba>
 8008d72:	f108 0801 	add.w	r8, r8, #1
 8008d76:	68e3      	ldr	r3, [r4, #12]
 8008d78:	9a0b      	ldr	r2, [sp, #44]	; 0x2c
 8008d7a:	1a9b      	subs	r3, r3, r2
 8008d7c:	4543      	cmp	r3, r8
 8008d7e:	dcf0      	bgt.n	8008d62 <_printf_float+0x42e>
 8008d80:	e6fc      	b.n	8008b7c <_printf_float+0x248>
 8008d82:	f04f 0800 	mov.w	r8, #0
 8008d86:	f104 0919 	add.w	r9, r4, #25
 8008d8a:	e7f4      	b.n	8008d76 <_printf_float+0x442>
 8008d8c:	2900      	cmp	r1, #0
 8008d8e:	f43f ae8b 	beq.w	8008aa8 <_printf_float+0x174>
 8008d92:	2300      	movs	r3, #0
 8008d94:	e9cd 0302 	strd	r0, r3, [sp, #8]
 8008d98:	ab09      	add	r3, sp, #36	; 0x24
 8008d9a:	9300      	str	r3, [sp, #0]
 8008d9c:	ec49 8b10 	vmov	d0, r8, r9
 8008da0:	6022      	str	r2, [r4, #0]
 8008da2:	f8cd a004 	str.w	sl, [sp, #4]
 8008da6:	f10d 0323 	add.w	r3, sp, #35	; 0x23
 8008daa:	4628      	mov	r0, r5
 8008dac:	f7ff fd2e 	bl	800880c <__cvt>
 8008db0:	4680      	mov	r8, r0
 8008db2:	e648      	b.n	8008a46 <_printf_float+0x112>

08008db4 <_printf_common>:
 8008db4:	e92d 47f0 	stmdb	sp!, {r4, r5, r6, r7, r8, r9, sl, lr}
 8008db8:	4691      	mov	r9, r2
 8008dba:	461f      	mov	r7, r3
 8008dbc:	688a      	ldr	r2, [r1, #8]
 8008dbe:	690b      	ldr	r3, [r1, #16]
 8008dc0:	f8dd 8020 	ldr.w	r8, [sp, #32]
 8008dc4:	4293      	cmp	r3, r2
 8008dc6:	bfb8      	it	lt
 8008dc8:	4613      	movlt	r3, r2
 8008dca:	f8c9 3000 	str.w	r3, [r9]
 8008dce:	f891 2043 	ldrb.w	r2, [r1, #67]	; 0x43
 8008dd2:	4606      	mov	r6, r0
 8008dd4:	460c      	mov	r4, r1
 8008dd6:	b112      	cbz	r2, 8008dde <_printf_common+0x2a>
 8008dd8:	3301      	adds	r3, #1
 8008dda:	f8c9 3000 	str.w	r3, [r9]
 8008dde:	6823      	ldr	r3, [r4, #0]
 8008de0:	0699      	lsls	r1, r3, #26
 8008de2:	bf42      	ittt	mi
 8008de4:	f8d9 3000 	ldrmi.w	r3, [r9]
 8008de8:	3302      	addmi	r3, #2
 8008dea:	f8c9 3000 	strmi.w	r3, [r9]
 8008dee:	6825      	ldr	r5, [r4, #0]
 8008df0:	f015 0506 	ands.w	r5, r5, #6
 8008df4:	d107      	bne.n	8008e06 <_printf_common+0x52>
 8008df6:	f104 0a19 	add.w	sl, r4, #25
 8008dfa:	68e3      	ldr	r3, [r4, #12]
 8008dfc:	f8d9 2000 	ldr.w	r2, [r9]
 8008e00:	1a9b      	subs	r3, r3, r2
 8008e02:	42ab      	cmp	r3, r5
 8008e04:	dc28      	bgt.n	8008e58 <_printf_common+0xa4>
 8008e06:	f894 3043 	ldrb.w	r3, [r4, #67]	; 0x43
 8008e0a:	6822      	ldr	r2, [r4, #0]
 8008e0c:	3300      	adds	r3, #0
 8008e0e:	bf18      	it	ne
 8008e10:	2301      	movne	r3, #1
 8008e12:	0692      	lsls	r2, r2, #26
 8008e14:	d42d      	bmi.n	8008e72 <_printf_common+0xbe>
 8008e16:	f104 0243 	add.w	r2, r4, #67	; 0x43
 8008e1a:	4639      	mov	r1, r7
 8008e1c:	4630      	mov	r0, r6
 8008e1e:	47c0      	blx	r8
 8008e20:	3001      	adds	r0, #1
 8008e22:	d020      	beq.n	8008e66 <_printf_common+0xb2>
 8008e24:	6823      	ldr	r3, [r4, #0]
 8008e26:	68e5      	ldr	r5, [r4, #12]
 8008e28:	f8d9 2000 	ldr.w	r2, [r9]
 8008e2c:	f003 0306 	and.w	r3, r3, #6
 8008e30:	2b04      	cmp	r3, #4
 8008e32:	bf08      	it	eq
 8008e34:	1aad      	subeq	r5, r5, r2
 8008e36:	68a3      	ldr	r3, [r4, #8]
 8008e38:	6922      	ldr	r2, [r4, #16]
 8008e3a:	bf0c      	ite	eq
 8008e3c:	ea25 75e5 	biceq.w	r5, r5, r5, asr #31
 8008e40:	2500      	movne	r5, #0
 8008e42:	4293      	cmp	r3, r2
 8008e44:	bfc4      	itt	gt
 8008e46:	1a9b      	subgt	r3, r3, r2
 8008e48:	18ed      	addgt	r5, r5, r3
 8008e4a:	f04f 0900 	mov.w	r9, #0
 8008e4e:	341a      	adds	r4, #26
 8008e50:	454d      	cmp	r5, r9
 8008e52:	d11a      	bne.n	8008e8a <_printf_common+0xd6>
 8008e54:	2000      	movs	r0, #0
 8008e56:	e008      	b.n	8008e6a <_printf_common+0xb6>
 8008e58:	2301      	movs	r3, #1
 8008e5a:	4652      	mov	r2, sl
 8008e5c:	4639      	mov	r1, r7
 8008e5e:	4630      	mov	r0, r6
 8008e60:	47c0      	blx	r8
 8008e62:	3001      	adds	r0, #1
 8008e64:	d103      	bne.n	8008e6e <_printf_common+0xba>
 8008e66:	f04f 30ff 	mov.w	r0, #4294967295
 8008e6a:	e8bd 87f0 	ldmia.w	sp!, {r4, r5, r6, r7, r8, r9, sl, pc}
 8008e6e:	3501      	adds	r5, #1
 8008e70:	e7c3      	b.n	8008dfa <_printf_common+0x46>
 8008e72:	18e1      	adds	r1, r4, r3
 8008e74:	1c5a      	adds	r2, r3, #1
 8008e76:	2030      	movs	r0, #48	; 0x30
 8008e78:	f881 0043 	strb.w	r0, [r1, #67]	; 0x43
 8008e7c:	4422      	add	r2, r4
 8008e7e:	f894 1045 	ldrb.w	r1, [r4, #69]	; 0x45
 8008e82:	f882 1043 	strb.w	r1, [r2, #67]	; 0x43
 8008e86:	3302      	adds	r3, #2
 8008e88:	e7c5      	b.n	8008e16 <_printf_common+0x62>
 8008e8a:	2301      	movs	r3, #1
 8008e8c:	4622      	mov	r2, r4
 8008e8e:	4639      	mov	r1, r7
 8008e90:	4630      	mov	r0, r6
 8008e92:	47c0      	blx	r8
 8008e94:	3001      	adds	r0, #1
 8008e96:	d0e6      	beq.n	8008e66 <_printf_common+0xb2>
 8008e98:	f109 0901 	add.w	r9, r9, #1
 8008e9c:	e7d8      	b.n	8008e50 <_printf_common+0x9c>
	...

08008ea0 <_puts_r>:
 8008ea0:	b570      	push	{r4, r5, r6, lr}
 8008ea2:	460e      	mov	r6, r1
 8008ea4:	4605      	mov	r5, r0
 8008ea6:	b118      	cbz	r0, 8008eb0 <_puts_r+0x10>
 8008ea8:	6983      	ldr	r3, [r0, #24]
 8008eaa:	b90b      	cbnz	r3, 8008eb0 <_puts_r+0x10>
 8008eac:	f001 f860 	bl	8009f70 <__sinit>
 8008eb0:	69ab      	ldr	r3, [r5, #24]
 8008eb2:	68ac      	ldr	r4, [r5, #8]
 8008eb4:	b913      	cbnz	r3, 8008ebc <_puts_r+0x1c>
 8008eb6:	4628      	mov	r0, r5
 8008eb8:	f001 f85a 	bl	8009f70 <__sinit>
 8008ebc:	4b23      	ldr	r3, [pc, #140]	; (8008f4c <_puts_r+0xac>)
 8008ebe:	429c      	cmp	r4, r3
 8008ec0:	d117      	bne.n	8008ef2 <_puts_r+0x52>
 8008ec2:	686c      	ldr	r4, [r5, #4]
 8008ec4:	89a3      	ldrh	r3, [r4, #12]
 8008ec6:	071b      	lsls	r3, r3, #28
 8008ec8:	d51d      	bpl.n	8008f06 <_puts_r+0x66>
 8008eca:	6923      	ldr	r3, [r4, #16]
 8008ecc:	b1db      	cbz	r3, 8008f06 <_puts_r+0x66>
 8008ece:	3e01      	subs	r6, #1
 8008ed0:	68a3      	ldr	r3, [r4, #8]
 8008ed2:	f816 1f01 	ldrb.w	r1, [r6, #1]!
 8008ed6:	3b01      	subs	r3, #1
 8008ed8:	60a3      	str	r3, [r4, #8]
 8008eda:	b9e9      	cbnz	r1, 8008f18 <_puts_r+0x78>
 8008edc:	2b00      	cmp	r3, #0
 8008ede:	da2e      	bge.n	8008f3e <_puts_r+0x9e>
 8008ee0:	4622      	mov	r2, r4
 8008ee2:	210a      	movs	r1, #10
 8008ee4:	4628      	mov	r0, r5
 8008ee6:	f000 f84f 	bl	8008f88 <__swbuf_r>
 8008eea:	3001      	adds	r0, #1
 8008eec:	d011      	beq.n	8008f12 <_puts_r+0x72>
 8008eee:	200a      	movs	r0, #10
 8008ef0:	e011      	b.n	8008f16 <_puts_r+0x76>
 8008ef2:	4b17      	ldr	r3, [pc, #92]	; (8008f50 <_puts_r+0xb0>)
 8008ef4:	429c      	cmp	r4, r3
 8008ef6:	d101      	bne.n	8008efc <_puts_r+0x5c>
 8008ef8:	68ac      	ldr	r4, [r5, #8]
 8008efa:	e7e3      	b.n	8008ec4 <_puts_r+0x24>
 8008efc:	4b15      	ldr	r3, [pc, #84]	; (8008f54 <_puts_r+0xb4>)
 8008efe:	429c      	cmp	r4, r3
 8008f00:	bf08      	it	eq
 8008f02:	68ec      	ldreq	r4, [r5, #12]
 8008f04:	e7de      	b.n	8008ec4 <_puts_r+0x24>
 8008f06:	4621      	mov	r1, r4
 8008f08:	4628      	mov	r0, r5
 8008f0a:	f000 f88f 	bl	800902c <__swsetup_r>
 8008f0e:	2800      	cmp	r0, #0
 8008f10:	d0dd      	beq.n	8008ece <_puts_r+0x2e>
 8008f12:	f04f 30ff 	mov.w	r0, #4294967295
 8008f16:	bd70      	pop	{r4, r5, r6, pc}
 8008f18:	2b00      	cmp	r3, #0
 8008f1a:	da04      	bge.n	8008f26 <_puts_r+0x86>
 8008f1c:	69a2      	ldr	r2, [r4, #24]
 8008f1e:	429a      	cmp	r2, r3
 8008f20:	dc06      	bgt.n	8008f30 <_puts_r+0x90>
 8008f22:	290a      	cmp	r1, #10
 8008f24:	d004      	beq.n	8008f30 <_puts_r+0x90>
 8008f26:	6823      	ldr	r3, [r4, #0]
 8008f28:	1c5a      	adds	r2, r3, #1
 8008f2a:	6022      	str	r2, [r4, #0]
 8008f2c:	7019      	strb	r1, [r3, #0]
 8008f2e:	e7cf      	b.n	8008ed0 <_puts_r+0x30>
 8008f30:	4622      	mov	r2, r4
 8008f32:	4628      	mov	r0, r5
 8008f34:	f000 f828 	bl	8008f88 <__swbuf_r>
 8008f38:	3001      	adds	r0, #1
 8008f3a:	d1c9      	bne.n	8008ed0 <_puts_r+0x30>
 8008f3c:	e7e9      	b.n	8008f12 <_puts_r+0x72>
 8008f3e:	6823      	ldr	r3, [r4, #0]
 8008f40:	200a      	movs	r0, #10
 8008f42:	1c5a      	adds	r2, r3, #1
 8008f44:	6022      	str	r2, [r4, #0]
 8008f46:	7018      	strb	r0, [r3, #0]
 8008f48:	e7e5      	b.n	8008f16 <_puts_r+0x76>
 8008f4a:	bf00      	nop
 8008f4c:	0800a9cc 	.word	0x0800a9cc
 8008f50:	0800a9ec 	.word	0x0800a9ec
 8008f54:	0800a9ac 	.word	0x0800a9ac

08008f58 <puts>:
 8008f58:	4b02      	ldr	r3, [pc, #8]	; (8008f64 <puts+0xc>)
 8008f5a:	4601      	mov	r1, r0
 8008f5c:	6818      	ldr	r0, [r3, #0]
 8008f5e:	f7ff bf9f 	b.w	8008ea0 <_puts_r>
 8008f62:	bf00      	nop
 8008f64:	20000198 	.word	0x20000198

08008f68 <_sbrk_r>:
 8008f68:	b538      	push	{r3, r4, r5, lr}
 8008f6a:	4c06      	ldr	r4, [pc, #24]	; (8008f84 <_sbrk_r+0x1c>)
 8008f6c:	2300      	movs	r3, #0
 8008f6e:	4605      	mov	r5, r0
 8008f70:	4608      	mov	r0, r1
 8008f72:	6023      	str	r3, [r4, #0]
 8008f74:	f7ff f816 	bl	8007fa4 <_sbrk>
 8008f78:	1c43      	adds	r3, r0, #1
 8008f7a:	d102      	bne.n	8008f82 <_sbrk_r+0x1a>
 8008f7c:	6823      	ldr	r3, [r4, #0]
 8008f7e:	b103      	cbz	r3, 8008f82 <_sbrk_r+0x1a>
 8008f80:	602b      	str	r3, [r5, #0]
 8008f82:	bd38      	pop	{r3, r4, r5, pc}
 8008f84:	200012e4 	.word	0x200012e4

08008f88 <__swbuf_r>:
 8008f88:	b5f8      	push	{r3, r4, r5, r6, r7, lr}
 8008f8a:	460e      	mov	r6, r1
 8008f8c:	4614      	mov	r4, r2
 8008f8e:	4605      	mov	r5, r0
 8008f90:	b118      	cbz	r0, 8008f9a <__swbuf_r+0x12>
 8008f92:	6983      	ldr	r3, [r0, #24]
 8008f94:	b90b      	cbnz	r3, 8008f9a <__swbuf_r+0x12>
 8008f96:	f000 ffeb 	bl	8009f70 <__sinit>
 8008f9a:	4b21      	ldr	r3, [pc, #132]	; (8009020 <__swbuf_r+0x98>)
 8008f9c:	429c      	cmp	r4, r3
 8008f9e:	d12a      	bne.n	8008ff6 <__swbuf_r+0x6e>
 8008fa0:	686c      	ldr	r4, [r5, #4]
 8008fa2:	69a3      	ldr	r3, [r4, #24]
 8008fa4:	60a3      	str	r3, [r4, #8]
 8008fa6:	89a3      	ldrh	r3, [r4, #12]
 8008fa8:	071a      	lsls	r2, r3, #28
 8008faa:	d52e      	bpl.n	800900a <__swbuf_r+0x82>
 8008fac:	6923      	ldr	r3, [r4, #16]
 8008fae:	b363      	cbz	r3, 800900a <__swbuf_r+0x82>
 8008fb0:	6923      	ldr	r3, [r4, #16]
 8008fb2:	6820      	ldr	r0, [r4, #0]
 8008fb4:	1ac0      	subs	r0, r0, r3
 8008fb6:	6963      	ldr	r3, [r4, #20]
 8008fb8:	b2f6      	uxtb	r6, r6
 8008fba:	4283      	cmp	r3, r0
 8008fbc:	4637      	mov	r7, r6
 8008fbe:	dc04      	bgt.n	8008fca <__swbuf_r+0x42>
 8008fc0:	4621      	mov	r1, r4
 8008fc2:	4628      	mov	r0, r5
 8008fc4:	f000 ff6a 	bl	8009e9c <_fflush_r>
 8008fc8:	bb28      	cbnz	r0, 8009016 <__swbuf_r+0x8e>
 8008fca:	68a3      	ldr	r3, [r4, #8]
 8008fcc:	3b01      	subs	r3, #1
 8008fce:	60a3      	str	r3, [r4, #8]
 8008fd0:	6823      	ldr	r3, [r4, #0]
 8008fd2:	1c5a      	adds	r2, r3, #1
 8008fd4:	6022      	str	r2, [r4, #0]
 8008fd6:	701e      	strb	r6, [r3, #0]
 8008fd8:	6963      	ldr	r3, [r4, #20]
 8008fda:	3001      	adds	r0, #1
 8008fdc:	4283      	cmp	r3, r0
 8008fde:	d004      	beq.n	8008fea <__swbuf_r+0x62>
 8008fe0:	89a3      	ldrh	r3, [r4, #12]
 8008fe2:	07db      	lsls	r3, r3, #31
 8008fe4:	d519      	bpl.n	800901a <__swbuf_r+0x92>
 8008fe6:	2e0a      	cmp	r6, #10
 8008fe8:	d117      	bne.n	800901a <__swbuf_r+0x92>
 8008fea:	4621      	mov	r1, r4
 8008fec:	4628      	mov	r0, r5
 8008fee:	f000 ff55 	bl	8009e9c <_fflush_r>
 8008ff2:	b190      	cbz	r0, 800901a <__swbuf_r+0x92>
 8008ff4:	e00f      	b.n	8009016 <__swbuf_r+0x8e>
 8008ff6:	4b0b      	ldr	r3, [pc, #44]	; (8009024 <__swbuf_r+0x9c>)
 8008ff8:	429c      	cmp	r4, r3
 8008ffa:	d101      	bne.n	8009000 <__swbuf_r+0x78>
 8008ffc:	68ac      	ldr	r4, [r5, #8]
 8008ffe:	e7d0      	b.n	8008fa2 <__swbuf_r+0x1a>
 8009000:	4b09      	ldr	r3, [pc, #36]	; (8009028 <__swbuf_r+0xa0>)
 8009002:	429c      	cmp	r4, r3
 8009004:	bf08      	it	eq
 8009006:	68ec      	ldreq	r4, [r5, #12]
 8009008:	e7cb      	b.n	8008fa2 <__swbuf_r+0x1a>
 800900a:	4621      	mov	r1, r4
 800900c:	4628      	mov	r0, r5
 800900e:	f000 f80d 	bl	800902c <__swsetup_r>
 8009012:	2800      	cmp	r0, #0
 8009014:	d0cc      	beq.n	8008fb0 <__swbuf_r+0x28>
 8009016:	f04f 37ff 	mov.w	r7, #4294967295
 800901a:	4638      	mov	r0, r7
 800901c:	bdf8      	pop	{r3, r4, r5, r6, r7, pc}
 800901e:	bf00      	nop
 8009020:	0800a9cc 	.word	0x0800a9cc
 8009024:	0800a9ec 	.word	0x0800a9ec
 8009028:	0800a9ac 	.word	0x0800a9ac

0800902c <__swsetup_r>:
 800902c:	4b32      	ldr	r3, [pc, #200]	; (80090f8 <__swsetup_r+0xcc>)
 800902e:	b570      	push	{r4, r5, r6, lr}
 8009030:	681d      	ldr	r5, [r3, #0]
 8009032:	4606      	mov	r6, r0
 8009034:	460c      	mov	r4, r1
 8009036:	b125      	cbz	r5, 8009042 <__swsetup_r+0x16>
 8009038:	69ab      	ldr	r3, [r5, #24]
 800903a:	b913      	cbnz	r3, 8009042 <__swsetup_r+0x16>
 800903c:	4628      	mov	r0, r5
 800903e:	f000 ff97 	bl	8009f70 <__sinit>
 8009042:	4b2e      	ldr	r3, [pc, #184]	; (80090fc <__swsetup_r+0xd0>)
 8009044:	429c      	cmp	r4, r3
 8009046:	d10f      	bne.n	8009068 <__swsetup_r+0x3c>
 8009048:	686c      	ldr	r4, [r5, #4]
 800904a:	f9b4 300c 	ldrsh.w	r3, [r4, #12]
 800904e:	b29a      	uxth	r2, r3
 8009050:	0715      	lsls	r5, r2, #28
 8009052:	d42c      	bmi.n	80090ae <__swsetup_r+0x82>
 8009054:	06d0      	lsls	r0, r2, #27
 8009056:	d411      	bmi.n	800907c <__swsetup_r+0x50>
 8009058:	2209      	movs	r2, #9
 800905a:	6032      	str	r2, [r6, #0]
 800905c:	f043 0340 	orr.w	r3, r3, #64	; 0x40
 8009060:	81a3      	strh	r3, [r4, #12]
 8009062:	f04f 30ff 	mov.w	r0, #4294967295
 8009066:	e03e      	b.n	80090e6 <__swsetup_r+0xba>
 8009068:	4b25      	ldr	r3, [pc, #148]	; (8009100 <__swsetup_r+0xd4>)
 800906a:	429c      	cmp	r4, r3
 800906c:	d101      	bne.n	8009072 <__swsetup_r+0x46>
 800906e:	68ac      	ldr	r4, [r5, #8]
 8009070:	e7eb      	b.n	800904a <__swsetup_r+0x1e>
 8009072:	4b24      	ldr	r3, [pc, #144]	; (8009104 <__swsetup_r+0xd8>)
 8009074:	429c      	cmp	r4, r3
 8009076:	bf08      	it	eq
 8009078:	68ec      	ldreq	r4, [r5, #12]
 800907a:	e7e6      	b.n	800904a <__swsetup_r+0x1e>
 800907c:	0751      	lsls	r1, r2, #29
 800907e:	d512      	bpl.n	80090a6 <__swsetup_r+0x7a>
 8009080:	6b61      	ldr	r1, [r4, #52]	; 0x34
 8009082:	b141      	cbz	r1, 8009096 <__swsetup_r+0x6a>
 8009084:	f104 0344 	add.w	r3, r4, #68	; 0x44
 8009088:	4299      	cmp	r1, r3
 800908a:	d002      	beq.n	8009092 <__swsetup_r+0x66>
 800908c:	4630      	mov	r0, r6
 800908e:	f7ff fb15 	bl	80086bc <_free_r>
 8009092:	2300      	movs	r3, #0
 8009094:	6363      	str	r3, [r4, #52]	; 0x34
 8009096:	89a3      	ldrh	r3, [r4, #12]
 8009098:	f023 0324 	bic.w	r3, r3, #36	; 0x24
 800909c:	81a3      	strh	r3, [r4, #12]
 800909e:	2300      	movs	r3, #0
 80090a0:	6063      	str	r3, [r4, #4]
 80090a2:	6923      	ldr	r3, [r4, #16]
 80090a4:	6023      	str	r3, [r4, #0]
 80090a6:	89a3      	ldrh	r3, [r4, #12]
 80090a8:	f043 0308 	orr.w	r3, r3, #8
 80090ac:	81a3      	strh	r3, [r4, #12]
 80090ae:	6923      	ldr	r3, [r4, #16]
 80090b0:	b94b      	cbnz	r3, 80090c6 <__swsetup_r+0x9a>
 80090b2:	89a3      	ldrh	r3, [r4, #12]
 80090b4:	f403 7320 	and.w	r3, r3, #640	; 0x280
 80090b8:	f5b3 7f00 	cmp.w	r3, #512	; 0x200
 80090bc:	d003      	beq.n	80090c6 <__swsetup_r+0x9a>
 80090be:	4621      	mov	r1, r4
 80090c0:	4630      	mov	r0, r6
 80090c2:	f001 f811 	bl	800a0e8 <__smakebuf_r>
 80090c6:	89a2      	ldrh	r2, [r4, #12]
 80090c8:	f012 0301 	ands.w	r3, r2, #1
 80090cc:	d00c      	beq.n	80090e8 <__swsetup_r+0xbc>
 80090ce:	2300      	movs	r3, #0
 80090d0:	60a3      	str	r3, [r4, #8]
 80090d2:	6963      	ldr	r3, [r4, #20]
 80090d4:	425b      	negs	r3, r3
 80090d6:	61a3      	str	r3, [r4, #24]
 80090d8:	6923      	ldr	r3, [r4, #16]
 80090da:	b953      	cbnz	r3, 80090f2 <__swsetup_r+0xc6>
 80090dc:	f9b4 300c 	ldrsh.w	r3, [r4, #12]
 80090e0:	f013 0080 	ands.w	r0, r3, #128	; 0x80
 80090e4:	d1ba      	bne.n	800905c <__swsetup_r+0x30>
 80090e6:	bd70      	pop	{r4, r5, r6, pc}
 80090e8:	0792      	lsls	r2, r2, #30
 80090ea:	bf58      	it	pl
 80090ec:	6963      	ldrpl	r3, [r4, #20]
 80090ee:	60a3      	str	r3, [r4, #8]
 80090f0:	e7f2      	b.n	80090d8 <__swsetup_r+0xac>
 80090f2:	2000      	movs	r0, #0
 80090f4:	e7f7      	b.n	80090e6 <__swsetup_r+0xba>
 80090f6:	bf00      	nop
 80090f8:	20000198 	.word	0x20000198
 80090fc:	0800a9cc 	.word	0x0800a9cc
 8009100:	0800a9ec 	.word	0x0800a9ec
 8009104:	0800a9ac 	.word	0x0800a9ac

08009108 <quorem>:
 8009108:	e92d 4ff7 	stmdb	sp!, {r0, r1, r2, r4, r5, r6, r7, r8, r9, sl, fp, lr}
 800910c:	6903      	ldr	r3, [r0, #16]
 800910e:	690c      	ldr	r4, [r1, #16]
 8009110:	42a3      	cmp	r3, r4
 8009112:	4680      	mov	r8, r0
 8009114:	f2c0 8082 	blt.w	800921c <quorem+0x114>
 8009118:	3c01      	subs	r4, #1
 800911a:	f101 0714 	add.w	r7, r1, #20
 800911e:	ea4f 0c84 	mov.w	ip, r4, lsl #2
 8009122:	f100 0614 	add.w	r6, r0, #20
 8009126:	f857 5024 	ldr.w	r5, [r7, r4, lsl #2]
 800912a:	f856 0024 	ldr.w	r0, [r6, r4, lsl #2]
 800912e:	eb06 030c 	add.w	r3, r6, ip
 8009132:	3501      	adds	r5, #1
 8009134:	eb07 090c 	add.w	r9, r7, ip
 8009138:	9301      	str	r3, [sp, #4]
 800913a:	fbb0 f5f5 	udiv	r5, r0, r5
 800913e:	b395      	cbz	r5, 80091a6 <quorem+0x9e>
 8009140:	f04f 0a00 	mov.w	sl, #0
 8009144:	4638      	mov	r0, r7
 8009146:	46b6      	mov	lr, r6
 8009148:	46d3      	mov	fp, sl
 800914a:	f850 2b04 	ldr.w	r2, [r0], #4
 800914e:	b293      	uxth	r3, r2
 8009150:	fb05 a303 	mla	r3, r5, r3, sl
 8009154:	ea4f 4a13 	mov.w	sl, r3, lsr #16
 8009158:	b29b      	uxth	r3, r3
 800915a:	ebab 0303 	sub.w	r3, fp, r3
 800915e:	0c12      	lsrs	r2, r2, #16
 8009160:	f8de b000 	ldr.w	fp, [lr]
 8009164:	fb05 a202 	mla	r2, r5, r2, sl
 8009168:	fa13 f38b 	uxtah	r3, r3, fp
 800916c:	ea4f 4a12 	mov.w	sl, r2, lsr #16
 8009170:	fa1f fb82 	uxth.w	fp, r2
 8009174:	f8de 2000 	ldr.w	r2, [lr]
 8009178:	ebcb 4212 	rsb	r2, fp, r2, lsr #16
 800917c:	eb02 4223 	add.w	r2, r2, r3, asr #16
 8009180:	b29b      	uxth	r3, r3
 8009182:	ea43 4302 	orr.w	r3, r3, r2, lsl #16
 8009186:	4581      	cmp	r9, r0
 8009188:	ea4f 4b22 	mov.w	fp, r2, asr #16
 800918c:	f84e 3b04 	str.w	r3, [lr], #4
 8009190:	d2db      	bcs.n	800914a <quorem+0x42>
 8009192:	f856 300c 	ldr.w	r3, [r6, ip]
 8009196:	b933      	cbnz	r3, 80091a6 <quorem+0x9e>
 8009198:	9b01      	ldr	r3, [sp, #4]
 800919a:	3b04      	subs	r3, #4
 800919c:	429e      	cmp	r6, r3
 800919e:	461a      	mov	r2, r3
 80091a0:	d330      	bcc.n	8009204 <quorem+0xfc>
 80091a2:	f8c8 4010 	str.w	r4, [r8, #16]
 80091a6:	4640      	mov	r0, r8
 80091a8:	f001 fa00 	bl	800a5ac <__mcmp>
 80091ac:	2800      	cmp	r0, #0
 80091ae:	db25      	blt.n	80091fc <quorem+0xf4>
 80091b0:	3501      	adds	r5, #1
 80091b2:	4630      	mov	r0, r6
 80091b4:	f04f 0c00 	mov.w	ip, #0
 80091b8:	f857 2b04 	ldr.w	r2, [r7], #4
 80091bc:	f8d0 e000 	ldr.w	lr, [r0]
 80091c0:	b293      	uxth	r3, r2
 80091c2:	ebac 0303 	sub.w	r3, ip, r3
 80091c6:	0c12      	lsrs	r2, r2, #16
 80091c8:	fa13 f38e 	uxtah	r3, r3, lr
 80091cc:	ebc2 421e 	rsb	r2, r2, lr, lsr #16
 80091d0:	eb02 4223 	add.w	r2, r2, r3, asr #16
 80091d4:	b29b      	uxth	r3, r3
 80091d6:	ea43 4302 	orr.w	r3, r3, r2, lsl #16
 80091da:	45b9      	cmp	r9, r7
 80091dc:	ea4f 4c22 	mov.w	ip, r2, asr #16
 80091e0:	f840 3b04 	str.w	r3, [r0], #4
 80091e4:	d2e8      	bcs.n	80091b8 <quorem+0xb0>
 80091e6:	f856 2024 	ldr.w	r2, [r6, r4, lsl #2]
 80091ea:	eb06 0384 	add.w	r3, r6, r4, lsl #2
 80091ee:	b92a      	cbnz	r2, 80091fc <quorem+0xf4>
 80091f0:	3b04      	subs	r3, #4
 80091f2:	429e      	cmp	r6, r3
 80091f4:	461a      	mov	r2, r3
 80091f6:	d30b      	bcc.n	8009210 <quorem+0x108>
 80091f8:	f8c8 4010 	str.w	r4, [r8, #16]
 80091fc:	4628      	mov	r0, r5
 80091fe:	b003      	add	sp, #12
 8009200:	e8bd 8ff0 	ldmia.w	sp!, {r4, r5, r6, r7, r8, r9, sl, fp, pc}
 8009204:	6812      	ldr	r2, [r2, #0]
 8009206:	3b04      	subs	r3, #4
 8009208:	2a00      	cmp	r2, #0
 800920a:	d1ca      	bne.n	80091a2 <quorem+0x9a>
 800920c:	3c01      	subs	r4, #1
 800920e:	e7c5      	b.n	800919c <quorem+0x94>
 8009210:	6812      	ldr	r2, [r2, #0]
 8009212:	3b04      	subs	r3, #4
 8009214:	2a00      	cmp	r2, #0
 8009216:	d1ef      	bne.n	80091f8 <quorem+0xf0>
 8009218:	3c01      	subs	r4, #1
 800921a:	e7ea      	b.n	80091f2 <quorem+0xea>
 800921c:	2000      	movs	r0, #0
 800921e:	e7ee      	b.n	80091fe <quorem+0xf6>

08009220 <_dtoa_r>:
 8009220:	e92d 4ff0 	stmdb	sp!, {r4, r5, r6, r7, r8, r9, sl, fp, lr}
 8009224:	ec57 6b10 	vmov	r6, r7, d0
 8009228:	b097      	sub	sp, #92	; 0x5c
 800922a:	6a45      	ldr	r5, [r0, #36]	; 0x24
 800922c:	9106      	str	r1, [sp, #24]
 800922e:	4604      	mov	r4, r0
 8009230:	920b      	str	r2, [sp, #44]	; 0x2c
 8009232:	9312      	str	r3, [sp, #72]	; 0x48
 8009234:	f8dd 8080 	ldr.w	r8, [sp, #128]	; 0x80
 8009238:	e9cd 6700 	strd	r6, r7, [sp]
 800923c:	b93d      	cbnz	r5, 800924e <_dtoa_r+0x2e>
 800923e:	2010      	movs	r0, #16
 8009240:	f7ff fa24 	bl	800868c <malloc>
 8009244:	6260      	str	r0, [r4, #36]	; 0x24
 8009246:	e9c0 5501 	strd	r5, r5, [r0, #4]
 800924a:	6005      	str	r5, [r0, #0]
 800924c:	60c5      	str	r5, [r0, #12]
 800924e:	6a63      	ldr	r3, [r4, #36]	; 0x24
 8009250:	6819      	ldr	r1, [r3, #0]
 8009252:	b151      	cbz	r1, 800926a <_dtoa_r+0x4a>
 8009254:	685a      	ldr	r2, [r3, #4]
 8009256:	604a      	str	r2, [r1, #4]
 8009258:	2301      	movs	r3, #1
 800925a:	4093      	lsls	r3, r2
 800925c:	608b      	str	r3, [r1, #8]
 800925e:	4620      	mov	r0, r4
 8009260:	f000 ffc3 	bl	800a1ea <_Bfree>
 8009264:	6a63      	ldr	r3, [r4, #36]	; 0x24
 8009266:	2200      	movs	r2, #0
 8009268:	601a      	str	r2, [r3, #0]
 800926a:	1e3b      	subs	r3, r7, #0
 800926c:	bfbb      	ittet	lt
 800926e:	f023 4300 	biclt.w	r3, r3, #2147483648	; 0x80000000
 8009272:	9301      	strlt	r3, [sp, #4]
 8009274:	2300      	movge	r3, #0
 8009276:	2201      	movlt	r2, #1
 8009278:	bfac      	ite	ge
 800927a:	f8c8 3000 	strge.w	r3, [r8]
 800927e:	f8c8 2000 	strlt.w	r2, [r8]
 8009282:	4baf      	ldr	r3, [pc, #700]	; (8009540 <_dtoa_r+0x320>)
 8009284:	f8dd 8004 	ldr.w	r8, [sp, #4]
 8009288:	ea33 0308 	bics.w	r3, r3, r8
 800928c:	d114      	bne.n	80092b8 <_dtoa_r+0x98>
 800928e:	9a12      	ldr	r2, [sp, #72]	; 0x48
 8009290:	f242 730f 	movw	r3, #9999	; 0x270f
 8009294:	6013      	str	r3, [r2, #0]
 8009296:	9b00      	ldr	r3, [sp, #0]
 8009298:	b923      	cbnz	r3, 80092a4 <_dtoa_r+0x84>
 800929a:	f3c8 0013 	ubfx	r0, r8, #0, #20
 800929e:	2800      	cmp	r0, #0
 80092a0:	f000 8542 	beq.w	8009d28 <_dtoa_r+0xb08>
 80092a4:	9b21      	ldr	r3, [sp, #132]	; 0x84
 80092a6:	f8df b2ac 	ldr.w	fp, [pc, #684]	; 8009554 <_dtoa_r+0x334>
 80092aa:	2b00      	cmp	r3, #0
 80092ac:	f000 8544 	beq.w	8009d38 <_dtoa_r+0xb18>
 80092b0:	f10b 0303 	add.w	r3, fp, #3
 80092b4:	f000 bd3e 	b.w	8009d34 <_dtoa_r+0xb14>
 80092b8:	e9dd 6700 	ldrd	r6, r7, [sp]
 80092bc:	2200      	movs	r2, #0
 80092be:	2300      	movs	r3, #0
 80092c0:	4630      	mov	r0, r6
 80092c2:	4639      	mov	r1, r7
 80092c4:	f7f7 fbb4 	bl	8000a30 <__aeabi_dcmpeq>
 80092c8:	4681      	mov	r9, r0
 80092ca:	b168      	cbz	r0, 80092e8 <_dtoa_r+0xc8>
 80092cc:	9a12      	ldr	r2, [sp, #72]	; 0x48
 80092ce:	2301      	movs	r3, #1
 80092d0:	6013      	str	r3, [r2, #0]
 80092d2:	9b21      	ldr	r3, [sp, #132]	; 0x84
 80092d4:	2b00      	cmp	r3, #0
 80092d6:	f000 8524 	beq.w	8009d22 <_dtoa_r+0xb02>
 80092da:	4b9a      	ldr	r3, [pc, #616]	; (8009544 <_dtoa_r+0x324>)
 80092dc:	9a21      	ldr	r2, [sp, #132]	; 0x84
 80092de:	f103 3bff 	add.w	fp, r3, #4294967295
 80092e2:	6013      	str	r3, [r2, #0]
 80092e4:	f000 bd28 	b.w	8009d38 <_dtoa_r+0xb18>
 80092e8:	aa14      	add	r2, sp, #80	; 0x50
 80092ea:	a915      	add	r1, sp, #84	; 0x54
 80092ec:	ec47 6b10 	vmov	d0, r6, r7
 80092f0:	4620      	mov	r0, r4
 80092f2:	f001 f9d2 	bl	800a69a <__d2b>
 80092f6:	f3c8 550a 	ubfx	r5, r8, #20, #11
 80092fa:	9004      	str	r0, [sp, #16]
 80092fc:	2d00      	cmp	r5, #0
 80092fe:	d07c      	beq.n	80093fa <_dtoa_r+0x1da>
 8009300:	f3c7 0313 	ubfx	r3, r7, #0, #20
 8009304:	f043 5b7f 	orr.w	fp, r3, #1069547520	; 0x3fc00000
 8009308:	46b2      	mov	sl, r6
 800930a:	f44b 1b40 	orr.w	fp, fp, #3145728	; 0x300000
 800930e:	f2a5 35ff 	subw	r5, r5, #1023	; 0x3ff
 8009312:	f8cd 904c 	str.w	r9, [sp, #76]	; 0x4c
 8009316:	2200      	movs	r2, #0
 8009318:	4b8b      	ldr	r3, [pc, #556]	; (8009548 <_dtoa_r+0x328>)
 800931a:	4650      	mov	r0, sl
 800931c:	4659      	mov	r1, fp
 800931e:	f7f6 ff67 	bl	80001f0 <__aeabi_dsub>
 8009322:	a381      	add	r3, pc, #516	; (adr r3, 8009528 <_dtoa_r+0x308>)
 8009324:	e9d3 2300 	ldrd	r2, r3, [r3]
 8009328:	f7f7 f91a 	bl	8000560 <__aeabi_dmul>
 800932c:	a380      	add	r3, pc, #512	; (adr r3, 8009530 <_dtoa_r+0x310>)
 800932e:	e9d3 2300 	ldrd	r2, r3, [r3]
 8009332:	f7f6 ff5f 	bl	80001f4 <__adddf3>
 8009336:	4606      	mov	r6, r0
 8009338:	4628      	mov	r0, r5
 800933a:	460f      	mov	r7, r1
 800933c:	f7f7 f8a6 	bl	800048c <__aeabi_i2d>
 8009340:	a37d      	add	r3, pc, #500	; (adr r3, 8009538 <_dtoa_r+0x318>)
 8009342:	e9d3 2300 	ldrd	r2, r3, [r3]
 8009346:	f7f7 f90b 	bl	8000560 <__aeabi_dmul>
 800934a:	4602      	mov	r2, r0
 800934c:	460b      	mov	r3, r1
 800934e:	4630      	mov	r0, r6
 8009350:	4639      	mov	r1, r7
 8009352:	f7f6 ff4f 	bl	80001f4 <__adddf3>
 8009356:	4606      	mov	r6, r0
 8009358:	460f      	mov	r7, r1
 800935a:	f7f7 fbb1 	bl	8000ac0 <__aeabi_d2iz>
 800935e:	2200      	movs	r2, #0
 8009360:	4682      	mov	sl, r0
 8009362:	2300      	movs	r3, #0
 8009364:	4630      	mov	r0, r6
 8009366:	4639      	mov	r1, r7
 8009368:	f7f7 fb6c 	bl	8000a44 <__aeabi_dcmplt>
 800936c:	b148      	cbz	r0, 8009382 <_dtoa_r+0x162>
 800936e:	4650      	mov	r0, sl
 8009370:	f7f7 f88c 	bl	800048c <__aeabi_i2d>
 8009374:	4632      	mov	r2, r6
 8009376:	463b      	mov	r3, r7
 8009378:	f7f7 fb5a 	bl	8000a30 <__aeabi_dcmpeq>
 800937c:	b908      	cbnz	r0, 8009382 <_dtoa_r+0x162>
 800937e:	f10a 3aff 	add.w	sl, sl, #4294967295
 8009382:	f1ba 0f16 	cmp.w	sl, #22
 8009386:	d859      	bhi.n	800943c <_dtoa_r+0x21c>
 8009388:	4970      	ldr	r1, [pc, #448]	; (800954c <_dtoa_r+0x32c>)
 800938a:	eb01 01ca 	add.w	r1, r1, sl, lsl #3
 800938e:	e9dd 2300 	ldrd	r2, r3, [sp]
 8009392:	e9d1 0100 	ldrd	r0, r1, [r1]
 8009396:	f7f7 fb73 	bl	8000a80 <__aeabi_dcmpgt>
 800939a:	2800      	cmp	r0, #0
 800939c:	d050      	beq.n	8009440 <_dtoa_r+0x220>
 800939e:	f10a 3aff 	add.w	sl, sl, #4294967295
 80093a2:	2300      	movs	r3, #0
 80093a4:	930f      	str	r3, [sp, #60]	; 0x3c
 80093a6:	9b14      	ldr	r3, [sp, #80]	; 0x50
 80093a8:	1b5d      	subs	r5, r3, r5
 80093aa:	f1b5 0801 	subs.w	r8, r5, #1
 80093ae:	bf49      	itett	mi
 80093b0:	f1c5 0301 	rsbmi	r3, r5, #1
 80093b4:	2300      	movpl	r3, #0
 80093b6:	9305      	strmi	r3, [sp, #20]
 80093b8:	f04f 0800 	movmi.w	r8, #0
 80093bc:	bf58      	it	pl
 80093be:	9305      	strpl	r3, [sp, #20]
 80093c0:	f1ba 0f00 	cmp.w	sl, #0
 80093c4:	db3e      	blt.n	8009444 <_dtoa_r+0x224>
 80093c6:	2300      	movs	r3, #0
 80093c8:	44d0      	add	r8, sl
 80093ca:	f8cd a038 	str.w	sl, [sp, #56]	; 0x38
 80093ce:	9307      	str	r3, [sp, #28]
 80093d0:	9b06      	ldr	r3, [sp, #24]
 80093d2:	2b09      	cmp	r3, #9
 80093d4:	f200 8090 	bhi.w	80094f8 <_dtoa_r+0x2d8>
 80093d8:	2b05      	cmp	r3, #5
 80093da:	bfc4      	itt	gt
 80093dc:	3b04      	subgt	r3, #4
 80093de:	9306      	strgt	r3, [sp, #24]
 80093e0:	9b06      	ldr	r3, [sp, #24]
 80093e2:	f1a3 0302 	sub.w	r3, r3, #2
 80093e6:	bfcc      	ite	gt
 80093e8:	2500      	movgt	r5, #0
 80093ea:	2501      	movle	r5, #1
 80093ec:	2b03      	cmp	r3, #3
 80093ee:	f200 808f 	bhi.w	8009510 <_dtoa_r+0x2f0>
 80093f2:	e8df f003 	tbb	[pc, r3]
 80093f6:	7f7d      	.short	0x7f7d
 80093f8:	7131      	.short	0x7131
 80093fa:	e9dd 5314 	ldrd	r5, r3, [sp, #80]	; 0x50
 80093fe:	441d      	add	r5, r3
 8009400:	f205 4032 	addw	r0, r5, #1074	; 0x432
 8009404:	2820      	cmp	r0, #32
 8009406:	dd13      	ble.n	8009430 <_dtoa_r+0x210>
 8009408:	f1c0 0040 	rsb	r0, r0, #64	; 0x40
 800940c:	9b00      	ldr	r3, [sp, #0]
 800940e:	fa08 f800 	lsl.w	r8, r8, r0
 8009412:	f205 4012 	addw	r0, r5, #1042	; 0x412
 8009416:	fa23 f000 	lsr.w	r0, r3, r0
 800941a:	ea48 0000 	orr.w	r0, r8, r0
 800941e:	f7f7 f825 	bl	800046c <__aeabi_ui2d>
 8009422:	2301      	movs	r3, #1
 8009424:	4682      	mov	sl, r0
 8009426:	f1a1 7bf8 	sub.w	fp, r1, #32505856	; 0x1f00000
 800942a:	3d01      	subs	r5, #1
 800942c:	9313      	str	r3, [sp, #76]	; 0x4c
 800942e:	e772      	b.n	8009316 <_dtoa_r+0xf6>
 8009430:	9b00      	ldr	r3, [sp, #0]
 8009432:	f1c0 0020 	rsb	r0, r0, #32
 8009436:	fa03 f000 	lsl.w	r0, r3, r0
 800943a:	e7f0      	b.n	800941e <_dtoa_r+0x1fe>
 800943c:	2301      	movs	r3, #1
 800943e:	e7b1      	b.n	80093a4 <_dtoa_r+0x184>
 8009440:	900f      	str	r0, [sp, #60]	; 0x3c
 8009442:	e7b0      	b.n	80093a6 <_dtoa_r+0x186>
 8009444:	9b05      	ldr	r3, [sp, #20]
 8009446:	eba3 030a 	sub.w	r3, r3, sl
 800944a:	9305      	str	r3, [sp, #20]
 800944c:	f1ca 0300 	rsb	r3, sl, #0
 8009450:	9307      	str	r3, [sp, #28]
 8009452:	2300      	movs	r3, #0
 8009454:	930e      	str	r3, [sp, #56]	; 0x38
 8009456:	e7bb      	b.n	80093d0 <_dtoa_r+0x1b0>
 8009458:	2301      	movs	r3, #1
 800945a:	930a      	str	r3, [sp, #40]	; 0x28
 800945c:	9b0b      	ldr	r3, [sp, #44]	; 0x2c
 800945e:	2b00      	cmp	r3, #0
 8009460:	dd59      	ble.n	8009516 <_dtoa_r+0x2f6>
 8009462:	9302      	str	r3, [sp, #8]
 8009464:	4699      	mov	r9, r3
 8009466:	6a66      	ldr	r6, [r4, #36]	; 0x24
 8009468:	2200      	movs	r2, #0
 800946a:	6072      	str	r2, [r6, #4]
 800946c:	2204      	movs	r2, #4
 800946e:	f102 0014 	add.w	r0, r2, #20
 8009472:	4298      	cmp	r0, r3
 8009474:	6871      	ldr	r1, [r6, #4]
 8009476:	d953      	bls.n	8009520 <_dtoa_r+0x300>
 8009478:	4620      	mov	r0, r4
 800947a:	f000 fe82 	bl	800a182 <_Balloc>
 800947e:	6a63      	ldr	r3, [r4, #36]	; 0x24
 8009480:	6030      	str	r0, [r6, #0]
 8009482:	f1b9 0f0e 	cmp.w	r9, #14
 8009486:	f8d3 b000 	ldr.w	fp, [r3]
 800948a:	f200 80e6 	bhi.w	800965a <_dtoa_r+0x43a>
 800948e:	2d00      	cmp	r5, #0
 8009490:	f000 80e3 	beq.w	800965a <_dtoa_r+0x43a>
 8009494:	ed9d 7b00 	vldr	d7, [sp]
 8009498:	f1ba 0f00 	cmp.w	sl, #0
 800949c:	ed8d 7b10 	vstr	d7, [sp, #64]	; 0x40
 80094a0:	dd74      	ble.n	800958c <_dtoa_r+0x36c>
 80094a2:	4a2a      	ldr	r2, [pc, #168]	; (800954c <_dtoa_r+0x32c>)
 80094a4:	f00a 030f 	and.w	r3, sl, #15
 80094a8:	eb02 03c3 	add.w	r3, r2, r3, lsl #3
 80094ac:	ed93 7b00 	vldr	d7, [r3]
 80094b0:	ea4f 162a 	mov.w	r6, sl, asr #4
 80094b4:	06f0      	lsls	r0, r6, #27
 80094b6:	ed8d 7b08 	vstr	d7, [sp, #32]
 80094ba:	d565      	bpl.n	8009588 <_dtoa_r+0x368>
 80094bc:	4b24      	ldr	r3, [pc, #144]	; (8009550 <_dtoa_r+0x330>)
 80094be:	e9dd 0110 	ldrd	r0, r1, [sp, #64]	; 0x40
 80094c2:	e9d3 2308 	ldrd	r2, r3, [r3, #32]
 80094c6:	f7f7 f975 	bl	80007b4 <__aeabi_ddiv>
 80094ca:	e9cd 0100 	strd	r0, r1, [sp]
 80094ce:	f006 060f 	and.w	r6, r6, #15
 80094d2:	2503      	movs	r5, #3
 80094d4:	4f1e      	ldr	r7, [pc, #120]	; (8009550 <_dtoa_r+0x330>)
 80094d6:	e04c      	b.n	8009572 <_dtoa_r+0x352>
 80094d8:	2301      	movs	r3, #1
 80094da:	930a      	str	r3, [sp, #40]	; 0x28
 80094dc:	9b0b      	ldr	r3, [sp, #44]	; 0x2c
 80094de:	4453      	add	r3, sl
 80094e0:	f103 0901 	add.w	r9, r3, #1
 80094e4:	9302      	str	r3, [sp, #8]
 80094e6:	464b      	mov	r3, r9
 80094e8:	2b01      	cmp	r3, #1
 80094ea:	bfb8      	it	lt
 80094ec:	2301      	movlt	r3, #1
 80094ee:	e7ba      	b.n	8009466 <_dtoa_r+0x246>
 80094f0:	2300      	movs	r3, #0
 80094f2:	e7b2      	b.n	800945a <_dtoa_r+0x23a>
 80094f4:	2300      	movs	r3, #0
 80094f6:	e7f0      	b.n	80094da <_dtoa_r+0x2ba>
 80094f8:	2501      	movs	r5, #1
 80094fa:	2300      	movs	r3, #0
 80094fc:	9306      	str	r3, [sp, #24]
 80094fe:	950a      	str	r5, [sp, #40]	; 0x28
 8009500:	f04f 33ff 	mov.w	r3, #4294967295
 8009504:	9302      	str	r3, [sp, #8]
 8009506:	4699      	mov	r9, r3
 8009508:	2200      	movs	r2, #0
 800950a:	2312      	movs	r3, #18
 800950c:	920b      	str	r2, [sp, #44]	; 0x2c
 800950e:	e7aa      	b.n	8009466 <_dtoa_r+0x246>
 8009510:	2301      	movs	r3, #1
 8009512:	930a      	str	r3, [sp, #40]	; 0x28
 8009514:	e7f4      	b.n	8009500 <_dtoa_r+0x2e0>
 8009516:	2301      	movs	r3, #1
 8009518:	9302      	str	r3, [sp, #8]
 800951a:	4699      	mov	r9, r3
 800951c:	461a      	mov	r2, r3
 800951e:	e7f5      	b.n	800950c <_dtoa_r+0x2ec>
 8009520:	3101      	adds	r1, #1
 8009522:	6071      	str	r1, [r6, #4]
 8009524:	0052      	lsls	r2, r2, #1
 8009526:	e7a2      	b.n	800946e <_dtoa_r+0x24e>
 8009528:	636f4361 	.word	0x636f4361
 800952c:	3fd287a7 	.word	0x3fd287a7
 8009530:	8b60c8b3 	.word	0x8b60c8b3
 8009534:	3fc68a28 	.word	0x3fc68a28
 8009538:	509f79fb 	.word	0x509f79fb
 800953c:	3fd34413 	.word	0x3fd34413
 8009540:	7ff00000 	.word	0x7ff00000
 8009544:	0800a99d 	.word	0x0800a99d
 8009548:	3ff80000 	.word	0x3ff80000
 800954c:	0800aa38 	.word	0x0800aa38
 8009550:	0800aa10 	.word	0x0800aa10
 8009554:	0800a9a7 	.word	0x0800a9a7
 8009558:	07f1      	lsls	r1, r6, #31
 800955a:	d508      	bpl.n	800956e <_dtoa_r+0x34e>
 800955c:	e9dd 0108 	ldrd	r0, r1, [sp, #32]
 8009560:	e9d7 2300 	ldrd	r2, r3, [r7]
 8009564:	f7f6 fffc 	bl	8000560 <__aeabi_dmul>
 8009568:	e9cd 0108 	strd	r0, r1, [sp, #32]
 800956c:	3501      	adds	r5, #1
 800956e:	1076      	asrs	r6, r6, #1
 8009570:	3708      	adds	r7, #8
 8009572:	2e00      	cmp	r6, #0
 8009574:	d1f0      	bne.n	8009558 <_dtoa_r+0x338>
 8009576:	e9dd 2308 	ldrd	r2, r3, [sp, #32]
 800957a:	e9dd 0100 	ldrd	r0, r1, [sp]
 800957e:	f7f7 f919 	bl	80007b4 <__aeabi_ddiv>
 8009582:	e9cd 0100 	strd	r0, r1, [sp]
 8009586:	e01a      	b.n	80095be <_dtoa_r+0x39e>
 8009588:	2502      	movs	r5, #2
 800958a:	e7a3      	b.n	80094d4 <_dtoa_r+0x2b4>
 800958c:	f000 80a0 	beq.w	80096d0 <_dtoa_r+0x4b0>
 8009590:	f1ca 0600 	rsb	r6, sl, #0
 8009594:	4b9f      	ldr	r3, [pc, #636]	; (8009814 <_dtoa_r+0x5f4>)
 8009596:	4fa0      	ldr	r7, [pc, #640]	; (8009818 <_dtoa_r+0x5f8>)
 8009598:	f006 020f 	and.w	r2, r6, #15
 800959c:	eb03 03c2 	add.w	r3, r3, r2, lsl #3
 80095a0:	e9d3 2300 	ldrd	r2, r3, [r3]
 80095a4:	e9dd 0110 	ldrd	r0, r1, [sp, #64]	; 0x40
 80095a8:	f7f6 ffda 	bl	8000560 <__aeabi_dmul>
 80095ac:	e9cd 0100 	strd	r0, r1, [sp]
 80095b0:	1136      	asrs	r6, r6, #4
 80095b2:	2300      	movs	r3, #0
 80095b4:	2502      	movs	r5, #2
 80095b6:	2e00      	cmp	r6, #0
 80095b8:	d17f      	bne.n	80096ba <_dtoa_r+0x49a>
 80095ba:	2b00      	cmp	r3, #0
 80095bc:	d1e1      	bne.n	8009582 <_dtoa_r+0x362>
 80095be:	9b0f      	ldr	r3, [sp, #60]	; 0x3c
 80095c0:	2b00      	cmp	r3, #0
 80095c2:	f000 8087 	beq.w	80096d4 <_dtoa_r+0x4b4>
 80095c6:	e9dd 6700 	ldrd	r6, r7, [sp]
 80095ca:	2200      	movs	r2, #0
 80095cc:	4b93      	ldr	r3, [pc, #588]	; (800981c <_dtoa_r+0x5fc>)
 80095ce:	4630      	mov	r0, r6
 80095d0:	4639      	mov	r1, r7
 80095d2:	f7f7 fa37 	bl	8000a44 <__aeabi_dcmplt>
 80095d6:	2800      	cmp	r0, #0
 80095d8:	d07c      	beq.n	80096d4 <_dtoa_r+0x4b4>
 80095da:	f1b9 0f00 	cmp.w	r9, #0
 80095de:	d079      	beq.n	80096d4 <_dtoa_r+0x4b4>
 80095e0:	9b02      	ldr	r3, [sp, #8]
 80095e2:	2b00      	cmp	r3, #0
 80095e4:	dd35      	ble.n	8009652 <_dtoa_r+0x432>
 80095e6:	f10a 33ff 	add.w	r3, sl, #4294967295
 80095ea:	9308      	str	r3, [sp, #32]
 80095ec:	4639      	mov	r1, r7
 80095ee:	2200      	movs	r2, #0
 80095f0:	4b8b      	ldr	r3, [pc, #556]	; (8009820 <_dtoa_r+0x600>)
 80095f2:	4630      	mov	r0, r6
 80095f4:	f7f6 ffb4 	bl	8000560 <__aeabi_dmul>
 80095f8:	e9cd 0100 	strd	r0, r1, [sp]
 80095fc:	9f02      	ldr	r7, [sp, #8]
 80095fe:	3501      	adds	r5, #1
 8009600:	4628      	mov	r0, r5
 8009602:	f7f6 ff43 	bl	800048c <__aeabi_i2d>
 8009606:	e9dd 2300 	ldrd	r2, r3, [sp]
 800960a:	f7f6 ffa9 	bl	8000560 <__aeabi_dmul>
 800960e:	2200      	movs	r2, #0
 8009610:	4b84      	ldr	r3, [pc, #528]	; (8009824 <_dtoa_r+0x604>)
 8009612:	f7f6 fdef 	bl	80001f4 <__adddf3>
 8009616:	4605      	mov	r5, r0
 8009618:	f1a1 7650 	sub.w	r6, r1, #54525952	; 0x3400000
 800961c:	2f00      	cmp	r7, #0
 800961e:	d15d      	bne.n	80096dc <_dtoa_r+0x4bc>
 8009620:	2200      	movs	r2, #0
 8009622:	4b81      	ldr	r3, [pc, #516]	; (8009828 <_dtoa_r+0x608>)
 8009624:	e9dd 0100 	ldrd	r0, r1, [sp]
 8009628:	f7f6 fde2 	bl	80001f0 <__aeabi_dsub>
 800962c:	462a      	mov	r2, r5
 800962e:	4633      	mov	r3, r6
 8009630:	e9cd 0100 	strd	r0, r1, [sp]
 8009634:	f7f7 fa24 	bl	8000a80 <__aeabi_dcmpgt>
 8009638:	2800      	cmp	r0, #0
 800963a:	f040 8288 	bne.w	8009b4e <_dtoa_r+0x92e>
 800963e:	462a      	mov	r2, r5
 8009640:	f106 4300 	add.w	r3, r6, #2147483648	; 0x80000000
 8009644:	e9dd 0100 	ldrd	r0, r1, [sp]
 8009648:	f7f7 f9fc 	bl	8000a44 <__aeabi_dcmplt>
 800964c:	2800      	cmp	r0, #0
 800964e:	f040 827c 	bne.w	8009b4a <_dtoa_r+0x92a>
 8009652:	e9dd 2310 	ldrd	r2, r3, [sp, #64]	; 0x40
 8009656:	e9cd 2300 	strd	r2, r3, [sp]
 800965a:	9b15      	ldr	r3, [sp, #84]	; 0x54
 800965c:	2b00      	cmp	r3, #0
 800965e:	f2c0 8150 	blt.w	8009902 <_dtoa_r+0x6e2>
 8009662:	f1ba 0f0e 	cmp.w	sl, #14
 8009666:	f300 814c 	bgt.w	8009902 <_dtoa_r+0x6e2>
 800966a:	4b6a      	ldr	r3, [pc, #424]	; (8009814 <_dtoa_r+0x5f4>)
 800966c:	eb03 03ca 	add.w	r3, r3, sl, lsl #3
 8009670:	ed93 7b00 	vldr	d7, [r3]
 8009674:	9b0b      	ldr	r3, [sp, #44]	; 0x2c
 8009676:	2b00      	cmp	r3, #0
 8009678:	ed8d 7b02 	vstr	d7, [sp, #8]
 800967c:	f280 80d8 	bge.w	8009830 <_dtoa_r+0x610>
 8009680:	f1b9 0f00 	cmp.w	r9, #0
 8009684:	f300 80d4 	bgt.w	8009830 <_dtoa_r+0x610>
 8009688:	f040 825e 	bne.w	8009b48 <_dtoa_r+0x928>
 800968c:	2200      	movs	r2, #0
 800968e:	4b66      	ldr	r3, [pc, #408]	; (8009828 <_dtoa_r+0x608>)
 8009690:	ec51 0b17 	vmov	r0, r1, d7
 8009694:	f7f6 ff64 	bl	8000560 <__aeabi_dmul>
 8009698:	e9dd 2300 	ldrd	r2, r3, [sp]
 800969c:	f7f7 f9e6 	bl	8000a6c <__aeabi_dcmpge>
 80096a0:	464f      	mov	r7, r9
 80096a2:	464e      	mov	r6, r9
 80096a4:	2800      	cmp	r0, #0
 80096a6:	f040 8234 	bne.w	8009b12 <_dtoa_r+0x8f2>
 80096aa:	2331      	movs	r3, #49	; 0x31
 80096ac:	f10b 0501 	add.w	r5, fp, #1
 80096b0:	f88b 3000 	strb.w	r3, [fp]
 80096b4:	f10a 0a01 	add.w	sl, sl, #1
 80096b8:	e22f      	b.n	8009b1a <_dtoa_r+0x8fa>
 80096ba:	07f2      	lsls	r2, r6, #31
 80096bc:	d505      	bpl.n	80096ca <_dtoa_r+0x4aa>
 80096be:	e9d7 2300 	ldrd	r2, r3, [r7]
 80096c2:	f7f6 ff4d 	bl	8000560 <__aeabi_dmul>
 80096c6:	3501      	adds	r5, #1
 80096c8:	2301      	movs	r3, #1
 80096ca:	1076      	asrs	r6, r6, #1
 80096cc:	3708      	adds	r7, #8
 80096ce:	e772      	b.n	80095b6 <_dtoa_r+0x396>
 80096d0:	2502      	movs	r5, #2
 80096d2:	e774      	b.n	80095be <_dtoa_r+0x39e>
 80096d4:	f8cd a020 	str.w	sl, [sp, #32]
 80096d8:	464f      	mov	r7, r9
 80096da:	e791      	b.n	8009600 <_dtoa_r+0x3e0>
 80096dc:	4b4d      	ldr	r3, [pc, #308]	; (8009814 <_dtoa_r+0x5f4>)
 80096de:	eb03 03c7 	add.w	r3, r3, r7, lsl #3
 80096e2:	e953 0102 	ldrd	r0, r1, [r3, #-8]
 80096e6:	9b0a      	ldr	r3, [sp, #40]	; 0x28
 80096e8:	2b00      	cmp	r3, #0
 80096ea:	d047      	beq.n	800977c <_dtoa_r+0x55c>
 80096ec:	4602      	mov	r2, r0
 80096ee:	460b      	mov	r3, r1
 80096f0:	2000      	movs	r0, #0
 80096f2:	494e      	ldr	r1, [pc, #312]	; (800982c <_dtoa_r+0x60c>)
 80096f4:	f7f7 f85e 	bl	80007b4 <__aeabi_ddiv>
 80096f8:	462a      	mov	r2, r5
 80096fa:	4633      	mov	r3, r6
 80096fc:	f7f6 fd78 	bl	80001f0 <__aeabi_dsub>
 8009700:	e9cd 010c 	strd	r0, r1, [sp, #48]	; 0x30
 8009704:	465d      	mov	r5, fp
 8009706:	e9dd 0100 	ldrd	r0, r1, [sp]
 800970a:	f7f7 f9d9 	bl	8000ac0 <__aeabi_d2iz>
 800970e:	4606      	mov	r6, r0
 8009710:	f7f6 febc 	bl	800048c <__aeabi_i2d>
 8009714:	4602      	mov	r2, r0
 8009716:	460b      	mov	r3, r1
 8009718:	e9dd 0100 	ldrd	r0, r1, [sp]
 800971c:	f7f6 fd68 	bl	80001f0 <__aeabi_dsub>
 8009720:	3630      	adds	r6, #48	; 0x30
 8009722:	f805 6b01 	strb.w	r6, [r5], #1
 8009726:	e9dd 230c 	ldrd	r2, r3, [sp, #48]	; 0x30
 800972a:	e9cd 0100 	strd	r0, r1, [sp]
 800972e:	f7f7 f989 	bl	8000a44 <__aeabi_dcmplt>
 8009732:	2800      	cmp	r0, #0
 8009734:	d163      	bne.n	80097fe <_dtoa_r+0x5de>
 8009736:	e9dd 2300 	ldrd	r2, r3, [sp]
 800973a:	2000      	movs	r0, #0
 800973c:	4937      	ldr	r1, [pc, #220]	; (800981c <_dtoa_r+0x5fc>)
 800973e:	f7f6 fd57 	bl	80001f0 <__aeabi_dsub>
 8009742:	e9dd 230c 	ldrd	r2, r3, [sp, #48]	; 0x30
 8009746:	f7f7 f97d 	bl	8000a44 <__aeabi_dcmplt>
 800974a:	2800      	cmp	r0, #0
 800974c:	f040 80b7 	bne.w	80098be <_dtoa_r+0x69e>
 8009750:	eba5 030b 	sub.w	r3, r5, fp
 8009754:	429f      	cmp	r7, r3
 8009756:	f77f af7c 	ble.w	8009652 <_dtoa_r+0x432>
 800975a:	2200      	movs	r2, #0
 800975c:	4b30      	ldr	r3, [pc, #192]	; (8009820 <_dtoa_r+0x600>)
 800975e:	e9dd 010c 	ldrd	r0, r1, [sp, #48]	; 0x30
 8009762:	f7f6 fefd 	bl	8000560 <__aeabi_dmul>
 8009766:	2200      	movs	r2, #0
 8009768:	e9cd 010c 	strd	r0, r1, [sp, #48]	; 0x30
 800976c:	4b2c      	ldr	r3, [pc, #176]	; (8009820 <_dtoa_r+0x600>)
 800976e:	e9dd 0100 	ldrd	r0, r1, [sp]
 8009772:	f7f6 fef5 	bl	8000560 <__aeabi_dmul>
 8009776:	e9cd 0100 	strd	r0, r1, [sp]
 800977a:	e7c4      	b.n	8009706 <_dtoa_r+0x4e6>
 800977c:	462a      	mov	r2, r5
 800977e:	4633      	mov	r3, r6
 8009780:	f7f6 feee 	bl	8000560 <__aeabi_dmul>
 8009784:	e9cd 010c 	strd	r0, r1, [sp, #48]	; 0x30
 8009788:	eb0b 0507 	add.w	r5, fp, r7
 800978c:	465e      	mov	r6, fp
 800978e:	e9dd 0100 	ldrd	r0, r1, [sp]
 8009792:	f7f7 f995 	bl	8000ac0 <__aeabi_d2iz>
 8009796:	4607      	mov	r7, r0
 8009798:	f7f6 fe78 	bl	800048c <__aeabi_i2d>
 800979c:	3730      	adds	r7, #48	; 0x30
 800979e:	4602      	mov	r2, r0
 80097a0:	460b      	mov	r3, r1
 80097a2:	e9dd 0100 	ldrd	r0, r1, [sp]
 80097a6:	f7f6 fd23 	bl	80001f0 <__aeabi_dsub>
 80097aa:	f806 7b01 	strb.w	r7, [r6], #1
 80097ae:	42ae      	cmp	r6, r5
 80097b0:	e9cd 0100 	strd	r0, r1, [sp]
 80097b4:	f04f 0200 	mov.w	r2, #0
 80097b8:	d126      	bne.n	8009808 <_dtoa_r+0x5e8>
 80097ba:	4b1c      	ldr	r3, [pc, #112]	; (800982c <_dtoa_r+0x60c>)
 80097bc:	e9dd 010c 	ldrd	r0, r1, [sp, #48]	; 0x30
 80097c0:	f7f6 fd18 	bl	80001f4 <__adddf3>
 80097c4:	4602      	mov	r2, r0
 80097c6:	460b      	mov	r3, r1
 80097c8:	e9dd 0100 	ldrd	r0, r1, [sp]
 80097cc:	f7f7 f958 	bl	8000a80 <__aeabi_dcmpgt>
 80097d0:	2800      	cmp	r0, #0
 80097d2:	d174      	bne.n	80098be <_dtoa_r+0x69e>
 80097d4:	e9dd 230c 	ldrd	r2, r3, [sp, #48]	; 0x30
 80097d8:	2000      	movs	r0, #0
 80097da:	4914      	ldr	r1, [pc, #80]	; (800982c <_dtoa_r+0x60c>)
 80097dc:	f7f6 fd08 	bl	80001f0 <__aeabi_dsub>
 80097e0:	4602      	mov	r2, r0
 80097e2:	460b      	mov	r3, r1
 80097e4:	e9dd 0100 	ldrd	r0, r1, [sp]
 80097e8:	f7f7 f92c 	bl	8000a44 <__aeabi_dcmplt>
 80097ec:	2800      	cmp	r0, #0
 80097ee:	f43f af30 	beq.w	8009652 <_dtoa_r+0x432>
 80097f2:	f815 3c01 	ldrb.w	r3, [r5, #-1]
 80097f6:	2b30      	cmp	r3, #48	; 0x30
 80097f8:	f105 32ff 	add.w	r2, r5, #4294967295
 80097fc:	d002      	beq.n	8009804 <_dtoa_r+0x5e4>
 80097fe:	f8dd a020 	ldr.w	sl, [sp, #32]
 8009802:	e04a      	b.n	800989a <_dtoa_r+0x67a>
 8009804:	4615      	mov	r5, r2
 8009806:	e7f4      	b.n	80097f2 <_dtoa_r+0x5d2>
 8009808:	4b05      	ldr	r3, [pc, #20]	; (8009820 <_dtoa_r+0x600>)
 800980a:	f7f6 fea9 	bl	8000560 <__aeabi_dmul>
 800980e:	e9cd 0100 	strd	r0, r1, [sp]
 8009812:	e7bc      	b.n	800978e <_dtoa_r+0x56e>
 8009814:	0800aa38 	.word	0x0800aa38
 8009818:	0800aa10 	.word	0x0800aa10
 800981c:	3ff00000 	.word	0x3ff00000
 8009820:	40240000 	.word	0x40240000
 8009824:	401c0000 	.word	0x401c0000
 8009828:	40140000 	.word	0x40140000
 800982c:	3fe00000 	.word	0x3fe00000
 8009830:	e9dd 6700 	ldrd	r6, r7, [sp]
 8009834:	465d      	mov	r5, fp
 8009836:	e9dd 2302 	ldrd	r2, r3, [sp, #8]
 800983a:	4630      	mov	r0, r6
 800983c:	4639      	mov	r1, r7
 800983e:	f7f6 ffb9 	bl	80007b4 <__aeabi_ddiv>
 8009842:	f7f7 f93d 	bl	8000ac0 <__aeabi_d2iz>
 8009846:	4680      	mov	r8, r0
 8009848:	f7f6 fe20 	bl	800048c <__aeabi_i2d>
 800984c:	e9dd 2302 	ldrd	r2, r3, [sp, #8]
 8009850:	f7f6 fe86 	bl	8000560 <__aeabi_dmul>
 8009854:	4602      	mov	r2, r0
 8009856:	460b      	mov	r3, r1
 8009858:	4630      	mov	r0, r6
 800985a:	4639      	mov	r1, r7
 800985c:	f108 0630 	add.w	r6, r8, #48	; 0x30
 8009860:	f7f6 fcc6 	bl	80001f0 <__aeabi_dsub>
 8009864:	f805 6b01 	strb.w	r6, [r5], #1
 8009868:	eba5 060b 	sub.w	r6, r5, fp
 800986c:	45b1      	cmp	r9, r6
 800986e:	4602      	mov	r2, r0
 8009870:	460b      	mov	r3, r1
 8009872:	d139      	bne.n	80098e8 <_dtoa_r+0x6c8>
 8009874:	f7f6 fcbe 	bl	80001f4 <__adddf3>
 8009878:	e9dd 2302 	ldrd	r2, r3, [sp, #8]
 800987c:	4606      	mov	r6, r0
 800987e:	460f      	mov	r7, r1
 8009880:	f7f7 f8fe 	bl	8000a80 <__aeabi_dcmpgt>
 8009884:	b9c8      	cbnz	r0, 80098ba <_dtoa_r+0x69a>
 8009886:	e9dd 2302 	ldrd	r2, r3, [sp, #8]
 800988a:	4630      	mov	r0, r6
 800988c:	4639      	mov	r1, r7
 800988e:	f7f7 f8cf 	bl	8000a30 <__aeabi_dcmpeq>
 8009892:	b110      	cbz	r0, 800989a <_dtoa_r+0x67a>
 8009894:	f018 0f01 	tst.w	r8, #1
 8009898:	d10f      	bne.n	80098ba <_dtoa_r+0x69a>
 800989a:	9904      	ldr	r1, [sp, #16]
 800989c:	4620      	mov	r0, r4
 800989e:	f000 fca4 	bl	800a1ea <_Bfree>
 80098a2:	2300      	movs	r3, #0
 80098a4:	9a12      	ldr	r2, [sp, #72]	; 0x48
 80098a6:	702b      	strb	r3, [r5, #0]
 80098a8:	f10a 0301 	add.w	r3, sl, #1
 80098ac:	6013      	str	r3, [r2, #0]
 80098ae:	9b21      	ldr	r3, [sp, #132]	; 0x84
 80098b0:	2b00      	cmp	r3, #0
 80098b2:	f000 8241 	beq.w	8009d38 <_dtoa_r+0xb18>
 80098b6:	601d      	str	r5, [r3, #0]
 80098b8:	e23e      	b.n	8009d38 <_dtoa_r+0xb18>
 80098ba:	f8cd a020 	str.w	sl, [sp, #32]
 80098be:	f815 2c01 	ldrb.w	r2, [r5, #-1]
 80098c2:	2a39      	cmp	r2, #57	; 0x39
 80098c4:	f105 33ff 	add.w	r3, r5, #4294967295
 80098c8:	d108      	bne.n	80098dc <_dtoa_r+0x6bc>
 80098ca:	459b      	cmp	fp, r3
 80098cc:	d10a      	bne.n	80098e4 <_dtoa_r+0x6c4>
 80098ce:	9b08      	ldr	r3, [sp, #32]
 80098d0:	3301      	adds	r3, #1
 80098d2:	9308      	str	r3, [sp, #32]
 80098d4:	2330      	movs	r3, #48	; 0x30
 80098d6:	f88b 3000 	strb.w	r3, [fp]
 80098da:	465b      	mov	r3, fp
 80098dc:	781a      	ldrb	r2, [r3, #0]
 80098de:	3201      	adds	r2, #1
 80098e0:	701a      	strb	r2, [r3, #0]
 80098e2:	e78c      	b.n	80097fe <_dtoa_r+0x5de>
 80098e4:	461d      	mov	r5, r3
 80098e6:	e7ea      	b.n	80098be <_dtoa_r+0x69e>
 80098e8:	2200      	movs	r2, #0
 80098ea:	4b9b      	ldr	r3, [pc, #620]	; (8009b58 <_dtoa_r+0x938>)
 80098ec:	f7f6 fe38 	bl	8000560 <__aeabi_dmul>
 80098f0:	2200      	movs	r2, #0
 80098f2:	2300      	movs	r3, #0
 80098f4:	4606      	mov	r6, r0
 80098f6:	460f      	mov	r7, r1
 80098f8:	f7f7 f89a 	bl	8000a30 <__aeabi_dcmpeq>
 80098fc:	2800      	cmp	r0, #0
 80098fe:	d09a      	beq.n	8009836 <_dtoa_r+0x616>
 8009900:	e7cb      	b.n	800989a <_dtoa_r+0x67a>
 8009902:	9a0a      	ldr	r2, [sp, #40]	; 0x28
 8009904:	2a00      	cmp	r2, #0
 8009906:	f000 808b 	beq.w	8009a20 <_dtoa_r+0x800>
 800990a:	9a06      	ldr	r2, [sp, #24]
 800990c:	2a01      	cmp	r2, #1
 800990e:	dc6e      	bgt.n	80099ee <_dtoa_r+0x7ce>
 8009910:	9a13      	ldr	r2, [sp, #76]	; 0x4c
 8009912:	2a00      	cmp	r2, #0
 8009914:	d067      	beq.n	80099e6 <_dtoa_r+0x7c6>
 8009916:	f203 4333 	addw	r3, r3, #1075	; 0x433
 800991a:	9f07      	ldr	r7, [sp, #28]
 800991c:	9d05      	ldr	r5, [sp, #20]
 800991e:	9a05      	ldr	r2, [sp, #20]
 8009920:	2101      	movs	r1, #1
 8009922:	441a      	add	r2, r3
 8009924:	4620      	mov	r0, r4
 8009926:	9205      	str	r2, [sp, #20]
 8009928:	4498      	add	r8, r3
 800992a:	f000 fcfe 	bl	800a32a <__i2b>
 800992e:	4606      	mov	r6, r0
 8009930:	2d00      	cmp	r5, #0
 8009932:	dd0c      	ble.n	800994e <_dtoa_r+0x72e>
 8009934:	f1b8 0f00 	cmp.w	r8, #0
 8009938:	dd09      	ble.n	800994e <_dtoa_r+0x72e>
 800993a:	4545      	cmp	r5, r8
 800993c:	9a05      	ldr	r2, [sp, #20]
 800993e:	462b      	mov	r3, r5
 8009940:	bfa8      	it	ge
 8009942:	4643      	movge	r3, r8
 8009944:	1ad2      	subs	r2, r2, r3
 8009946:	9205      	str	r2, [sp, #20]
 8009948:	1aed      	subs	r5, r5, r3
 800994a:	eba8 0803 	sub.w	r8, r8, r3
 800994e:	9b07      	ldr	r3, [sp, #28]
 8009950:	b1eb      	cbz	r3, 800998e <_dtoa_r+0x76e>
 8009952:	9b0a      	ldr	r3, [sp, #40]	; 0x28
 8009954:	2b00      	cmp	r3, #0
 8009956:	d067      	beq.n	8009a28 <_dtoa_r+0x808>
 8009958:	b18f      	cbz	r7, 800997e <_dtoa_r+0x75e>
 800995a:	4631      	mov	r1, r6
 800995c:	463a      	mov	r2, r7
 800995e:	4620      	mov	r0, r4
 8009960:	f000 fd82 	bl	800a468 <__pow5mult>
 8009964:	9a04      	ldr	r2, [sp, #16]
 8009966:	4601      	mov	r1, r0
 8009968:	4606      	mov	r6, r0
 800996a:	4620      	mov	r0, r4
 800996c:	f000 fce6 	bl	800a33c <__multiply>
 8009970:	9904      	ldr	r1, [sp, #16]
 8009972:	9008      	str	r0, [sp, #32]
 8009974:	4620      	mov	r0, r4
 8009976:	f000 fc38 	bl	800a1ea <_Bfree>
 800997a:	9b08      	ldr	r3, [sp, #32]
 800997c:	9304      	str	r3, [sp, #16]
 800997e:	9b07      	ldr	r3, [sp, #28]
 8009980:	1bda      	subs	r2, r3, r7
 8009982:	d004      	beq.n	800998e <_dtoa_r+0x76e>
 8009984:	9904      	ldr	r1, [sp, #16]
 8009986:	4620      	mov	r0, r4
 8009988:	f000 fd6e 	bl	800a468 <__pow5mult>
 800998c:	9004      	str	r0, [sp, #16]
 800998e:	2101      	movs	r1, #1
 8009990:	4620      	mov	r0, r4
 8009992:	f000 fcca 	bl	800a32a <__i2b>
 8009996:	9b0e      	ldr	r3, [sp, #56]	; 0x38
 8009998:	4607      	mov	r7, r0
 800999a:	2b00      	cmp	r3, #0
 800999c:	f000 81d0 	beq.w	8009d40 <_dtoa_r+0xb20>
 80099a0:	461a      	mov	r2, r3
 80099a2:	4601      	mov	r1, r0
 80099a4:	4620      	mov	r0, r4
 80099a6:	f000 fd5f 	bl	800a468 <__pow5mult>
 80099aa:	9b06      	ldr	r3, [sp, #24]
 80099ac:	2b01      	cmp	r3, #1
 80099ae:	4607      	mov	r7, r0
 80099b0:	dc40      	bgt.n	8009a34 <_dtoa_r+0x814>
 80099b2:	9b00      	ldr	r3, [sp, #0]
 80099b4:	2b00      	cmp	r3, #0
 80099b6:	d139      	bne.n	8009a2c <_dtoa_r+0x80c>
 80099b8:	9b01      	ldr	r3, [sp, #4]
 80099ba:	f3c3 0313 	ubfx	r3, r3, #0, #20
 80099be:	2b00      	cmp	r3, #0
 80099c0:	d136      	bne.n	8009a30 <_dtoa_r+0x810>
 80099c2:	9b01      	ldr	r3, [sp, #4]
 80099c4:	f023 4300 	bic.w	r3, r3, #2147483648	; 0x80000000
 80099c8:	0d1b      	lsrs	r3, r3, #20
 80099ca:	051b      	lsls	r3, r3, #20
 80099cc:	b12b      	cbz	r3, 80099da <_dtoa_r+0x7ba>
 80099ce:	9b05      	ldr	r3, [sp, #20]
 80099d0:	3301      	adds	r3, #1
 80099d2:	9305      	str	r3, [sp, #20]
 80099d4:	f108 0801 	add.w	r8, r8, #1
 80099d8:	2301      	movs	r3, #1
 80099da:	9307      	str	r3, [sp, #28]
 80099dc:	9b0e      	ldr	r3, [sp, #56]	; 0x38
 80099de:	2b00      	cmp	r3, #0
 80099e0:	d12a      	bne.n	8009a38 <_dtoa_r+0x818>
 80099e2:	2001      	movs	r0, #1
 80099e4:	e030      	b.n	8009a48 <_dtoa_r+0x828>
 80099e6:	9b14      	ldr	r3, [sp, #80]	; 0x50
 80099e8:	f1c3 0336 	rsb	r3, r3, #54	; 0x36
 80099ec:	e795      	b.n	800991a <_dtoa_r+0x6fa>
 80099ee:	9b07      	ldr	r3, [sp, #28]
 80099f0:	f109 37ff 	add.w	r7, r9, #4294967295
 80099f4:	42bb      	cmp	r3, r7
 80099f6:	bfbf      	itttt	lt
 80099f8:	9b07      	ldrlt	r3, [sp, #28]
 80099fa:	9707      	strlt	r7, [sp, #28]
 80099fc:	1afa      	sublt	r2, r7, r3
 80099fe:	9b0e      	ldrlt	r3, [sp, #56]	; 0x38
 8009a00:	bfbb      	ittet	lt
 8009a02:	189b      	addlt	r3, r3, r2
 8009a04:	930e      	strlt	r3, [sp, #56]	; 0x38
 8009a06:	1bdf      	subge	r7, r3, r7
 8009a08:	2700      	movlt	r7, #0
 8009a0a:	f1b9 0f00 	cmp.w	r9, #0
 8009a0e:	bfb5      	itete	lt
 8009a10:	9b05      	ldrlt	r3, [sp, #20]
 8009a12:	9d05      	ldrge	r5, [sp, #20]
 8009a14:	eba3 0509 	sublt.w	r5, r3, r9
 8009a18:	464b      	movge	r3, r9
 8009a1a:	bfb8      	it	lt
 8009a1c:	2300      	movlt	r3, #0
 8009a1e:	e77e      	b.n	800991e <_dtoa_r+0x6fe>
 8009a20:	9f07      	ldr	r7, [sp, #28]
 8009a22:	9d05      	ldr	r5, [sp, #20]
 8009a24:	9e0a      	ldr	r6, [sp, #40]	; 0x28
 8009a26:	e783      	b.n	8009930 <_dtoa_r+0x710>
 8009a28:	9a07      	ldr	r2, [sp, #28]
 8009a2a:	e7ab      	b.n	8009984 <_dtoa_r+0x764>
 8009a2c:	2300      	movs	r3, #0
 8009a2e:	e7d4      	b.n	80099da <_dtoa_r+0x7ba>
 8009a30:	9b00      	ldr	r3, [sp, #0]
 8009a32:	e7d2      	b.n	80099da <_dtoa_r+0x7ba>
 8009a34:	2300      	movs	r3, #0
 8009a36:	9307      	str	r3, [sp, #28]
 8009a38:	693b      	ldr	r3, [r7, #16]
 8009a3a:	eb07 0383 	add.w	r3, r7, r3, lsl #2
 8009a3e:	6918      	ldr	r0, [r3, #16]
 8009a40:	f000 fc25 	bl	800a28e <__hi0bits>
 8009a44:	f1c0 0020 	rsb	r0, r0, #32
 8009a48:	4440      	add	r0, r8
 8009a4a:	f010 001f 	ands.w	r0, r0, #31
 8009a4e:	d047      	beq.n	8009ae0 <_dtoa_r+0x8c0>
 8009a50:	f1c0 0320 	rsb	r3, r0, #32
 8009a54:	2b04      	cmp	r3, #4
 8009a56:	dd3b      	ble.n	8009ad0 <_dtoa_r+0x8b0>
 8009a58:	9b05      	ldr	r3, [sp, #20]
 8009a5a:	f1c0 001c 	rsb	r0, r0, #28
 8009a5e:	4403      	add	r3, r0
 8009a60:	9305      	str	r3, [sp, #20]
 8009a62:	4405      	add	r5, r0
 8009a64:	4480      	add	r8, r0
 8009a66:	9b05      	ldr	r3, [sp, #20]
 8009a68:	2b00      	cmp	r3, #0
 8009a6a:	dd05      	ble.n	8009a78 <_dtoa_r+0x858>
 8009a6c:	461a      	mov	r2, r3
 8009a6e:	9904      	ldr	r1, [sp, #16]
 8009a70:	4620      	mov	r0, r4
 8009a72:	f000 fd47 	bl	800a504 <__lshift>
 8009a76:	9004      	str	r0, [sp, #16]
 8009a78:	f1b8 0f00 	cmp.w	r8, #0
 8009a7c:	dd05      	ble.n	8009a8a <_dtoa_r+0x86a>
 8009a7e:	4639      	mov	r1, r7
 8009a80:	4642      	mov	r2, r8
 8009a82:	4620      	mov	r0, r4
 8009a84:	f000 fd3e 	bl	800a504 <__lshift>
 8009a88:	4607      	mov	r7, r0
 8009a8a:	9b0f      	ldr	r3, [sp, #60]	; 0x3c
 8009a8c:	b353      	cbz	r3, 8009ae4 <_dtoa_r+0x8c4>
 8009a8e:	4639      	mov	r1, r7
 8009a90:	9804      	ldr	r0, [sp, #16]
 8009a92:	f000 fd8b 	bl	800a5ac <__mcmp>
 8009a96:	2800      	cmp	r0, #0
 8009a98:	da24      	bge.n	8009ae4 <_dtoa_r+0x8c4>
 8009a9a:	2300      	movs	r3, #0
 8009a9c:	220a      	movs	r2, #10
 8009a9e:	9904      	ldr	r1, [sp, #16]
 8009aa0:	4620      	mov	r0, r4
 8009aa2:	f000 fbb9 	bl	800a218 <__multadd>
 8009aa6:	9b0a      	ldr	r3, [sp, #40]	; 0x28
 8009aa8:	9004      	str	r0, [sp, #16]
 8009aaa:	f10a 3aff 	add.w	sl, sl, #4294967295
 8009aae:	2b00      	cmp	r3, #0
 8009ab0:	f000 814d 	beq.w	8009d4e <_dtoa_r+0xb2e>
 8009ab4:	2300      	movs	r3, #0
 8009ab6:	4631      	mov	r1, r6
 8009ab8:	220a      	movs	r2, #10
 8009aba:	4620      	mov	r0, r4
 8009abc:	f000 fbac 	bl	800a218 <__multadd>
 8009ac0:	9b02      	ldr	r3, [sp, #8]
 8009ac2:	2b00      	cmp	r3, #0
 8009ac4:	4606      	mov	r6, r0
 8009ac6:	dc4f      	bgt.n	8009b68 <_dtoa_r+0x948>
 8009ac8:	9b06      	ldr	r3, [sp, #24]
 8009aca:	2b02      	cmp	r3, #2
 8009acc:	dd4c      	ble.n	8009b68 <_dtoa_r+0x948>
 8009ace:	e011      	b.n	8009af4 <_dtoa_r+0x8d4>
 8009ad0:	d0c9      	beq.n	8009a66 <_dtoa_r+0x846>
 8009ad2:	9a05      	ldr	r2, [sp, #20]
 8009ad4:	331c      	adds	r3, #28
 8009ad6:	441a      	add	r2, r3
 8009ad8:	9205      	str	r2, [sp, #20]
 8009ada:	441d      	add	r5, r3
 8009adc:	4498      	add	r8, r3
 8009ade:	e7c2      	b.n	8009a66 <_dtoa_r+0x846>
 8009ae0:	4603      	mov	r3, r0
 8009ae2:	e7f6      	b.n	8009ad2 <_dtoa_r+0x8b2>
 8009ae4:	f1b9 0f00 	cmp.w	r9, #0
 8009ae8:	dc38      	bgt.n	8009b5c <_dtoa_r+0x93c>
 8009aea:	9b06      	ldr	r3, [sp, #24]
 8009aec:	2b02      	cmp	r3, #2
 8009aee:	dd35      	ble.n	8009b5c <_dtoa_r+0x93c>
 8009af0:	f8cd 9008 	str.w	r9, [sp, #8]
 8009af4:	9b02      	ldr	r3, [sp, #8]
 8009af6:	b963      	cbnz	r3, 8009b12 <_dtoa_r+0x8f2>
 8009af8:	4639      	mov	r1, r7
 8009afa:	2205      	movs	r2, #5
 8009afc:	4620      	mov	r0, r4
 8009afe:	f000 fb8b 	bl	800a218 <__multadd>
 8009b02:	4601      	mov	r1, r0
 8009b04:	4607      	mov	r7, r0
 8009b06:	9804      	ldr	r0, [sp, #16]
 8009b08:	f000 fd50 	bl	800a5ac <__mcmp>
 8009b0c:	2800      	cmp	r0, #0
 8009b0e:	f73f adcc 	bgt.w	80096aa <_dtoa_r+0x48a>
 8009b12:	9b0b      	ldr	r3, [sp, #44]	; 0x2c
 8009b14:	465d      	mov	r5, fp
 8009b16:	ea6f 0a03 	mvn.w	sl, r3
 8009b1a:	f04f 0900 	mov.w	r9, #0
 8009b1e:	4639      	mov	r1, r7
 8009b20:	4620      	mov	r0, r4
 8009b22:	f000 fb62 	bl	800a1ea <_Bfree>
 8009b26:	2e00      	cmp	r6, #0
 8009b28:	f43f aeb7 	beq.w	800989a <_dtoa_r+0x67a>
 8009b2c:	f1b9 0f00 	cmp.w	r9, #0
 8009b30:	d005      	beq.n	8009b3e <_dtoa_r+0x91e>
 8009b32:	45b1      	cmp	r9, r6
 8009b34:	d003      	beq.n	8009b3e <_dtoa_r+0x91e>
 8009b36:	4649      	mov	r1, r9
 8009b38:	4620      	mov	r0, r4
 8009b3a:	f000 fb56 	bl	800a1ea <_Bfree>
 8009b3e:	4631      	mov	r1, r6
 8009b40:	4620      	mov	r0, r4
 8009b42:	f000 fb52 	bl	800a1ea <_Bfree>
 8009b46:	e6a8      	b.n	800989a <_dtoa_r+0x67a>
 8009b48:	2700      	movs	r7, #0
 8009b4a:	463e      	mov	r6, r7
 8009b4c:	e7e1      	b.n	8009b12 <_dtoa_r+0x8f2>
 8009b4e:	f8dd a020 	ldr.w	sl, [sp, #32]
 8009b52:	463e      	mov	r6, r7
 8009b54:	e5a9      	b.n	80096aa <_dtoa_r+0x48a>
 8009b56:	bf00      	nop
 8009b58:	40240000 	.word	0x40240000
 8009b5c:	9b0a      	ldr	r3, [sp, #40]	; 0x28
 8009b5e:	f8cd 9008 	str.w	r9, [sp, #8]
 8009b62:	2b00      	cmp	r3, #0
 8009b64:	f000 80fa 	beq.w	8009d5c <_dtoa_r+0xb3c>
 8009b68:	2d00      	cmp	r5, #0
 8009b6a:	dd05      	ble.n	8009b78 <_dtoa_r+0x958>
 8009b6c:	4631      	mov	r1, r6
 8009b6e:	462a      	mov	r2, r5
 8009b70:	4620      	mov	r0, r4
 8009b72:	f000 fcc7 	bl	800a504 <__lshift>
 8009b76:	4606      	mov	r6, r0
 8009b78:	9b07      	ldr	r3, [sp, #28]
 8009b7a:	2b00      	cmp	r3, #0
 8009b7c:	d04c      	beq.n	8009c18 <_dtoa_r+0x9f8>
 8009b7e:	6871      	ldr	r1, [r6, #4]
 8009b80:	4620      	mov	r0, r4
 8009b82:	f000 fafe 	bl	800a182 <_Balloc>
 8009b86:	6932      	ldr	r2, [r6, #16]
 8009b88:	3202      	adds	r2, #2
 8009b8a:	4605      	mov	r5, r0
 8009b8c:	0092      	lsls	r2, r2, #2
 8009b8e:	f106 010c 	add.w	r1, r6, #12
 8009b92:	300c      	adds	r0, #12
 8009b94:	f000 fae8 	bl	800a168 <memcpy>
 8009b98:	2201      	movs	r2, #1
 8009b9a:	4629      	mov	r1, r5
 8009b9c:	4620      	mov	r0, r4
 8009b9e:	f000 fcb1 	bl	800a504 <__lshift>
 8009ba2:	9b00      	ldr	r3, [sp, #0]
 8009ba4:	f8cd b014 	str.w	fp, [sp, #20]
 8009ba8:	f003 0301 	and.w	r3, r3, #1
 8009bac:	46b1      	mov	r9, r6
 8009bae:	9307      	str	r3, [sp, #28]
 8009bb0:	4606      	mov	r6, r0
 8009bb2:	4639      	mov	r1, r7
 8009bb4:	9804      	ldr	r0, [sp, #16]
 8009bb6:	f7ff faa7 	bl	8009108 <quorem>
 8009bba:	4649      	mov	r1, r9
 8009bbc:	4605      	mov	r5, r0
 8009bbe:	f100 0830 	add.w	r8, r0, #48	; 0x30
 8009bc2:	9804      	ldr	r0, [sp, #16]
 8009bc4:	f000 fcf2 	bl	800a5ac <__mcmp>
 8009bc8:	4632      	mov	r2, r6
 8009bca:	9000      	str	r0, [sp, #0]
 8009bcc:	4639      	mov	r1, r7
 8009bce:	4620      	mov	r0, r4
 8009bd0:	f000 fd06 	bl	800a5e0 <__mdiff>
 8009bd4:	68c3      	ldr	r3, [r0, #12]
 8009bd6:	4602      	mov	r2, r0
 8009bd8:	bb03      	cbnz	r3, 8009c1c <_dtoa_r+0x9fc>
 8009bda:	4601      	mov	r1, r0
 8009bdc:	9008      	str	r0, [sp, #32]
 8009bde:	9804      	ldr	r0, [sp, #16]
 8009be0:	f000 fce4 	bl	800a5ac <__mcmp>
 8009be4:	9a08      	ldr	r2, [sp, #32]
 8009be6:	4603      	mov	r3, r0
 8009be8:	4611      	mov	r1, r2
 8009bea:	4620      	mov	r0, r4
 8009bec:	9308      	str	r3, [sp, #32]
 8009bee:	f000 fafc 	bl	800a1ea <_Bfree>
 8009bf2:	9b08      	ldr	r3, [sp, #32]
 8009bf4:	b9a3      	cbnz	r3, 8009c20 <_dtoa_r+0xa00>
 8009bf6:	9a06      	ldr	r2, [sp, #24]
 8009bf8:	b992      	cbnz	r2, 8009c20 <_dtoa_r+0xa00>
 8009bfa:	9a07      	ldr	r2, [sp, #28]
 8009bfc:	b982      	cbnz	r2, 8009c20 <_dtoa_r+0xa00>
 8009bfe:	f1b8 0f39 	cmp.w	r8, #57	; 0x39
 8009c02:	d029      	beq.n	8009c58 <_dtoa_r+0xa38>
 8009c04:	9b00      	ldr	r3, [sp, #0]
 8009c06:	2b00      	cmp	r3, #0
 8009c08:	dd01      	ble.n	8009c0e <_dtoa_r+0x9ee>
 8009c0a:	f105 0831 	add.w	r8, r5, #49	; 0x31
 8009c0e:	9b05      	ldr	r3, [sp, #20]
 8009c10:	1c5d      	adds	r5, r3, #1
 8009c12:	f883 8000 	strb.w	r8, [r3]
 8009c16:	e782      	b.n	8009b1e <_dtoa_r+0x8fe>
 8009c18:	4630      	mov	r0, r6
 8009c1a:	e7c2      	b.n	8009ba2 <_dtoa_r+0x982>
 8009c1c:	2301      	movs	r3, #1
 8009c1e:	e7e3      	b.n	8009be8 <_dtoa_r+0x9c8>
 8009c20:	9a00      	ldr	r2, [sp, #0]
 8009c22:	2a00      	cmp	r2, #0
 8009c24:	db04      	blt.n	8009c30 <_dtoa_r+0xa10>
 8009c26:	d125      	bne.n	8009c74 <_dtoa_r+0xa54>
 8009c28:	9a06      	ldr	r2, [sp, #24]
 8009c2a:	bb1a      	cbnz	r2, 8009c74 <_dtoa_r+0xa54>
 8009c2c:	9a07      	ldr	r2, [sp, #28]
 8009c2e:	bb0a      	cbnz	r2, 8009c74 <_dtoa_r+0xa54>
 8009c30:	2b00      	cmp	r3, #0
 8009c32:	ddec      	ble.n	8009c0e <_dtoa_r+0x9ee>
 8009c34:	2201      	movs	r2, #1
 8009c36:	9904      	ldr	r1, [sp, #16]
 8009c38:	4620      	mov	r0, r4
 8009c3a:	f000 fc63 	bl	800a504 <__lshift>
 8009c3e:	4639      	mov	r1, r7
 8009c40:	9004      	str	r0, [sp, #16]
 8009c42:	f000 fcb3 	bl	800a5ac <__mcmp>
 8009c46:	2800      	cmp	r0, #0
 8009c48:	dc03      	bgt.n	8009c52 <_dtoa_r+0xa32>
 8009c4a:	d1e0      	bne.n	8009c0e <_dtoa_r+0x9ee>
 8009c4c:	f018 0f01 	tst.w	r8, #1
 8009c50:	d0dd      	beq.n	8009c0e <_dtoa_r+0x9ee>
 8009c52:	f1b8 0f39 	cmp.w	r8, #57	; 0x39
 8009c56:	d1d8      	bne.n	8009c0a <_dtoa_r+0x9ea>
 8009c58:	9b05      	ldr	r3, [sp, #20]
 8009c5a:	9a05      	ldr	r2, [sp, #20]
 8009c5c:	1c5d      	adds	r5, r3, #1
 8009c5e:	2339      	movs	r3, #57	; 0x39
 8009c60:	7013      	strb	r3, [r2, #0]
 8009c62:	f815 3c01 	ldrb.w	r3, [r5, #-1]
 8009c66:	2b39      	cmp	r3, #57	; 0x39
 8009c68:	f105 32ff 	add.w	r2, r5, #4294967295
 8009c6c:	d04f      	beq.n	8009d0e <_dtoa_r+0xaee>
 8009c6e:	3301      	adds	r3, #1
 8009c70:	7013      	strb	r3, [r2, #0]
 8009c72:	e754      	b.n	8009b1e <_dtoa_r+0x8fe>
 8009c74:	9a05      	ldr	r2, [sp, #20]
 8009c76:	2b00      	cmp	r3, #0
 8009c78:	f102 0501 	add.w	r5, r2, #1
 8009c7c:	dd06      	ble.n	8009c8c <_dtoa_r+0xa6c>
 8009c7e:	f1b8 0f39 	cmp.w	r8, #57	; 0x39
 8009c82:	d0e9      	beq.n	8009c58 <_dtoa_r+0xa38>
 8009c84:	f108 0801 	add.w	r8, r8, #1
 8009c88:	9b05      	ldr	r3, [sp, #20]
 8009c8a:	e7c2      	b.n	8009c12 <_dtoa_r+0x9f2>
 8009c8c:	9a02      	ldr	r2, [sp, #8]
 8009c8e:	f805 8c01 	strb.w	r8, [r5, #-1]
 8009c92:	eba5 030b 	sub.w	r3, r5, fp
 8009c96:	4293      	cmp	r3, r2
 8009c98:	d021      	beq.n	8009cde <_dtoa_r+0xabe>
 8009c9a:	2300      	movs	r3, #0
 8009c9c:	220a      	movs	r2, #10
 8009c9e:	9904      	ldr	r1, [sp, #16]
 8009ca0:	4620      	mov	r0, r4
 8009ca2:	f000 fab9 	bl	800a218 <__multadd>
 8009ca6:	45b1      	cmp	r9, r6
 8009ca8:	9004      	str	r0, [sp, #16]
 8009caa:	f04f 0300 	mov.w	r3, #0
 8009cae:	f04f 020a 	mov.w	r2, #10
 8009cb2:	4649      	mov	r1, r9
 8009cb4:	4620      	mov	r0, r4
 8009cb6:	d105      	bne.n	8009cc4 <_dtoa_r+0xaa4>
 8009cb8:	f000 faae 	bl	800a218 <__multadd>
 8009cbc:	4681      	mov	r9, r0
 8009cbe:	4606      	mov	r6, r0
 8009cc0:	9505      	str	r5, [sp, #20]
 8009cc2:	e776      	b.n	8009bb2 <_dtoa_r+0x992>
 8009cc4:	f000 faa8 	bl	800a218 <__multadd>
 8009cc8:	4631      	mov	r1, r6
 8009cca:	4681      	mov	r9, r0
 8009ccc:	2300      	movs	r3, #0
 8009cce:	220a      	movs	r2, #10
 8009cd0:	4620      	mov	r0, r4
 8009cd2:	f000 faa1 	bl	800a218 <__multadd>
 8009cd6:	4606      	mov	r6, r0
 8009cd8:	e7f2      	b.n	8009cc0 <_dtoa_r+0xaa0>
 8009cda:	f04f 0900 	mov.w	r9, #0
 8009cde:	2201      	movs	r2, #1
 8009ce0:	9904      	ldr	r1, [sp, #16]
 8009ce2:	4620      	mov	r0, r4
 8009ce4:	f000 fc0e 	bl	800a504 <__lshift>
 8009ce8:	4639      	mov	r1, r7
 8009cea:	9004      	str	r0, [sp, #16]
 8009cec:	f000 fc5e 	bl	800a5ac <__mcmp>
 8009cf0:	2800      	cmp	r0, #0
 8009cf2:	dcb6      	bgt.n	8009c62 <_dtoa_r+0xa42>
 8009cf4:	d102      	bne.n	8009cfc <_dtoa_r+0xadc>
 8009cf6:	f018 0f01 	tst.w	r8, #1
 8009cfa:	d1b2      	bne.n	8009c62 <_dtoa_r+0xa42>
 8009cfc:	f815 3c01 	ldrb.w	r3, [r5, #-1]
 8009d00:	2b30      	cmp	r3, #48	; 0x30
 8009d02:	f105 32ff 	add.w	r2, r5, #4294967295
 8009d06:	f47f af0a 	bne.w	8009b1e <_dtoa_r+0x8fe>
 8009d0a:	4615      	mov	r5, r2
 8009d0c:	e7f6      	b.n	8009cfc <_dtoa_r+0xadc>
 8009d0e:	4593      	cmp	fp, r2
 8009d10:	d105      	bne.n	8009d1e <_dtoa_r+0xafe>
 8009d12:	2331      	movs	r3, #49	; 0x31
 8009d14:	f10a 0a01 	add.w	sl, sl, #1
 8009d18:	f88b 3000 	strb.w	r3, [fp]
 8009d1c:	e6ff      	b.n	8009b1e <_dtoa_r+0x8fe>
 8009d1e:	4615      	mov	r5, r2
 8009d20:	e79f      	b.n	8009c62 <_dtoa_r+0xa42>
 8009d22:	f8df b064 	ldr.w	fp, [pc, #100]	; 8009d88 <_dtoa_r+0xb68>
 8009d26:	e007      	b.n	8009d38 <_dtoa_r+0xb18>
 8009d28:	9b21      	ldr	r3, [sp, #132]	; 0x84
 8009d2a:	f8df b060 	ldr.w	fp, [pc, #96]	; 8009d8c <_dtoa_r+0xb6c>
 8009d2e:	b11b      	cbz	r3, 8009d38 <_dtoa_r+0xb18>
 8009d30:	f10b 0308 	add.w	r3, fp, #8
 8009d34:	9a21      	ldr	r2, [sp, #132]	; 0x84
 8009d36:	6013      	str	r3, [r2, #0]
 8009d38:	4658      	mov	r0, fp
 8009d3a:	b017      	add	sp, #92	; 0x5c
 8009d3c:	e8bd 8ff0 	ldmia.w	sp!, {r4, r5, r6, r7, r8, r9, sl, fp, pc}
 8009d40:	9b06      	ldr	r3, [sp, #24]
 8009d42:	2b01      	cmp	r3, #1
 8009d44:	f77f ae35 	ble.w	80099b2 <_dtoa_r+0x792>
 8009d48:	9b0e      	ldr	r3, [sp, #56]	; 0x38
 8009d4a:	9307      	str	r3, [sp, #28]
 8009d4c:	e649      	b.n	80099e2 <_dtoa_r+0x7c2>
 8009d4e:	9b02      	ldr	r3, [sp, #8]
 8009d50:	2b00      	cmp	r3, #0
 8009d52:	dc03      	bgt.n	8009d5c <_dtoa_r+0xb3c>
 8009d54:	9b06      	ldr	r3, [sp, #24]
 8009d56:	2b02      	cmp	r3, #2
 8009d58:	f73f aecc 	bgt.w	8009af4 <_dtoa_r+0x8d4>
 8009d5c:	465d      	mov	r5, fp
 8009d5e:	4639      	mov	r1, r7
 8009d60:	9804      	ldr	r0, [sp, #16]
 8009d62:	f7ff f9d1 	bl	8009108 <quorem>
 8009d66:	f100 0830 	add.w	r8, r0, #48	; 0x30
 8009d6a:	f805 8b01 	strb.w	r8, [r5], #1
 8009d6e:	9a02      	ldr	r2, [sp, #8]
 8009d70:	eba5 030b 	sub.w	r3, r5, fp
 8009d74:	429a      	cmp	r2, r3
 8009d76:	ddb0      	ble.n	8009cda <_dtoa_r+0xaba>
 8009d78:	2300      	movs	r3, #0
 8009d7a:	220a      	movs	r2, #10
 8009d7c:	9904      	ldr	r1, [sp, #16]
 8009d7e:	4620      	mov	r0, r4
 8009d80:	f000 fa4a 	bl	800a218 <__multadd>
 8009d84:	9004      	str	r0, [sp, #16]
 8009d86:	e7ea      	b.n	8009d5e <_dtoa_r+0xb3e>
 8009d88:	0800a99c 	.word	0x0800a99c
 8009d8c:	0800a99e 	.word	0x0800a99e

08009d90 <__sflush_r>:
 8009d90:	898a      	ldrh	r2, [r1, #12]
 8009d92:	e92d 41f0 	stmdb	sp!, {r4, r5, r6, r7, r8, lr}
 8009d96:	4605      	mov	r5, r0
 8009d98:	0710      	lsls	r0, r2, #28
 8009d9a:	460c      	mov	r4, r1
 8009d9c:	d458      	bmi.n	8009e50 <__sflush_r+0xc0>
 8009d9e:	684b      	ldr	r3, [r1, #4]
 8009da0:	2b00      	cmp	r3, #0
 8009da2:	dc05      	bgt.n	8009db0 <__sflush_r+0x20>
 8009da4:	6c0b      	ldr	r3, [r1, #64]	; 0x40
 8009da6:	2b00      	cmp	r3, #0
 8009da8:	dc02      	bgt.n	8009db0 <__sflush_r+0x20>
 8009daa:	2000      	movs	r0, #0
 8009dac:	e8bd 81f0 	ldmia.w	sp!, {r4, r5, r6, r7, r8, pc}
 8009db0:	6ae6      	ldr	r6, [r4, #44]	; 0x2c
 8009db2:	2e00      	cmp	r6, #0
 8009db4:	d0f9      	beq.n	8009daa <__sflush_r+0x1a>
 8009db6:	2300      	movs	r3, #0
 8009db8:	f412 5280 	ands.w	r2, r2, #4096	; 0x1000
 8009dbc:	682f      	ldr	r7, [r5, #0]
 8009dbe:	6a21      	ldr	r1, [r4, #32]
 8009dc0:	602b      	str	r3, [r5, #0]
 8009dc2:	d032      	beq.n	8009e2a <__sflush_r+0x9a>
 8009dc4:	6d60      	ldr	r0, [r4, #84]	; 0x54
 8009dc6:	89a3      	ldrh	r3, [r4, #12]
 8009dc8:	075a      	lsls	r2, r3, #29
 8009dca:	d505      	bpl.n	8009dd8 <__sflush_r+0x48>
 8009dcc:	6863      	ldr	r3, [r4, #4]
 8009dce:	1ac0      	subs	r0, r0, r3
 8009dd0:	6b63      	ldr	r3, [r4, #52]	; 0x34
 8009dd2:	b10b      	cbz	r3, 8009dd8 <__sflush_r+0x48>
 8009dd4:	6c23      	ldr	r3, [r4, #64]	; 0x40
 8009dd6:	1ac0      	subs	r0, r0, r3
 8009dd8:	2300      	movs	r3, #0
 8009dda:	4602      	mov	r2, r0
 8009ddc:	6ae6      	ldr	r6, [r4, #44]	; 0x2c
 8009dde:	6a21      	ldr	r1, [r4, #32]
 8009de0:	4628      	mov	r0, r5
 8009de2:	47b0      	blx	r6
 8009de4:	1c43      	adds	r3, r0, #1
 8009de6:	89a3      	ldrh	r3, [r4, #12]
 8009de8:	d106      	bne.n	8009df8 <__sflush_r+0x68>
 8009dea:	6829      	ldr	r1, [r5, #0]
 8009dec:	291d      	cmp	r1, #29
 8009dee:	d848      	bhi.n	8009e82 <__sflush_r+0xf2>
 8009df0:	4a29      	ldr	r2, [pc, #164]	; (8009e98 <__sflush_r+0x108>)
 8009df2:	40ca      	lsrs	r2, r1
 8009df4:	07d6      	lsls	r6, r2, #31
 8009df6:	d544      	bpl.n	8009e82 <__sflush_r+0xf2>
 8009df8:	2200      	movs	r2, #0
 8009dfa:	6062      	str	r2, [r4, #4]
 8009dfc:	04d9      	lsls	r1, r3, #19
 8009dfe:	6922      	ldr	r2, [r4, #16]
 8009e00:	6022      	str	r2, [r4, #0]
 8009e02:	d504      	bpl.n	8009e0e <__sflush_r+0x7e>
 8009e04:	1c42      	adds	r2, r0, #1
 8009e06:	d101      	bne.n	8009e0c <__sflush_r+0x7c>
 8009e08:	682b      	ldr	r3, [r5, #0]
 8009e0a:	b903      	cbnz	r3, 8009e0e <__sflush_r+0x7e>
 8009e0c:	6560      	str	r0, [r4, #84]	; 0x54
 8009e0e:	6b61      	ldr	r1, [r4, #52]	; 0x34
 8009e10:	602f      	str	r7, [r5, #0]
 8009e12:	2900      	cmp	r1, #0
 8009e14:	d0c9      	beq.n	8009daa <__sflush_r+0x1a>
 8009e16:	f104 0344 	add.w	r3, r4, #68	; 0x44
 8009e1a:	4299      	cmp	r1, r3
 8009e1c:	d002      	beq.n	8009e24 <__sflush_r+0x94>
 8009e1e:	4628      	mov	r0, r5
 8009e20:	f7fe fc4c 	bl	80086bc <_free_r>
 8009e24:	2000      	movs	r0, #0
 8009e26:	6360      	str	r0, [r4, #52]	; 0x34
 8009e28:	e7c0      	b.n	8009dac <__sflush_r+0x1c>
 8009e2a:	2301      	movs	r3, #1
 8009e2c:	4628      	mov	r0, r5
 8009e2e:	47b0      	blx	r6
 8009e30:	1c41      	adds	r1, r0, #1
 8009e32:	d1c8      	bne.n	8009dc6 <__sflush_r+0x36>
 8009e34:	682b      	ldr	r3, [r5, #0]
 8009e36:	2b00      	cmp	r3, #0
 8009e38:	d0c5      	beq.n	8009dc6 <__sflush_r+0x36>
 8009e3a:	2b1d      	cmp	r3, #29
 8009e3c:	d001      	beq.n	8009e42 <__sflush_r+0xb2>
 8009e3e:	2b16      	cmp	r3, #22
 8009e40:	d101      	bne.n	8009e46 <__sflush_r+0xb6>
 8009e42:	602f      	str	r7, [r5, #0]
 8009e44:	e7b1      	b.n	8009daa <__sflush_r+0x1a>
 8009e46:	89a3      	ldrh	r3, [r4, #12]
 8009e48:	f043 0340 	orr.w	r3, r3, #64	; 0x40
 8009e4c:	81a3      	strh	r3, [r4, #12]
 8009e4e:	e7ad      	b.n	8009dac <__sflush_r+0x1c>
 8009e50:	690f      	ldr	r7, [r1, #16]
 8009e52:	2f00      	cmp	r7, #0
 8009e54:	d0a9      	beq.n	8009daa <__sflush_r+0x1a>
 8009e56:	0793      	lsls	r3, r2, #30
 8009e58:	680e      	ldr	r6, [r1, #0]
 8009e5a:	bf08      	it	eq
 8009e5c:	694b      	ldreq	r3, [r1, #20]
 8009e5e:	600f      	str	r7, [r1, #0]
 8009e60:	bf18      	it	ne
 8009e62:	2300      	movne	r3, #0
 8009e64:	eba6 0807 	sub.w	r8, r6, r7
 8009e68:	608b      	str	r3, [r1, #8]
 8009e6a:	f1b8 0f00 	cmp.w	r8, #0
 8009e6e:	dd9c      	ble.n	8009daa <__sflush_r+0x1a>
 8009e70:	4643      	mov	r3, r8
 8009e72:	463a      	mov	r2, r7
 8009e74:	6a21      	ldr	r1, [r4, #32]
 8009e76:	6aa6      	ldr	r6, [r4, #40]	; 0x28
 8009e78:	4628      	mov	r0, r5
 8009e7a:	47b0      	blx	r6
 8009e7c:	2800      	cmp	r0, #0
 8009e7e:	dc06      	bgt.n	8009e8e <__sflush_r+0xfe>
 8009e80:	89a3      	ldrh	r3, [r4, #12]
 8009e82:	f043 0340 	orr.w	r3, r3, #64	; 0x40
 8009e86:	81a3      	strh	r3, [r4, #12]
 8009e88:	f04f 30ff 	mov.w	r0, #4294967295
 8009e8c:	e78e      	b.n	8009dac <__sflush_r+0x1c>
 8009e8e:	4407      	add	r7, r0
 8009e90:	eba8 0800 	sub.w	r8, r8, r0
 8009e94:	e7e9      	b.n	8009e6a <__sflush_r+0xda>
 8009e96:	bf00      	nop
 8009e98:	20400001 	.word	0x20400001

08009e9c <_fflush_r>:
 8009e9c:	b538      	push	{r3, r4, r5, lr}
 8009e9e:	690b      	ldr	r3, [r1, #16]
 8009ea0:	4605      	mov	r5, r0
 8009ea2:	460c      	mov	r4, r1
 8009ea4:	b1db      	cbz	r3, 8009ede <_fflush_r+0x42>
 8009ea6:	b118      	cbz	r0, 8009eb0 <_fflush_r+0x14>
 8009ea8:	6983      	ldr	r3, [r0, #24]
 8009eaa:	b90b      	cbnz	r3, 8009eb0 <_fflush_r+0x14>
 8009eac:	f000 f860 	bl	8009f70 <__sinit>
 8009eb0:	4b0c      	ldr	r3, [pc, #48]	; (8009ee4 <_fflush_r+0x48>)
 8009eb2:	429c      	cmp	r4, r3
 8009eb4:	d109      	bne.n	8009eca <_fflush_r+0x2e>
 8009eb6:	686c      	ldr	r4, [r5, #4]
 8009eb8:	f9b4 300c 	ldrsh.w	r3, [r4, #12]
 8009ebc:	b17b      	cbz	r3, 8009ede <_fflush_r+0x42>
 8009ebe:	4621      	mov	r1, r4
 8009ec0:	4628      	mov	r0, r5
 8009ec2:	e8bd 4038 	ldmia.w	sp!, {r3, r4, r5, lr}
 8009ec6:	f7ff bf63 	b.w	8009d90 <__sflush_r>
 8009eca:	4b07      	ldr	r3, [pc, #28]	; (8009ee8 <_fflush_r+0x4c>)
 8009ecc:	429c      	cmp	r4, r3
 8009ece:	d101      	bne.n	8009ed4 <_fflush_r+0x38>
 8009ed0:	68ac      	ldr	r4, [r5, #8]
 8009ed2:	e7f1      	b.n	8009eb8 <_fflush_r+0x1c>
 8009ed4:	4b05      	ldr	r3, [pc, #20]	; (8009eec <_fflush_r+0x50>)
 8009ed6:	429c      	cmp	r4, r3
 8009ed8:	bf08      	it	eq
 8009eda:	68ec      	ldreq	r4, [r5, #12]
 8009edc:	e7ec      	b.n	8009eb8 <_fflush_r+0x1c>
 8009ede:	2000      	movs	r0, #0
 8009ee0:	bd38      	pop	{r3, r4, r5, pc}
 8009ee2:	bf00      	nop
 8009ee4:	0800a9cc 	.word	0x0800a9cc
 8009ee8:	0800a9ec 	.word	0x0800a9ec
 8009eec:	0800a9ac 	.word	0x0800a9ac

08009ef0 <std>:
 8009ef0:	2300      	movs	r3, #0
 8009ef2:	b510      	push	{r4, lr}
 8009ef4:	4604      	mov	r4, r0
 8009ef6:	e9c0 3300 	strd	r3, r3, [r0]
 8009efa:	6083      	str	r3, [r0, #8]
 8009efc:	8181      	strh	r1, [r0, #12]
 8009efe:	6643      	str	r3, [r0, #100]	; 0x64
 8009f00:	81c2      	strh	r2, [r0, #14]
 8009f02:	e9c0 3304 	strd	r3, r3, [r0, #16]
 8009f06:	6183      	str	r3, [r0, #24]
 8009f08:	4619      	mov	r1, r3
 8009f0a:	2208      	movs	r2, #8
 8009f0c:	305c      	adds	r0, #92	; 0x5c
 8009f0e:	f7fe fbcd 	bl	80086ac <memset>
 8009f12:	4b05      	ldr	r3, [pc, #20]	; (8009f28 <std+0x38>)
 8009f14:	6263      	str	r3, [r4, #36]	; 0x24
 8009f16:	4b05      	ldr	r3, [pc, #20]	; (8009f2c <std+0x3c>)
 8009f18:	62a3      	str	r3, [r4, #40]	; 0x28
 8009f1a:	4b05      	ldr	r3, [pc, #20]	; (8009f30 <std+0x40>)
 8009f1c:	62e3      	str	r3, [r4, #44]	; 0x2c
 8009f1e:	4b05      	ldr	r3, [pc, #20]	; (8009f34 <std+0x44>)
 8009f20:	6224      	str	r4, [r4, #32]
 8009f22:	6323      	str	r3, [r4, #48]	; 0x30
 8009f24:	bd10      	pop	{r4, pc}
 8009f26:	bf00      	nop
 8009f28:	0800a755 	.word	0x0800a755
 8009f2c:	0800a777 	.word	0x0800a777
 8009f30:	0800a7af 	.word	0x0800a7af
 8009f34:	0800a7d3 	.word	0x0800a7d3

08009f38 <_cleanup_r>:
 8009f38:	4901      	ldr	r1, [pc, #4]	; (8009f40 <_cleanup_r+0x8>)
 8009f3a:	f000 b885 	b.w	800a048 <_fwalk_reent>
 8009f3e:	bf00      	nop
 8009f40:	08009e9d 	.word	0x08009e9d

08009f44 <__sfmoreglue>:
 8009f44:	b570      	push	{r4, r5, r6, lr}
 8009f46:	1e4a      	subs	r2, r1, #1
 8009f48:	2568      	movs	r5, #104	; 0x68
 8009f4a:	4355      	muls	r5, r2
 8009f4c:	460e      	mov	r6, r1
 8009f4e:	f105 0174 	add.w	r1, r5, #116	; 0x74
 8009f52:	f7fe fc01 	bl	8008758 <_malloc_r>
 8009f56:	4604      	mov	r4, r0
 8009f58:	b140      	cbz	r0, 8009f6c <__sfmoreglue+0x28>
 8009f5a:	2100      	movs	r1, #0
 8009f5c:	e9c0 1600 	strd	r1, r6, [r0]
 8009f60:	300c      	adds	r0, #12
 8009f62:	60a0      	str	r0, [r4, #8]
 8009f64:	f105 0268 	add.w	r2, r5, #104	; 0x68
 8009f68:	f7fe fba0 	bl	80086ac <memset>
 8009f6c:	4620      	mov	r0, r4
 8009f6e:	bd70      	pop	{r4, r5, r6, pc}

08009f70 <__sinit>:
 8009f70:	6983      	ldr	r3, [r0, #24]
 8009f72:	b510      	push	{r4, lr}
 8009f74:	4604      	mov	r4, r0
 8009f76:	bb33      	cbnz	r3, 8009fc6 <__sinit+0x56>
 8009f78:	e9c0 3312 	strd	r3, r3, [r0, #72]	; 0x48
 8009f7c:	6503      	str	r3, [r0, #80]	; 0x50
 8009f7e:	4b12      	ldr	r3, [pc, #72]	; (8009fc8 <__sinit+0x58>)
 8009f80:	4a12      	ldr	r2, [pc, #72]	; (8009fcc <__sinit+0x5c>)
 8009f82:	681b      	ldr	r3, [r3, #0]
 8009f84:	6282      	str	r2, [r0, #40]	; 0x28
 8009f86:	4298      	cmp	r0, r3
 8009f88:	bf04      	itt	eq
 8009f8a:	2301      	moveq	r3, #1
 8009f8c:	6183      	streq	r3, [r0, #24]
 8009f8e:	f000 f81f 	bl	8009fd0 <__sfp>
 8009f92:	6060      	str	r0, [r4, #4]
 8009f94:	4620      	mov	r0, r4
 8009f96:	f000 f81b 	bl	8009fd0 <__sfp>
 8009f9a:	60a0      	str	r0, [r4, #8]
 8009f9c:	4620      	mov	r0, r4
 8009f9e:	f000 f817 	bl	8009fd0 <__sfp>
 8009fa2:	2200      	movs	r2, #0
 8009fa4:	60e0      	str	r0, [r4, #12]
 8009fa6:	2104      	movs	r1, #4
 8009fa8:	6860      	ldr	r0, [r4, #4]
 8009faa:	f7ff ffa1 	bl	8009ef0 <std>
 8009fae:	2201      	movs	r2, #1
 8009fb0:	2109      	movs	r1, #9
 8009fb2:	68a0      	ldr	r0, [r4, #8]
 8009fb4:	f7ff ff9c 	bl	8009ef0 <std>
 8009fb8:	2202      	movs	r2, #2
 8009fba:	2112      	movs	r1, #18
 8009fbc:	68e0      	ldr	r0, [r4, #12]
 8009fbe:	f7ff ff97 	bl	8009ef0 <std>
 8009fc2:	2301      	movs	r3, #1
 8009fc4:	61a3      	str	r3, [r4, #24]
 8009fc6:	bd10      	pop	{r4, pc}
 8009fc8:	0800a988 	.word	0x0800a988
 8009fcc:	08009f39 	.word	0x08009f39

08009fd0 <__sfp>:
 8009fd0:	b5f8      	push	{r3, r4, r5, r6, r7, lr}
 8009fd2:	4b1b      	ldr	r3, [pc, #108]	; (800a040 <__sfp+0x70>)
 8009fd4:	681e      	ldr	r6, [r3, #0]
 8009fd6:	69b3      	ldr	r3, [r6, #24]
 8009fd8:	4607      	mov	r7, r0
 8009fda:	b913      	cbnz	r3, 8009fe2 <__sfp+0x12>
 8009fdc:	4630      	mov	r0, r6
 8009fde:	f7ff ffc7 	bl	8009f70 <__sinit>
 8009fe2:	3648      	adds	r6, #72	; 0x48
 8009fe4:	e9d6 3401 	ldrd	r3, r4, [r6, #4]
 8009fe8:	3b01      	subs	r3, #1
 8009fea:	d503      	bpl.n	8009ff4 <__sfp+0x24>
 8009fec:	6833      	ldr	r3, [r6, #0]
 8009fee:	b133      	cbz	r3, 8009ffe <__sfp+0x2e>
 8009ff0:	6836      	ldr	r6, [r6, #0]
 8009ff2:	e7f7      	b.n	8009fe4 <__sfp+0x14>
 8009ff4:	f9b4 500c 	ldrsh.w	r5, [r4, #12]
 8009ff8:	b16d      	cbz	r5, 800a016 <__sfp+0x46>
 8009ffa:	3468      	adds	r4, #104	; 0x68
 8009ffc:	e7f4      	b.n	8009fe8 <__sfp+0x18>
 8009ffe:	2104      	movs	r1, #4
 800a000:	4638      	mov	r0, r7
 800a002:	f7ff ff9f 	bl	8009f44 <__sfmoreglue>
 800a006:	6030      	str	r0, [r6, #0]
 800a008:	2800      	cmp	r0, #0
 800a00a:	d1f1      	bne.n	8009ff0 <__sfp+0x20>
 800a00c:	230c      	movs	r3, #12
 800a00e:	603b      	str	r3, [r7, #0]
 800a010:	4604      	mov	r4, r0
 800a012:	4620      	mov	r0, r4
 800a014:	bdf8      	pop	{r3, r4, r5, r6, r7, pc}
 800a016:	4b0b      	ldr	r3, [pc, #44]	; (800a044 <__sfp+0x74>)
 800a018:	6665      	str	r5, [r4, #100]	; 0x64
 800a01a:	e9c4 5500 	strd	r5, r5, [r4]
 800a01e:	60a5      	str	r5, [r4, #8]
 800a020:	e9c4 3503 	strd	r3, r5, [r4, #12]
 800a024:	e9c4 5505 	strd	r5, r5, [r4, #20]
 800a028:	2208      	movs	r2, #8
 800a02a:	4629      	mov	r1, r5
 800a02c:	f104 005c 	add.w	r0, r4, #92	; 0x5c
 800a030:	f7fe fb3c 	bl	80086ac <memset>
 800a034:	e9c4 550d 	strd	r5, r5, [r4, #52]	; 0x34
 800a038:	e9c4 5512 	strd	r5, r5, [r4, #72]	; 0x48
 800a03c:	e7e9      	b.n	800a012 <__sfp+0x42>
 800a03e:	bf00      	nop
 800a040:	0800a988 	.word	0x0800a988
 800a044:	ffff0001 	.word	0xffff0001

0800a048 <_fwalk_reent>:
 800a048:	e92d 43f8 	stmdb	sp!, {r3, r4, r5, r6, r7, r8, r9, lr}
 800a04c:	4680      	mov	r8, r0
 800a04e:	4689      	mov	r9, r1
 800a050:	f100 0448 	add.w	r4, r0, #72	; 0x48
 800a054:	2600      	movs	r6, #0
 800a056:	b914      	cbnz	r4, 800a05e <_fwalk_reent+0x16>
 800a058:	4630      	mov	r0, r6
 800a05a:	e8bd 83f8 	ldmia.w	sp!, {r3, r4, r5, r6, r7, r8, r9, pc}
 800a05e:	e9d4 7501 	ldrd	r7, r5, [r4, #4]
 800a062:	3f01      	subs	r7, #1
 800a064:	d501      	bpl.n	800a06a <_fwalk_reent+0x22>
 800a066:	6824      	ldr	r4, [r4, #0]
 800a068:	e7f5      	b.n	800a056 <_fwalk_reent+0xe>
 800a06a:	89ab      	ldrh	r3, [r5, #12]
 800a06c:	2b01      	cmp	r3, #1
 800a06e:	d907      	bls.n	800a080 <_fwalk_reent+0x38>
 800a070:	f9b5 300e 	ldrsh.w	r3, [r5, #14]
 800a074:	3301      	adds	r3, #1
 800a076:	d003      	beq.n	800a080 <_fwalk_reent+0x38>
 800a078:	4629      	mov	r1, r5
 800a07a:	4640      	mov	r0, r8
 800a07c:	47c8      	blx	r9
 800a07e:	4306      	orrs	r6, r0
 800a080:	3568      	adds	r5, #104	; 0x68
 800a082:	e7ee      	b.n	800a062 <_fwalk_reent+0x1a>

0800a084 <_localeconv_r>:
 800a084:	4b04      	ldr	r3, [pc, #16]	; (800a098 <_localeconv_r+0x14>)
 800a086:	681b      	ldr	r3, [r3, #0]
 800a088:	6a18      	ldr	r0, [r3, #32]
 800a08a:	4b04      	ldr	r3, [pc, #16]	; (800a09c <_localeconv_r+0x18>)
 800a08c:	2800      	cmp	r0, #0
 800a08e:	bf08      	it	eq
 800a090:	4618      	moveq	r0, r3
 800a092:	30f0      	adds	r0, #240	; 0xf0
 800a094:	4770      	bx	lr
 800a096:	bf00      	nop
 800a098:	20000198 	.word	0x20000198
 800a09c:	200001fc 	.word	0x200001fc

0800a0a0 <__swhatbuf_r>:
 800a0a0:	b570      	push	{r4, r5, r6, lr}
 800a0a2:	460e      	mov	r6, r1
 800a0a4:	f9b1 100e 	ldrsh.w	r1, [r1, #14]
 800a0a8:	2900      	cmp	r1, #0
 800a0aa:	b096      	sub	sp, #88	; 0x58
 800a0ac:	4614      	mov	r4, r2
 800a0ae:	461d      	mov	r5, r3
 800a0b0:	da07      	bge.n	800a0c2 <__swhatbuf_r+0x22>
 800a0b2:	2300      	movs	r3, #0
 800a0b4:	602b      	str	r3, [r5, #0]
 800a0b6:	89b3      	ldrh	r3, [r6, #12]
 800a0b8:	061a      	lsls	r2, r3, #24
 800a0ba:	d410      	bmi.n	800a0de <__swhatbuf_r+0x3e>
 800a0bc:	f44f 6380 	mov.w	r3, #1024	; 0x400
 800a0c0:	e00e      	b.n	800a0e0 <__swhatbuf_r+0x40>
 800a0c2:	466a      	mov	r2, sp
 800a0c4:	f000 fbac 	bl	800a820 <_fstat_r>
 800a0c8:	2800      	cmp	r0, #0
 800a0ca:	dbf2      	blt.n	800a0b2 <__swhatbuf_r+0x12>
 800a0cc:	9a01      	ldr	r2, [sp, #4]
 800a0ce:	f402 4270 	and.w	r2, r2, #61440	; 0xf000
 800a0d2:	f5a2 5300 	sub.w	r3, r2, #8192	; 0x2000
 800a0d6:	425a      	negs	r2, r3
 800a0d8:	415a      	adcs	r2, r3
 800a0da:	602a      	str	r2, [r5, #0]
 800a0dc:	e7ee      	b.n	800a0bc <__swhatbuf_r+0x1c>
 800a0de:	2340      	movs	r3, #64	; 0x40
 800a0e0:	2000      	movs	r0, #0
 800a0e2:	6023      	str	r3, [r4, #0]
 800a0e4:	b016      	add	sp, #88	; 0x58
 800a0e6:	bd70      	pop	{r4, r5, r6, pc}

0800a0e8 <__smakebuf_r>:
 800a0e8:	898b      	ldrh	r3, [r1, #12]
 800a0ea:	b573      	push	{r0, r1, r4, r5, r6, lr}
 800a0ec:	079d      	lsls	r5, r3, #30
 800a0ee:	4606      	mov	r6, r0
 800a0f0:	460c      	mov	r4, r1
 800a0f2:	d507      	bpl.n	800a104 <__smakebuf_r+0x1c>
 800a0f4:	f104 0347 	add.w	r3, r4, #71	; 0x47
 800a0f8:	6023      	str	r3, [r4, #0]
 800a0fa:	6123      	str	r3, [r4, #16]
 800a0fc:	2301      	movs	r3, #1
 800a0fe:	6163      	str	r3, [r4, #20]
 800a100:	b002      	add	sp, #8
 800a102:	bd70      	pop	{r4, r5, r6, pc}
 800a104:	ab01      	add	r3, sp, #4
 800a106:	466a      	mov	r2, sp
 800a108:	f7ff ffca 	bl	800a0a0 <__swhatbuf_r>
 800a10c:	9900      	ldr	r1, [sp, #0]
 800a10e:	4605      	mov	r5, r0
 800a110:	4630      	mov	r0, r6
 800a112:	f7fe fb21 	bl	8008758 <_malloc_r>
 800a116:	b948      	cbnz	r0, 800a12c <__smakebuf_r+0x44>
 800a118:	f9b4 300c 	ldrsh.w	r3, [r4, #12]
 800a11c:	059a      	lsls	r2, r3, #22
 800a11e:	d4ef      	bmi.n	800a100 <__smakebuf_r+0x18>
 800a120:	f023 0303 	bic.w	r3, r3, #3
 800a124:	f043 0302 	orr.w	r3, r3, #2
 800a128:	81a3      	strh	r3, [r4, #12]
 800a12a:	e7e3      	b.n	800a0f4 <__smakebuf_r+0xc>
 800a12c:	4b0d      	ldr	r3, [pc, #52]	; (800a164 <__smakebuf_r+0x7c>)
 800a12e:	62b3      	str	r3, [r6, #40]	; 0x28
 800a130:	89a3      	ldrh	r3, [r4, #12]
 800a132:	6020      	str	r0, [r4, #0]
 800a134:	f043 0380 	orr.w	r3, r3, #128	; 0x80
 800a138:	81a3      	strh	r3, [r4, #12]
 800a13a:	9b00      	ldr	r3, [sp, #0]
 800a13c:	6163      	str	r3, [r4, #20]
 800a13e:	9b01      	ldr	r3, [sp, #4]
 800a140:	6120      	str	r0, [r4, #16]
 800a142:	b15b      	cbz	r3, 800a15c <__smakebuf_r+0x74>
 800a144:	f9b4 100e 	ldrsh.w	r1, [r4, #14]
 800a148:	4630      	mov	r0, r6
 800a14a:	f000 fb7b 	bl	800a844 <_isatty_r>
 800a14e:	b128      	cbz	r0, 800a15c <__smakebuf_r+0x74>
 800a150:	89a3      	ldrh	r3, [r4, #12]
 800a152:	f023 0303 	bic.w	r3, r3, #3
 800a156:	f043 0301 	orr.w	r3, r3, #1
 800a15a:	81a3      	strh	r3, [r4, #12]
 800a15c:	89a3      	ldrh	r3, [r4, #12]
 800a15e:	431d      	orrs	r5, r3
 800a160:	81a5      	strh	r5, [r4, #12]
 800a162:	e7cd      	b.n	800a100 <__smakebuf_r+0x18>
 800a164:	08009f39 	.word	0x08009f39

0800a168 <memcpy>:
 800a168:	b510      	push	{r4, lr}
 800a16a:	1e43      	subs	r3, r0, #1
 800a16c:	440a      	add	r2, r1
 800a16e:	4291      	cmp	r1, r2
 800a170:	d100      	bne.n	800a174 <memcpy+0xc>
 800a172:	bd10      	pop	{r4, pc}
 800a174:	f811 4b01 	ldrb.w	r4, [r1], #1
 800a178:	f803 4f01 	strb.w	r4, [r3, #1]!
 800a17c:	e7f7      	b.n	800a16e <memcpy+0x6>

0800a17e <__malloc_lock>:
 800a17e:	4770      	bx	lr

0800a180 <__malloc_unlock>:
 800a180:	4770      	bx	lr

0800a182 <_Balloc>:
 800a182:	b570      	push	{r4, r5, r6, lr}
 800a184:	6a45      	ldr	r5, [r0, #36]	; 0x24
 800a186:	4604      	mov	r4, r0
 800a188:	460e      	mov	r6, r1
 800a18a:	b93d      	cbnz	r5, 800a19c <_Balloc+0x1a>
 800a18c:	2010      	movs	r0, #16
 800a18e:	f7fe fa7d 	bl	800868c <malloc>
 800a192:	6260      	str	r0, [r4, #36]	; 0x24
 800a194:	e9c0 5501 	strd	r5, r5, [r0, #4]
 800a198:	6005      	str	r5, [r0, #0]
 800a19a:	60c5      	str	r5, [r0, #12]
 800a19c:	6a65      	ldr	r5, [r4, #36]	; 0x24
 800a19e:	68eb      	ldr	r3, [r5, #12]
 800a1a0:	b183      	cbz	r3, 800a1c4 <_Balloc+0x42>
 800a1a2:	6a63      	ldr	r3, [r4, #36]	; 0x24
 800a1a4:	68db      	ldr	r3, [r3, #12]
 800a1a6:	f853 0026 	ldr.w	r0, [r3, r6, lsl #2]
 800a1aa:	b9b8      	cbnz	r0, 800a1dc <_Balloc+0x5a>
 800a1ac:	2101      	movs	r1, #1
 800a1ae:	fa01 f506 	lsl.w	r5, r1, r6
 800a1b2:	1d6a      	adds	r2, r5, #5
 800a1b4:	0092      	lsls	r2, r2, #2
 800a1b6:	4620      	mov	r0, r4
 800a1b8:	f000 fabe 	bl	800a738 <_calloc_r>
 800a1bc:	b160      	cbz	r0, 800a1d8 <_Balloc+0x56>
 800a1be:	e9c0 6501 	strd	r6, r5, [r0, #4]
 800a1c2:	e00e      	b.n	800a1e2 <_Balloc+0x60>
 800a1c4:	2221      	movs	r2, #33	; 0x21
 800a1c6:	2104      	movs	r1, #4
 800a1c8:	4620      	mov	r0, r4
 800a1ca:	f000 fab5 	bl	800a738 <_calloc_r>
 800a1ce:	6a63      	ldr	r3, [r4, #36]	; 0x24
 800a1d0:	60e8      	str	r0, [r5, #12]
 800a1d2:	68db      	ldr	r3, [r3, #12]
 800a1d4:	2b00      	cmp	r3, #0
 800a1d6:	d1e4      	bne.n	800a1a2 <_Balloc+0x20>
 800a1d8:	2000      	movs	r0, #0
 800a1da:	bd70      	pop	{r4, r5, r6, pc}
 800a1dc:	6802      	ldr	r2, [r0, #0]
 800a1de:	f843 2026 	str.w	r2, [r3, r6, lsl #2]
 800a1e2:	2300      	movs	r3, #0
 800a1e4:	e9c0 3303 	strd	r3, r3, [r0, #12]
 800a1e8:	e7f7      	b.n	800a1da <_Balloc+0x58>

0800a1ea <_Bfree>:
 800a1ea:	b570      	push	{r4, r5, r6, lr}
 800a1ec:	6a44      	ldr	r4, [r0, #36]	; 0x24
 800a1ee:	4606      	mov	r6, r0
 800a1f0:	460d      	mov	r5, r1
 800a1f2:	b93c      	cbnz	r4, 800a204 <_Bfree+0x1a>
 800a1f4:	2010      	movs	r0, #16
 800a1f6:	f7fe fa49 	bl	800868c <malloc>
 800a1fa:	6270      	str	r0, [r6, #36]	; 0x24
 800a1fc:	e9c0 4401 	strd	r4, r4, [r0, #4]
 800a200:	6004      	str	r4, [r0, #0]
 800a202:	60c4      	str	r4, [r0, #12]
 800a204:	b13d      	cbz	r5, 800a216 <_Bfree+0x2c>
 800a206:	6a73      	ldr	r3, [r6, #36]	; 0x24
 800a208:	686a      	ldr	r2, [r5, #4]
 800a20a:	68db      	ldr	r3, [r3, #12]
 800a20c:	f853 1022 	ldr.w	r1, [r3, r2, lsl #2]
 800a210:	6029      	str	r1, [r5, #0]
 800a212:	f843 5022 	str.w	r5, [r3, r2, lsl #2]
 800a216:	bd70      	pop	{r4, r5, r6, pc}

0800a218 <__multadd>:
 800a218:	e92d 41f0 	stmdb	sp!, {r4, r5, r6, r7, r8, lr}
 800a21c:	690d      	ldr	r5, [r1, #16]
 800a21e:	461f      	mov	r7, r3
 800a220:	4606      	mov	r6, r0
 800a222:	460c      	mov	r4, r1
 800a224:	f101 0c14 	add.w	ip, r1, #20
 800a228:	2300      	movs	r3, #0
 800a22a:	f8dc 0000 	ldr.w	r0, [ip]
 800a22e:	b281      	uxth	r1, r0
 800a230:	fb02 7101 	mla	r1, r2, r1, r7
 800a234:	0c0f      	lsrs	r7, r1, #16
 800a236:	0c00      	lsrs	r0, r0, #16
 800a238:	fb02 7000 	mla	r0, r2, r0, r7
 800a23c:	b289      	uxth	r1, r1
 800a23e:	3301      	adds	r3, #1
 800a240:	eb01 4100 	add.w	r1, r1, r0, lsl #16
 800a244:	429d      	cmp	r5, r3
 800a246:	ea4f 4710 	mov.w	r7, r0, lsr #16
 800a24a:	f84c 1b04 	str.w	r1, [ip], #4
 800a24e:	dcec      	bgt.n	800a22a <__multadd+0x12>
 800a250:	b1d7      	cbz	r7, 800a288 <__multadd+0x70>
 800a252:	68a3      	ldr	r3, [r4, #8]
 800a254:	42ab      	cmp	r3, r5
 800a256:	dc12      	bgt.n	800a27e <__multadd+0x66>
 800a258:	6861      	ldr	r1, [r4, #4]
 800a25a:	4630      	mov	r0, r6
 800a25c:	3101      	adds	r1, #1
 800a25e:	f7ff ff90 	bl	800a182 <_Balloc>
 800a262:	6922      	ldr	r2, [r4, #16]
 800a264:	3202      	adds	r2, #2
 800a266:	f104 010c 	add.w	r1, r4, #12
 800a26a:	4680      	mov	r8, r0
 800a26c:	0092      	lsls	r2, r2, #2
 800a26e:	300c      	adds	r0, #12
 800a270:	f7ff ff7a 	bl	800a168 <memcpy>
 800a274:	4621      	mov	r1, r4
 800a276:	4630      	mov	r0, r6
 800a278:	f7ff ffb7 	bl	800a1ea <_Bfree>
 800a27c:	4644      	mov	r4, r8
 800a27e:	eb04 0385 	add.w	r3, r4, r5, lsl #2
 800a282:	3501      	adds	r5, #1
 800a284:	615f      	str	r7, [r3, #20]
 800a286:	6125      	str	r5, [r4, #16]
 800a288:	4620      	mov	r0, r4
 800a28a:	e8bd 81f0 	ldmia.w	sp!, {r4, r5, r6, r7, r8, pc}

0800a28e <__hi0bits>:
 800a28e:	0c02      	lsrs	r2, r0, #16
 800a290:	0412      	lsls	r2, r2, #16
 800a292:	4603      	mov	r3, r0
 800a294:	b9b2      	cbnz	r2, 800a2c4 <__hi0bits+0x36>
 800a296:	0403      	lsls	r3, r0, #16
 800a298:	2010      	movs	r0, #16
 800a29a:	f013 4f7f 	tst.w	r3, #4278190080	; 0xff000000
 800a29e:	bf04      	itt	eq
 800a2a0:	021b      	lsleq	r3, r3, #8
 800a2a2:	3008      	addeq	r0, #8
 800a2a4:	f013 4f70 	tst.w	r3, #4026531840	; 0xf0000000
 800a2a8:	bf04      	itt	eq
 800a2aa:	011b      	lsleq	r3, r3, #4
 800a2ac:	3004      	addeq	r0, #4
 800a2ae:	f013 4f40 	tst.w	r3, #3221225472	; 0xc0000000
 800a2b2:	bf04      	itt	eq
 800a2b4:	009b      	lsleq	r3, r3, #2
 800a2b6:	3002      	addeq	r0, #2
 800a2b8:	2b00      	cmp	r3, #0
 800a2ba:	db06      	blt.n	800a2ca <__hi0bits+0x3c>
 800a2bc:	005b      	lsls	r3, r3, #1
 800a2be:	d503      	bpl.n	800a2c8 <__hi0bits+0x3a>
 800a2c0:	3001      	adds	r0, #1
 800a2c2:	4770      	bx	lr
 800a2c4:	2000      	movs	r0, #0
 800a2c6:	e7e8      	b.n	800a29a <__hi0bits+0xc>
 800a2c8:	2020      	movs	r0, #32
 800a2ca:	4770      	bx	lr

0800a2cc <__lo0bits>:
 800a2cc:	6803      	ldr	r3, [r0, #0]
 800a2ce:	f013 0207 	ands.w	r2, r3, #7
 800a2d2:	4601      	mov	r1, r0
 800a2d4:	d00b      	beq.n	800a2ee <__lo0bits+0x22>
 800a2d6:	07da      	lsls	r2, r3, #31
 800a2d8:	d423      	bmi.n	800a322 <__lo0bits+0x56>
 800a2da:	0798      	lsls	r0, r3, #30
 800a2dc:	bf49      	itett	mi
 800a2de:	085b      	lsrmi	r3, r3, #1
 800a2e0:	089b      	lsrpl	r3, r3, #2
 800a2e2:	2001      	movmi	r0, #1
 800a2e4:	600b      	strmi	r3, [r1, #0]
 800a2e6:	bf5c      	itt	pl
 800a2e8:	600b      	strpl	r3, [r1, #0]
 800a2ea:	2002      	movpl	r0, #2
 800a2ec:	4770      	bx	lr
 800a2ee:	b298      	uxth	r0, r3
 800a2f0:	b9a8      	cbnz	r0, 800a31e <__lo0bits+0x52>
 800a2f2:	0c1b      	lsrs	r3, r3, #16
 800a2f4:	2010      	movs	r0, #16
 800a2f6:	f013 0fff 	tst.w	r3, #255	; 0xff
 800a2fa:	bf04      	itt	eq
 800a2fc:	0a1b      	lsreq	r3, r3, #8
 800a2fe:	3008      	addeq	r0, #8
 800a300:	071a      	lsls	r2, r3, #28
 800a302:	bf04      	itt	eq
 800a304:	091b      	lsreq	r3, r3, #4
 800a306:	3004      	addeq	r0, #4
 800a308:	079a      	lsls	r2, r3, #30
 800a30a:	bf04      	itt	eq
 800a30c:	089b      	lsreq	r3, r3, #2
 800a30e:	3002      	addeq	r0, #2
 800a310:	07da      	lsls	r2, r3, #31
 800a312:	d402      	bmi.n	800a31a <__lo0bits+0x4e>
 800a314:	085b      	lsrs	r3, r3, #1
 800a316:	d006      	beq.n	800a326 <__lo0bits+0x5a>
 800a318:	3001      	adds	r0, #1
 800a31a:	600b      	str	r3, [r1, #0]
 800a31c:	4770      	bx	lr
 800a31e:	4610      	mov	r0, r2
 800a320:	e7e9      	b.n	800a2f6 <__lo0bits+0x2a>
 800a322:	2000      	movs	r0, #0
 800a324:	4770      	bx	lr
 800a326:	2020      	movs	r0, #32
 800a328:	4770      	bx	lr

0800a32a <__i2b>:
 800a32a:	b510      	push	{r4, lr}
 800a32c:	460c      	mov	r4, r1
 800a32e:	2101      	movs	r1, #1
 800a330:	f7ff ff27 	bl	800a182 <_Balloc>
 800a334:	2201      	movs	r2, #1
 800a336:	6144      	str	r4, [r0, #20]
 800a338:	6102      	str	r2, [r0, #16]
 800a33a:	bd10      	pop	{r4, pc}

0800a33c <__multiply>:
 800a33c:	e92d 4ff7 	stmdb	sp!, {r0, r1, r2, r4, r5, r6, r7, r8, r9, sl, fp, lr}
 800a340:	4614      	mov	r4, r2
 800a342:	690a      	ldr	r2, [r1, #16]
 800a344:	6923      	ldr	r3, [r4, #16]
 800a346:	429a      	cmp	r2, r3
 800a348:	bfb8      	it	lt
 800a34a:	460b      	movlt	r3, r1
 800a34c:	4688      	mov	r8, r1
 800a34e:	bfbc      	itt	lt
 800a350:	46a0      	movlt	r8, r4
 800a352:	461c      	movlt	r4, r3
 800a354:	f8d8 7010 	ldr.w	r7, [r8, #16]
 800a358:	f8d4 9010 	ldr.w	r9, [r4, #16]
 800a35c:	f8d8 3008 	ldr.w	r3, [r8, #8]
 800a360:	f8d8 1004 	ldr.w	r1, [r8, #4]
 800a364:	eb07 0609 	add.w	r6, r7, r9
 800a368:	42b3      	cmp	r3, r6
 800a36a:	bfb8      	it	lt
 800a36c:	3101      	addlt	r1, #1
 800a36e:	f7ff ff08 	bl	800a182 <_Balloc>
 800a372:	f100 0514 	add.w	r5, r0, #20
 800a376:	eb05 0e86 	add.w	lr, r5, r6, lsl #2
 800a37a:	462b      	mov	r3, r5
 800a37c:	2200      	movs	r2, #0
 800a37e:	4573      	cmp	r3, lr
 800a380:	d316      	bcc.n	800a3b0 <__multiply+0x74>
 800a382:	f104 0214 	add.w	r2, r4, #20
 800a386:	f108 0114 	add.w	r1, r8, #20
 800a38a:	eb02 0389 	add.w	r3, r2, r9, lsl #2
 800a38e:	eb01 0787 	add.w	r7, r1, r7, lsl #2
 800a392:	9300      	str	r3, [sp, #0]
 800a394:	9b00      	ldr	r3, [sp, #0]
 800a396:	9201      	str	r2, [sp, #4]
 800a398:	4293      	cmp	r3, r2
 800a39a:	d80c      	bhi.n	800a3b6 <__multiply+0x7a>
 800a39c:	2e00      	cmp	r6, #0
 800a39e:	dd03      	ble.n	800a3a8 <__multiply+0x6c>
 800a3a0:	f85e 3d04 	ldr.w	r3, [lr, #-4]!
 800a3a4:	2b00      	cmp	r3, #0
 800a3a6:	d05d      	beq.n	800a464 <__multiply+0x128>
 800a3a8:	6106      	str	r6, [r0, #16]
 800a3aa:	b003      	add	sp, #12
 800a3ac:	e8bd 8ff0 	ldmia.w	sp!, {r4, r5, r6, r7, r8, r9, sl, fp, pc}
 800a3b0:	f843 2b04 	str.w	r2, [r3], #4
 800a3b4:	e7e3      	b.n	800a37e <__multiply+0x42>
 800a3b6:	f8b2 b000 	ldrh.w	fp, [r2]
 800a3ba:	f1bb 0f00 	cmp.w	fp, #0
 800a3be:	d023      	beq.n	800a408 <__multiply+0xcc>
 800a3c0:	4689      	mov	r9, r1
 800a3c2:	46ac      	mov	ip, r5
 800a3c4:	f04f 0800 	mov.w	r8, #0
 800a3c8:	f859 4b04 	ldr.w	r4, [r9], #4
 800a3cc:	f8dc a000 	ldr.w	sl, [ip]
 800a3d0:	b2a3      	uxth	r3, r4
 800a3d2:	fa1f fa8a 	uxth.w	sl, sl
 800a3d6:	fb0b a303 	mla	r3, fp, r3, sl
 800a3da:	ea4f 4a14 	mov.w	sl, r4, lsr #16
 800a3de:	f8dc 4000 	ldr.w	r4, [ip]
 800a3e2:	4443      	add	r3, r8
 800a3e4:	ea4f 4814 	mov.w	r8, r4, lsr #16
 800a3e8:	fb0b 840a 	mla	r4, fp, sl, r8
 800a3ec:	eb04 4413 	add.w	r4, r4, r3, lsr #16
 800a3f0:	46e2      	mov	sl, ip
 800a3f2:	b29b      	uxth	r3, r3
 800a3f4:	ea43 4304 	orr.w	r3, r3, r4, lsl #16
 800a3f8:	454f      	cmp	r7, r9
 800a3fa:	ea4f 4814 	mov.w	r8, r4, lsr #16
 800a3fe:	f84a 3b04 	str.w	r3, [sl], #4
 800a402:	d82b      	bhi.n	800a45c <__multiply+0x120>
 800a404:	f8cc 8004 	str.w	r8, [ip, #4]
 800a408:	9b01      	ldr	r3, [sp, #4]
 800a40a:	f8b3 a002 	ldrh.w	sl, [r3, #2]
 800a40e:	3204      	adds	r2, #4
 800a410:	f1ba 0f00 	cmp.w	sl, #0
 800a414:	d020      	beq.n	800a458 <__multiply+0x11c>
 800a416:	682b      	ldr	r3, [r5, #0]
 800a418:	4689      	mov	r9, r1
 800a41a:	46a8      	mov	r8, r5
 800a41c:	f04f 0b00 	mov.w	fp, #0
 800a420:	f8b9 c000 	ldrh.w	ip, [r9]
 800a424:	f8b8 4002 	ldrh.w	r4, [r8, #2]
 800a428:	fb0a 440c 	mla	r4, sl, ip, r4
 800a42c:	445c      	add	r4, fp
 800a42e:	46c4      	mov	ip, r8
 800a430:	b29b      	uxth	r3, r3
 800a432:	ea43 4304 	orr.w	r3, r3, r4, lsl #16
 800a436:	f84c 3b04 	str.w	r3, [ip], #4
 800a43a:	f859 3b04 	ldr.w	r3, [r9], #4
 800a43e:	f8b8 b004 	ldrh.w	fp, [r8, #4]
 800a442:	0c1b      	lsrs	r3, r3, #16
 800a444:	fb0a b303 	mla	r3, sl, r3, fp
 800a448:	eb03 4314 	add.w	r3, r3, r4, lsr #16
 800a44c:	454f      	cmp	r7, r9
 800a44e:	ea4f 4b13 	mov.w	fp, r3, lsr #16
 800a452:	d805      	bhi.n	800a460 <__multiply+0x124>
 800a454:	f8c8 3004 	str.w	r3, [r8, #4]
 800a458:	3504      	adds	r5, #4
 800a45a:	e79b      	b.n	800a394 <__multiply+0x58>
 800a45c:	46d4      	mov	ip, sl
 800a45e:	e7b3      	b.n	800a3c8 <__multiply+0x8c>
 800a460:	46e0      	mov	r8, ip
 800a462:	e7dd      	b.n	800a420 <__multiply+0xe4>
 800a464:	3e01      	subs	r6, #1
 800a466:	e799      	b.n	800a39c <__multiply+0x60>

0800a468 <__pow5mult>:
 800a468:	e92d 43f8 	stmdb	sp!, {r3, r4, r5, r6, r7, r8, r9, lr}
 800a46c:	4615      	mov	r5, r2
 800a46e:	f012 0203 	ands.w	r2, r2, #3
 800a472:	4606      	mov	r6, r0
 800a474:	460f      	mov	r7, r1
 800a476:	d007      	beq.n	800a488 <__pow5mult+0x20>
 800a478:	3a01      	subs	r2, #1
 800a47a:	4c21      	ldr	r4, [pc, #132]	; (800a500 <__pow5mult+0x98>)
 800a47c:	2300      	movs	r3, #0
 800a47e:	f854 2022 	ldr.w	r2, [r4, r2, lsl #2]
 800a482:	f7ff fec9 	bl	800a218 <__multadd>
 800a486:	4607      	mov	r7, r0
 800a488:	10ad      	asrs	r5, r5, #2
 800a48a:	d035      	beq.n	800a4f8 <__pow5mult+0x90>
 800a48c:	6a74      	ldr	r4, [r6, #36]	; 0x24
 800a48e:	b93c      	cbnz	r4, 800a4a0 <__pow5mult+0x38>
 800a490:	2010      	movs	r0, #16
 800a492:	f7fe f8fb 	bl	800868c <malloc>
 800a496:	6270      	str	r0, [r6, #36]	; 0x24
 800a498:	e9c0 4401 	strd	r4, r4, [r0, #4]
 800a49c:	6004      	str	r4, [r0, #0]
 800a49e:	60c4      	str	r4, [r0, #12]
 800a4a0:	f8d6 8024 	ldr.w	r8, [r6, #36]	; 0x24
 800a4a4:	f8d8 4008 	ldr.w	r4, [r8, #8]
 800a4a8:	b94c      	cbnz	r4, 800a4be <__pow5mult+0x56>
 800a4aa:	f240 2171 	movw	r1, #625	; 0x271
 800a4ae:	4630      	mov	r0, r6
 800a4b0:	f7ff ff3b 	bl	800a32a <__i2b>
 800a4b4:	2300      	movs	r3, #0
 800a4b6:	f8c8 0008 	str.w	r0, [r8, #8]
 800a4ba:	4604      	mov	r4, r0
 800a4bc:	6003      	str	r3, [r0, #0]
 800a4be:	f04f 0800 	mov.w	r8, #0
 800a4c2:	07eb      	lsls	r3, r5, #31
 800a4c4:	d50a      	bpl.n	800a4dc <__pow5mult+0x74>
 800a4c6:	4639      	mov	r1, r7
 800a4c8:	4622      	mov	r2, r4
 800a4ca:	4630      	mov	r0, r6
 800a4cc:	f7ff ff36 	bl	800a33c <__multiply>
 800a4d0:	4639      	mov	r1, r7
 800a4d2:	4681      	mov	r9, r0
 800a4d4:	4630      	mov	r0, r6
 800a4d6:	f7ff fe88 	bl	800a1ea <_Bfree>
 800a4da:	464f      	mov	r7, r9
 800a4dc:	106d      	asrs	r5, r5, #1
 800a4de:	d00b      	beq.n	800a4f8 <__pow5mult+0x90>
 800a4e0:	6820      	ldr	r0, [r4, #0]
 800a4e2:	b938      	cbnz	r0, 800a4f4 <__pow5mult+0x8c>
 800a4e4:	4622      	mov	r2, r4
 800a4e6:	4621      	mov	r1, r4
 800a4e8:	4630      	mov	r0, r6
 800a4ea:	f7ff ff27 	bl	800a33c <__multiply>
 800a4ee:	6020      	str	r0, [r4, #0]
 800a4f0:	f8c0 8000 	str.w	r8, [r0]
 800a4f4:	4604      	mov	r4, r0
 800a4f6:	e7e4      	b.n	800a4c2 <__pow5mult+0x5a>
 800a4f8:	4638      	mov	r0, r7
 800a4fa:	e8bd 83f8 	ldmia.w	sp!, {r3, r4, r5, r6, r7, r8, r9, pc}
 800a4fe:	bf00      	nop
 800a500:	0800ab00 	.word	0x0800ab00

0800a504 <__lshift>:
 800a504:	e92d 47f0 	stmdb	sp!, {r4, r5, r6, r7, r8, r9, sl, lr}
 800a508:	460c      	mov	r4, r1
 800a50a:	ea4f 1a62 	mov.w	sl, r2, asr #5
 800a50e:	6923      	ldr	r3, [r4, #16]
 800a510:	6849      	ldr	r1, [r1, #4]
 800a512:	eb0a 0903 	add.w	r9, sl, r3
 800a516:	68a3      	ldr	r3, [r4, #8]
 800a518:	4607      	mov	r7, r0
 800a51a:	4616      	mov	r6, r2
 800a51c:	f109 0501 	add.w	r5, r9, #1
 800a520:	42ab      	cmp	r3, r5
 800a522:	db32      	blt.n	800a58a <__lshift+0x86>
 800a524:	4638      	mov	r0, r7
 800a526:	f7ff fe2c 	bl	800a182 <_Balloc>
 800a52a:	2300      	movs	r3, #0
 800a52c:	4680      	mov	r8, r0
 800a52e:	f100 0114 	add.w	r1, r0, #20
 800a532:	461a      	mov	r2, r3
 800a534:	4553      	cmp	r3, sl
 800a536:	db2b      	blt.n	800a590 <__lshift+0x8c>
 800a538:	6920      	ldr	r0, [r4, #16]
 800a53a:	ea2a 7aea 	bic.w	sl, sl, sl, asr #31
 800a53e:	f104 0314 	add.w	r3, r4, #20
 800a542:	f016 021f 	ands.w	r2, r6, #31
 800a546:	eb01 018a 	add.w	r1, r1, sl, lsl #2
 800a54a:	eb03 0c80 	add.w	ip, r3, r0, lsl #2
 800a54e:	d025      	beq.n	800a59c <__lshift+0x98>
 800a550:	f1c2 0e20 	rsb	lr, r2, #32
 800a554:	2000      	movs	r0, #0
 800a556:	681e      	ldr	r6, [r3, #0]
 800a558:	468a      	mov	sl, r1
 800a55a:	4096      	lsls	r6, r2
 800a55c:	4330      	orrs	r0, r6
 800a55e:	f84a 0b04 	str.w	r0, [sl], #4
 800a562:	f853 0b04 	ldr.w	r0, [r3], #4
 800a566:	459c      	cmp	ip, r3
 800a568:	fa20 f00e 	lsr.w	r0, r0, lr
 800a56c:	d814      	bhi.n	800a598 <__lshift+0x94>
 800a56e:	6048      	str	r0, [r1, #4]
 800a570:	b108      	cbz	r0, 800a576 <__lshift+0x72>
 800a572:	f109 0502 	add.w	r5, r9, #2
 800a576:	3d01      	subs	r5, #1
 800a578:	4638      	mov	r0, r7
 800a57a:	f8c8 5010 	str.w	r5, [r8, #16]
 800a57e:	4621      	mov	r1, r4
 800a580:	f7ff fe33 	bl	800a1ea <_Bfree>
 800a584:	4640      	mov	r0, r8
 800a586:	e8bd 87f0 	ldmia.w	sp!, {r4, r5, r6, r7, r8, r9, sl, pc}
 800a58a:	3101      	adds	r1, #1
 800a58c:	005b      	lsls	r3, r3, #1
 800a58e:	e7c7      	b.n	800a520 <__lshift+0x1c>
 800a590:	f841 2023 	str.w	r2, [r1, r3, lsl #2]
 800a594:	3301      	adds	r3, #1
 800a596:	e7cd      	b.n	800a534 <__lshift+0x30>
 800a598:	4651      	mov	r1, sl
 800a59a:	e7dc      	b.n	800a556 <__lshift+0x52>
 800a59c:	3904      	subs	r1, #4
 800a59e:	f853 2b04 	ldr.w	r2, [r3], #4
 800a5a2:	f841 2f04 	str.w	r2, [r1, #4]!
 800a5a6:	459c      	cmp	ip, r3
 800a5a8:	d8f9      	bhi.n	800a59e <__lshift+0x9a>
 800a5aa:	e7e4      	b.n	800a576 <__lshift+0x72>

0800a5ac <__mcmp>:
 800a5ac:	6903      	ldr	r3, [r0, #16]
 800a5ae:	690a      	ldr	r2, [r1, #16]
 800a5b0:	1a9b      	subs	r3, r3, r2
 800a5b2:	b530      	push	{r4, r5, lr}
 800a5b4:	d10c      	bne.n	800a5d0 <__mcmp+0x24>
 800a5b6:	0092      	lsls	r2, r2, #2
 800a5b8:	3014      	adds	r0, #20
 800a5ba:	3114      	adds	r1, #20
 800a5bc:	1884      	adds	r4, r0, r2
 800a5be:	4411      	add	r1, r2
 800a5c0:	f854 5d04 	ldr.w	r5, [r4, #-4]!
 800a5c4:	f851 2d04 	ldr.w	r2, [r1, #-4]!
 800a5c8:	4295      	cmp	r5, r2
 800a5ca:	d003      	beq.n	800a5d4 <__mcmp+0x28>
 800a5cc:	d305      	bcc.n	800a5da <__mcmp+0x2e>
 800a5ce:	2301      	movs	r3, #1
 800a5d0:	4618      	mov	r0, r3
 800a5d2:	bd30      	pop	{r4, r5, pc}
 800a5d4:	42a0      	cmp	r0, r4
 800a5d6:	d3f3      	bcc.n	800a5c0 <__mcmp+0x14>
 800a5d8:	e7fa      	b.n	800a5d0 <__mcmp+0x24>
 800a5da:	f04f 33ff 	mov.w	r3, #4294967295
 800a5de:	e7f7      	b.n	800a5d0 <__mcmp+0x24>

0800a5e0 <__mdiff>:
 800a5e0:	e92d 47f0 	stmdb	sp!, {r4, r5, r6, r7, r8, r9, sl, lr}
 800a5e4:	460d      	mov	r5, r1
 800a5e6:	4607      	mov	r7, r0
 800a5e8:	4611      	mov	r1, r2
 800a5ea:	4628      	mov	r0, r5
 800a5ec:	4614      	mov	r4, r2
 800a5ee:	f7ff ffdd 	bl	800a5ac <__mcmp>
 800a5f2:	1e06      	subs	r6, r0, #0
 800a5f4:	d108      	bne.n	800a608 <__mdiff+0x28>
 800a5f6:	4631      	mov	r1, r6
 800a5f8:	4638      	mov	r0, r7
 800a5fa:	f7ff fdc2 	bl	800a182 <_Balloc>
 800a5fe:	2301      	movs	r3, #1
 800a600:	e9c0 3604 	strd	r3, r6, [r0, #16]
 800a604:	e8bd 87f0 	ldmia.w	sp!, {r4, r5, r6, r7, r8, r9, sl, pc}
 800a608:	bfa4      	itt	ge
 800a60a:	4623      	movge	r3, r4
 800a60c:	462c      	movge	r4, r5
 800a60e:	4638      	mov	r0, r7
 800a610:	6861      	ldr	r1, [r4, #4]
 800a612:	bfa6      	itte	ge
 800a614:	461d      	movge	r5, r3
 800a616:	2600      	movge	r6, #0
 800a618:	2601      	movlt	r6, #1
 800a61a:	f7ff fdb2 	bl	800a182 <_Balloc>
 800a61e:	692b      	ldr	r3, [r5, #16]
 800a620:	60c6      	str	r6, [r0, #12]
 800a622:	6926      	ldr	r6, [r4, #16]
 800a624:	f105 0914 	add.w	r9, r5, #20
 800a628:	f104 0214 	add.w	r2, r4, #20
 800a62c:	eb02 0786 	add.w	r7, r2, r6, lsl #2
 800a630:	eb09 0883 	add.w	r8, r9, r3, lsl #2
 800a634:	f100 0514 	add.w	r5, r0, #20
 800a638:	f04f 0e00 	mov.w	lr, #0
 800a63c:	f852 ab04 	ldr.w	sl, [r2], #4
 800a640:	f859 4b04 	ldr.w	r4, [r9], #4
 800a644:	fa1e f18a 	uxtah	r1, lr, sl
 800a648:	b2a3      	uxth	r3, r4
 800a64a:	1ac9      	subs	r1, r1, r3
 800a64c:	0c23      	lsrs	r3, r4, #16
 800a64e:	ebc3 431a 	rsb	r3, r3, sl, lsr #16
 800a652:	eb03 4321 	add.w	r3, r3, r1, asr #16
 800a656:	b289      	uxth	r1, r1
 800a658:	ea4f 4e23 	mov.w	lr, r3, asr #16
 800a65c:	45c8      	cmp	r8, r9
 800a65e:	ea41 4303 	orr.w	r3, r1, r3, lsl #16
 800a662:	4694      	mov	ip, r2
 800a664:	f845 3b04 	str.w	r3, [r5], #4
 800a668:	d8e8      	bhi.n	800a63c <__mdiff+0x5c>
 800a66a:	45bc      	cmp	ip, r7
 800a66c:	d304      	bcc.n	800a678 <__mdiff+0x98>
 800a66e:	f855 3d04 	ldr.w	r3, [r5, #-4]!
 800a672:	b183      	cbz	r3, 800a696 <__mdiff+0xb6>
 800a674:	6106      	str	r6, [r0, #16]
 800a676:	e7c5      	b.n	800a604 <__mdiff+0x24>
 800a678:	f85c 1b04 	ldr.w	r1, [ip], #4
 800a67c:	fa1e f381 	uxtah	r3, lr, r1
 800a680:	141a      	asrs	r2, r3, #16
 800a682:	eb02 4211 	add.w	r2, r2, r1, lsr #16
 800a686:	b29b      	uxth	r3, r3
 800a688:	ea43 4302 	orr.w	r3, r3, r2, lsl #16
 800a68c:	ea4f 4e22 	mov.w	lr, r2, asr #16
 800a690:	f845 3b04 	str.w	r3, [r5], #4
 800a694:	e7e9      	b.n	800a66a <__mdiff+0x8a>
 800a696:	3e01      	subs	r6, #1
 800a698:	e7e9      	b.n	800a66e <__mdiff+0x8e>

0800a69a <__d2b>:
 800a69a:	e92d 43f7 	stmdb	sp!, {r0, r1, r2, r4, r5, r6, r7, r8, r9, lr}
 800a69e:	460e      	mov	r6, r1
 800a6a0:	2101      	movs	r1, #1
 800a6a2:	ec59 8b10 	vmov	r8, r9, d0
 800a6a6:	4615      	mov	r5, r2
 800a6a8:	f7ff fd6b 	bl	800a182 <_Balloc>
 800a6ac:	f3c9 540a 	ubfx	r4, r9, #20, #11
 800a6b0:	4607      	mov	r7, r0
 800a6b2:	f3c9 0313 	ubfx	r3, r9, #0, #20
 800a6b6:	bb34      	cbnz	r4, 800a706 <__d2b+0x6c>
 800a6b8:	9301      	str	r3, [sp, #4]
 800a6ba:	f1b8 0300 	subs.w	r3, r8, #0
 800a6be:	d027      	beq.n	800a710 <__d2b+0x76>
 800a6c0:	a802      	add	r0, sp, #8
 800a6c2:	f840 3d08 	str.w	r3, [r0, #-8]!
 800a6c6:	f7ff fe01 	bl	800a2cc <__lo0bits>
 800a6ca:	9900      	ldr	r1, [sp, #0]
 800a6cc:	b1f0      	cbz	r0, 800a70c <__d2b+0x72>
 800a6ce:	9a01      	ldr	r2, [sp, #4]
 800a6d0:	f1c0 0320 	rsb	r3, r0, #32
 800a6d4:	fa02 f303 	lsl.w	r3, r2, r3
 800a6d8:	430b      	orrs	r3, r1
 800a6da:	40c2      	lsrs	r2, r0
 800a6dc:	617b      	str	r3, [r7, #20]
 800a6de:	9201      	str	r2, [sp, #4]
 800a6e0:	9b01      	ldr	r3, [sp, #4]
 800a6e2:	61bb      	str	r3, [r7, #24]
 800a6e4:	2b00      	cmp	r3, #0
 800a6e6:	bf14      	ite	ne
 800a6e8:	2102      	movne	r1, #2
 800a6ea:	2101      	moveq	r1, #1
 800a6ec:	6139      	str	r1, [r7, #16]
 800a6ee:	b1c4      	cbz	r4, 800a722 <__d2b+0x88>
 800a6f0:	f2a4 4433 	subw	r4, r4, #1075	; 0x433
 800a6f4:	4404      	add	r4, r0
 800a6f6:	6034      	str	r4, [r6, #0]
 800a6f8:	f1c0 0035 	rsb	r0, r0, #53	; 0x35
 800a6fc:	6028      	str	r0, [r5, #0]
 800a6fe:	4638      	mov	r0, r7
 800a700:	b003      	add	sp, #12
 800a702:	e8bd 83f0 	ldmia.w	sp!, {r4, r5, r6, r7, r8, r9, pc}
 800a706:	f443 1380 	orr.w	r3, r3, #1048576	; 0x100000
 800a70a:	e7d5      	b.n	800a6b8 <__d2b+0x1e>
 800a70c:	6179      	str	r1, [r7, #20]
 800a70e:	e7e7      	b.n	800a6e0 <__d2b+0x46>
 800a710:	a801      	add	r0, sp, #4
 800a712:	f7ff fddb 	bl	800a2cc <__lo0bits>
 800a716:	9b01      	ldr	r3, [sp, #4]
 800a718:	617b      	str	r3, [r7, #20]
 800a71a:	2101      	movs	r1, #1
 800a71c:	6139      	str	r1, [r7, #16]
 800a71e:	3020      	adds	r0, #32
 800a720:	e7e5      	b.n	800a6ee <__d2b+0x54>
 800a722:	eb07 0381 	add.w	r3, r7, r1, lsl #2
 800a726:	f2a0 4032 	subw	r0, r0, #1074	; 0x432
 800a72a:	6030      	str	r0, [r6, #0]
 800a72c:	6918      	ldr	r0, [r3, #16]
 800a72e:	f7ff fdae 	bl	800a28e <__hi0bits>
 800a732:	ebc0 1041 	rsb	r0, r0, r1, lsl #5
 800a736:	e7e1      	b.n	800a6fc <__d2b+0x62>

0800a738 <_calloc_r>:
 800a738:	b538      	push	{r3, r4, r5, lr}
 800a73a:	fb02 f401 	mul.w	r4, r2, r1
 800a73e:	4621      	mov	r1, r4
 800a740:	f7fe f80a 	bl	8008758 <_malloc_r>
 800a744:	4605      	mov	r5, r0
 800a746:	b118      	cbz	r0, 800a750 <_calloc_r+0x18>
 800a748:	4622      	mov	r2, r4
 800a74a:	2100      	movs	r1, #0
 800a74c:	f7fd ffae 	bl	80086ac <memset>
 800a750:	4628      	mov	r0, r5
 800a752:	bd38      	pop	{r3, r4, r5, pc}

0800a754 <__sread>:
 800a754:	b510      	push	{r4, lr}
 800a756:	460c      	mov	r4, r1
 800a758:	f9b1 100e 	ldrsh.w	r1, [r1, #14]
 800a75c:	f000 f8a6 	bl	800a8ac <_read_r>
 800a760:	2800      	cmp	r0, #0
 800a762:	bfab      	itete	ge
 800a764:	6d63      	ldrge	r3, [r4, #84]	; 0x54
 800a766:	89a3      	ldrhlt	r3, [r4, #12]
 800a768:	181b      	addge	r3, r3, r0
 800a76a:	f423 5380 	biclt.w	r3, r3, #4096	; 0x1000
 800a76e:	bfac      	ite	ge
 800a770:	6563      	strge	r3, [r4, #84]	; 0x54
 800a772:	81a3      	strhlt	r3, [r4, #12]
 800a774:	bd10      	pop	{r4, pc}

0800a776 <__swrite>:
 800a776:	e92d 41f0 	stmdb	sp!, {r4, r5, r6, r7, r8, lr}
 800a77a:	461f      	mov	r7, r3
 800a77c:	898b      	ldrh	r3, [r1, #12]
 800a77e:	05db      	lsls	r3, r3, #23
 800a780:	4605      	mov	r5, r0
 800a782:	460c      	mov	r4, r1
 800a784:	4616      	mov	r6, r2
 800a786:	d505      	bpl.n	800a794 <__swrite+0x1e>
 800a788:	2302      	movs	r3, #2
 800a78a:	2200      	movs	r2, #0
 800a78c:	f9b1 100e 	ldrsh.w	r1, [r1, #14]
 800a790:	f000 f868 	bl	800a864 <_lseek_r>
 800a794:	89a3      	ldrh	r3, [r4, #12]
 800a796:	f9b4 100e 	ldrsh.w	r1, [r4, #14]
 800a79a:	f423 5380 	bic.w	r3, r3, #4096	; 0x1000
 800a79e:	81a3      	strh	r3, [r4, #12]
 800a7a0:	4632      	mov	r2, r6
 800a7a2:	463b      	mov	r3, r7
 800a7a4:	4628      	mov	r0, r5
 800a7a6:	e8bd 41f0 	ldmia.w	sp!, {r4, r5, r6, r7, r8, lr}
 800a7aa:	f000 b817 	b.w	800a7dc <_write_r>

0800a7ae <__sseek>:
 800a7ae:	b510      	push	{r4, lr}
 800a7b0:	460c      	mov	r4, r1
 800a7b2:	f9b1 100e 	ldrsh.w	r1, [r1, #14]
 800a7b6:	f000 f855 	bl	800a864 <_lseek_r>
 800a7ba:	1c43      	adds	r3, r0, #1
 800a7bc:	89a3      	ldrh	r3, [r4, #12]
 800a7be:	bf15      	itete	ne
 800a7c0:	6560      	strne	r0, [r4, #84]	; 0x54
 800a7c2:	f423 5380 	biceq.w	r3, r3, #4096	; 0x1000
 800a7c6:	f443 5380 	orrne.w	r3, r3, #4096	; 0x1000
 800a7ca:	81a3      	strheq	r3, [r4, #12]
 800a7cc:	bf18      	it	ne
 800a7ce:	81a3      	strhne	r3, [r4, #12]
 800a7d0:	bd10      	pop	{r4, pc}

0800a7d2 <__sclose>:
 800a7d2:	f9b1 100e 	ldrsh.w	r1, [r1, #14]
 800a7d6:	f000 b813 	b.w	800a800 <_close_r>
	...

0800a7dc <_write_r>:
 800a7dc:	b538      	push	{r3, r4, r5, lr}
 800a7de:	4c07      	ldr	r4, [pc, #28]	; (800a7fc <_write_r+0x20>)
 800a7e0:	4605      	mov	r5, r0
 800a7e2:	4608      	mov	r0, r1
 800a7e4:	4611      	mov	r1, r2
 800a7e6:	2200      	movs	r2, #0
 800a7e8:	6022      	str	r2, [r4, #0]
 800a7ea:	461a      	mov	r2, r3
 800a7ec:	f7fd fbaa 	bl	8007f44 <_write>
 800a7f0:	1c43      	adds	r3, r0, #1
 800a7f2:	d102      	bne.n	800a7fa <_write_r+0x1e>
 800a7f4:	6823      	ldr	r3, [r4, #0]
 800a7f6:	b103      	cbz	r3, 800a7fa <_write_r+0x1e>
 800a7f8:	602b      	str	r3, [r5, #0]
 800a7fa:	bd38      	pop	{r3, r4, r5, pc}
 800a7fc:	200012e4 	.word	0x200012e4

0800a800 <_close_r>:
 800a800:	b538      	push	{r3, r4, r5, lr}
 800a802:	4c06      	ldr	r4, [pc, #24]	; (800a81c <_close_r+0x1c>)
 800a804:	2300      	movs	r3, #0
 800a806:	4605      	mov	r5, r0
 800a808:	4608      	mov	r0, r1
 800a80a:	6023      	str	r3, [r4, #0]
 800a80c:	f7fd fbbc 	bl	8007f88 <_close>
 800a810:	1c43      	adds	r3, r0, #1
 800a812:	d102      	bne.n	800a81a <_close_r+0x1a>
 800a814:	6823      	ldr	r3, [r4, #0]
 800a816:	b103      	cbz	r3, 800a81a <_close_r+0x1a>
 800a818:	602b      	str	r3, [r5, #0]
 800a81a:	bd38      	pop	{r3, r4, r5, pc}
 800a81c:	200012e4 	.word	0x200012e4

0800a820 <_fstat_r>:
 800a820:	b538      	push	{r3, r4, r5, lr}
 800a822:	4c07      	ldr	r4, [pc, #28]	; (800a840 <_fstat_r+0x20>)
 800a824:	2300      	movs	r3, #0
 800a826:	4605      	mov	r5, r0
 800a828:	4608      	mov	r0, r1
 800a82a:	4611      	mov	r1, r2
 800a82c:	6023      	str	r3, [r4, #0]
 800a82e:	f7fd fbaf 	bl	8007f90 <_fstat>
 800a832:	1c43      	adds	r3, r0, #1
 800a834:	d102      	bne.n	800a83c <_fstat_r+0x1c>
 800a836:	6823      	ldr	r3, [r4, #0]
 800a838:	b103      	cbz	r3, 800a83c <_fstat_r+0x1c>
 800a83a:	602b      	str	r3, [r5, #0]
 800a83c:	bd38      	pop	{r3, r4, r5, pc}
 800a83e:	bf00      	nop
 800a840:	200012e4 	.word	0x200012e4

0800a844 <_isatty_r>:
 800a844:	b538      	push	{r3, r4, r5, lr}
 800a846:	4c06      	ldr	r4, [pc, #24]	; (800a860 <_isatty_r+0x1c>)
 800a848:	2300      	movs	r3, #0
 800a84a:	4605      	mov	r5, r0
 800a84c:	4608      	mov	r0, r1
 800a84e:	6023      	str	r3, [r4, #0]
 800a850:	f7fd fba4 	bl	8007f9c <_isatty>
 800a854:	1c43      	adds	r3, r0, #1
 800a856:	d102      	bne.n	800a85e <_isatty_r+0x1a>
 800a858:	6823      	ldr	r3, [r4, #0]
 800a85a:	b103      	cbz	r3, 800a85e <_isatty_r+0x1a>
 800a85c:	602b      	str	r3, [r5, #0]
 800a85e:	bd38      	pop	{r3, r4, r5, pc}
 800a860:	200012e4 	.word	0x200012e4

0800a864 <_lseek_r>:
 800a864:	b538      	push	{r3, r4, r5, lr}
 800a866:	4c07      	ldr	r4, [pc, #28]	; (800a884 <_lseek_r+0x20>)
 800a868:	4605      	mov	r5, r0
 800a86a:	4608      	mov	r0, r1
 800a86c:	4611      	mov	r1, r2
 800a86e:	2200      	movs	r2, #0
 800a870:	6022      	str	r2, [r4, #0]
 800a872:	461a      	mov	r2, r3
 800a874:	f7fd fb94 	bl	8007fa0 <_lseek>
 800a878:	1c43      	adds	r3, r0, #1
 800a87a:	d102      	bne.n	800a882 <_lseek_r+0x1e>
 800a87c:	6823      	ldr	r3, [r4, #0]
 800a87e:	b103      	cbz	r3, 800a882 <_lseek_r+0x1e>
 800a880:	602b      	str	r3, [r5, #0]
 800a882:	bd38      	pop	{r3, r4, r5, pc}
 800a884:	200012e4 	.word	0x200012e4

0800a888 <__ascii_mbtowc>:
 800a888:	b082      	sub	sp, #8
 800a88a:	b901      	cbnz	r1, 800a88e <__ascii_mbtowc+0x6>
 800a88c:	a901      	add	r1, sp, #4
 800a88e:	b142      	cbz	r2, 800a8a2 <__ascii_mbtowc+0x1a>
 800a890:	b14b      	cbz	r3, 800a8a6 <__ascii_mbtowc+0x1e>
 800a892:	7813      	ldrb	r3, [r2, #0]
 800a894:	600b      	str	r3, [r1, #0]
 800a896:	7812      	ldrb	r2, [r2, #0]
 800a898:	1c10      	adds	r0, r2, #0
 800a89a:	bf18      	it	ne
 800a89c:	2001      	movne	r0, #1
 800a89e:	b002      	add	sp, #8
 800a8a0:	4770      	bx	lr
 800a8a2:	4610      	mov	r0, r2
 800a8a4:	e7fb      	b.n	800a89e <__ascii_mbtowc+0x16>
 800a8a6:	f06f 0001 	mvn.w	r0, #1
 800a8aa:	e7f8      	b.n	800a89e <__ascii_mbtowc+0x16>

0800a8ac <_read_r>:
 800a8ac:	b538      	push	{r3, r4, r5, lr}
 800a8ae:	4c07      	ldr	r4, [pc, #28]	; (800a8cc <_read_r+0x20>)
 800a8b0:	4605      	mov	r5, r0
 800a8b2:	4608      	mov	r0, r1
 800a8b4:	4611      	mov	r1, r2
 800a8b6:	2200      	movs	r2, #0
 800a8b8:	6022      	str	r2, [r4, #0]
 800a8ba:	461a      	mov	r2, r3
 800a8bc:	f7fd fb34 	bl	8007f28 <_read>
 800a8c0:	1c43      	adds	r3, r0, #1
 800a8c2:	d102      	bne.n	800a8ca <_read_r+0x1e>
 800a8c4:	6823      	ldr	r3, [r4, #0]
 800a8c6:	b103      	cbz	r3, 800a8ca <_read_r+0x1e>
 800a8c8:	602b      	str	r3, [r5, #0]
 800a8ca:	bd38      	pop	{r3, r4, r5, pc}
 800a8cc:	200012e4 	.word	0x200012e4

0800a8d0 <__ascii_wctomb>:
 800a8d0:	b149      	cbz	r1, 800a8e6 <__ascii_wctomb+0x16>
 800a8d2:	2aff      	cmp	r2, #255	; 0xff
 800a8d4:	bf85      	ittet	hi
 800a8d6:	238a      	movhi	r3, #138	; 0x8a
 800a8d8:	6003      	strhi	r3, [r0, #0]
 800a8da:	700a      	strbls	r2, [r1, #0]
 800a8dc:	f04f 30ff 	movhi.w	r0, #4294967295
 800a8e0:	bf98      	it	ls
 800a8e2:	2001      	movls	r0, #1
 800a8e4:	4770      	bx	lr
 800a8e6:	4608      	mov	r0, r1
 800a8e8:	4770      	bx	lr
	...

0800a8ec <_init>:
 800a8ec:	b5f8      	push	{r3, r4, r5, r6, r7, lr}
 800a8ee:	bf00      	nop
 800a8f0:	bcf8      	pop	{r3, r4, r5, r6, r7}
 800a8f2:	bc08      	pop	{r3}
 800a8f4:	469e      	mov	lr, r3
 800a8f6:	4770      	bx	lr

0800a8f8 <_fini>:
 800a8f8:	b5f8      	push	{r3, r4, r5, r6, r7, lr}
 800a8fa:	bf00      	nop
 800a8fc:	bcf8      	pop	{r3, r4, r5, r6, r7}
 800a8fe:	bc08      	pop	{r3}
 800a900:	469e      	mov	lr, r3
 800a902:	4770      	bx	lr
